(dp0
S'ec:35:86:37:9e:38'
p1
(lp2
(lp3
NaNaNaNaNaNaNaNaNaNaNaNaNaNaNaNaNaNaNaNaa(lp4
NaNaNaNaNaNaNaNaNaNaNaNaNaNaNaNaNaNaNaNaa(lp5
NaNaNaNaNaNaNaNaNaNaNaNaNaNaNaNaNaNaNaNaa(lp6
NaNaNaNaNaNaNaNaNaNaNaNaNaNaNaNaNaNaNaNaa(lp7
NaNaNaNaNaNaNaNaNaNaNaNaNaNaNaNaNaNaNaNaa(lp8
NaNaNaNaNaNaNaNaNaNaNaNaNaNaNaNaNaNaNaNaa(lp9
NaNaNaNaNaNaNaNaNaNaNaNaNaNaNaNaNaNaNaNaa(lp10
NaNaNaNaNaNaNaNaNaNaNaNaNaNaNaNaNaNaNaNaa(lp11
NaNaNaNaNaNaNaNaNaNaNaNaNaNaNaNaNaNaNaNaa(lp12
NaNaNaNaNaNaNaNaNaNaNaNaNaNacnumpy.core.multiarray
scalar
p13
(cnumpy
dtype
p14
(S'f8'
p15
I0
I1
tp16
Rp17
(I3
S'<'
p18
NNNI-1
I-1
I0
tp19
bS'\x00\x00\x00\x00\x00pU\xc0'
p20
tp21
Rp22
aNaNaNaNaNaa(lp23
NaNaNaNaNaNaNaNaNaNaNaNaNaNaNaNaNaNaNaNaa(lp24
NaNaNaNaNaNaNaNaNaNaNaNaNaNaNaNaNaNaNaNaa(lp25
NaNaNaNaNaNaNaNaNaNaNaNaNaNaNaNaNaNaNaNaa(lp26
NaNaNaNaNaNaNaNaNaNaNaNaNaNaNaNaNaNaNaNaa(lp27
NaNaNaNaNaNaNaNaNaNaNaNaNaNaNaNaNaNaNaNaa(lp28
NaNaNaNaNaNaNaNaNaNaNaNaNaNaNaNaNaNaNaNaa(lp29
NaNaNaNaNaNaNaNaNaNaNaNaNaNaNaNaNaNaNaNaa(lp30
NaNaNaNaNaNaNaNaNaNaNaNaNaNaNaNaNaNaNaNaa(lp31
NaNaNaNaNaNaNaNaNaNaNaNaNaNaNaNaNaNaNaNaa(lp32
NaNaNaNaNaNaNaNaNaNaNaNaNaNaNaNaNaNaNaNaa(lp33
NaNaNaNaNaNaNaNaNaNaNaNaNaNaNaNaNaNaNaNaa(lp34
NaNaNaNaNaNaNaNaNaNaNaNaNaNaNaNaNaNaNaNaa(lp35
NaNaNaNaNaNaNaNaNaNaNaNaNaNaNaNaNaNaNaNaa(lp36
NaNaNaNaNaNaNaNaNaNaNaNaNaNaNaNaNaNaNaNaa(lp37
NaNaNaNaNaNaNaNaNaNaNaNaNaNaNaNaNaNaNaNaa(lp38
NaNaNaNaNaNaNaNaNaNaNaNaNaNaNaNaNaNaNaNaa(lp39
NaNaNaNaNaNaNaNaNaNaNaNaNaNaNaNaNaNaNaNaasS'58:6d:8f:de:b2:fb'
p40
(lp41
(lp42
NaNaNaNaNaNaNaNaNaNaNaNaNaNaNaNaNaNaNaNaa(lp43
NaNaNaNaNaNaNaNaNaNaNaNaNaNaNaNaNaNaNaNaa(lp44
NaNaNaNaNaNaNaNaNaNaNaNaNaNaNaNaNaNaNaNaa(lp45
NaNaNaNaNaNaNaNaNaNaNaNaNaNaNaNaNaNaNaNaa(lp46
NaNaNaNaNaNaNaNaNaNaNaNaNaNaNaNaNaNaNaNaa(lp47
NaNaNaNaNaNaNaNaNaNaNaNaNaNaNaNaNaNaNaNaa(lp48
NaNaNaNaNaNaNaNaNaNaNaNaNaNaNaNaNaNaNaNaa(lp49
NaNaNaNaNaNaNaNaNaNaNaNaNaNaNaNaNaNaNaNaa(lp50
NaNaNaNaNaNaNaNaNaNaNaNaNaNaNaNaNaNaNaNaa(lp51
NaNaNaNaNaNaNaNaNaNaNaNaNaNaNaNaNaNaNaNaa(lp52
NaNaNaNaNaNaNaNaNaNaNaNaNaNaNag13
(g17
S'\x00\x00\x00\x00\x00\x00U\xc0'
p53
tp54
Rp55
aNaNaNaNaa(lp56
NaNaNaNaNaNaNaNaNaNaNaNaNaNaNaNaNaNaNaNaa(lp57
NaNaNaNaNaNaNaNaNaNaNaNaNaNaNaNaNaNaNaNaa(lp58
NaNaNaNaNaNaNaNaNaNaNaNaNaNaNaNaNaNaNaNaa(lp59
NaNaNaNaNaNaNaNaNaNaNaNaNaNaNaNaNaNaNaNaa(lp60
NaNaNaNaNaNaNaNaNaNaNaNaNaNaNaNaNaNaNaNaa(lp61
NaNaNaNaNaNaNaNaNaNaNaNaNaNaNaNaNaNaNaNaa(lp62
NaNaNaNaNaNaNaNaNaNaNaNaNaNaNaNaNaNaNaNaa(lp63
NaNaNaNaNaNaNaNaNaNaNaNaNaNaNaNaNaNaNaNaa(lp64
NaNaNaNaNaNaNaNaNaNaNaNaNaNaNaNaNaNaNaNaa(lp65
NaNaNaNaNaNaNaNaNaNaNaNaNaNaNaNaNaNaNaNaa(lp66
NaNaNaNaNaNaNaNaNaNaNaNaNaNaNaNaNaNaNaNaa(lp67
NaNaNaNaNaNaNaNaNaNaNaNaNaNaNaNaNaNaNaNaa(lp68
NaNaNaNaNaNaNaNaNaNaNaNaNaNaNaNaNaNaNaNaa(lp69
NaNaNaNaNaNaNaNaNaNaNaNaNaNaNaNaNaNaNaNaa(lp70
NaNaNaNaNaNaNaNaNaNaNaNaNaNaNaNaNaNaNaNaa(lp71
NaNaNaNaNaNaNaNaNaNaNaNaNaNaNaNaNaNaNaNaasS'00:14:d1:9e:58:34'
p72
(lp73
(lp74
NaNaNaNaNaNaNaNaNaNaNaNaNaNaNaNaNaNaNaNaa(lp75
NaNaNaNaNaNaNaNaNaNaNaNaNaNaNaNaNaNaNaNaa(lp76
NaNaNaNaNaNaNaNaNaNaNaNaNaNaNaNaNaNaNaNaa(lp77
NaNaNaNaNaNaNaNaNaNaNaNaNaNaNaNaNaNaNaNaa(lp78
NaNaNaNaNaNaNaNaNaNaNaNaNaNaNaNaNaNaNaNaa(lp79
NaNaNaNaNaNaNaNaNaNaNaNaNaNaNaNaNaNaNaNaa(lp80
NaNaNaNaNaNaNaNaNaNaNaNaNaNaNaNaNaNaNaNaa(lp81
NaNaNaNaNaNaNaNaNaNaNaNaNaNaNaNaNaNaNaNaa(lp82
NaNaNaNaNaNaNaNaNaNaNaNaNaNaNaNaNaNaNaNaa(lp83
NaNaNaNaNaNaNaNaNaNaNaNaNag13
(g17
S'I\x92$I\x92\xa4U\xc0'
p84
tp85
Rp86
ag13
(g17
S'\x00\x00\x00\x00\x00\x80U\xc0'
p87
tp88
Rp89
aNaNaNaNaNaa(lp90
NaNaNaNaNaNaNaNaNaNaNaNaNaNag13
(g17
S'\x00\x00\x00\x00\x00\xc0U\xc0'
p91
tp92
Rp93
ag13
(g17
S'\x00\x00\x00\x00\x000U\xc0'
p94
tp95
Rp96
aNaNaNaNaa(lp97
NaNaNaNaNaNaNaNaNaNaNaNaNaNaNaNaNaNaNaNaa(lp98
NaNaNaNaNaNaNaNaNaNaNaNaNaNaNaNaNaNaNaNaa(lp99
NaNaNaNaNaNaNaNaNaNaNaNaNaNaNaNaNaNaNaNaa(lp100
NaNaNaNaNaNaNaNaNaNaNaNaNaNaNaNaNaNaNaNaa(lp101
NaNaNaNaNaNaNaNaNaNaNaNaNaNaNaNaNaNaNaNaa(lp102
NaNaNaNaNaNaNaNaNaNaNaNaNaNaNaNaNaNaNaNaa(lp103
NaNaNaNaNaNaNaNaNaNaNaNaNaNaNaNaNaNaNaNaa(lp104
NaNaNaNaNaNaNaNaNaNaNaNaNaNaNaNaNaNaNaNaa(lp105
NaNaNaNaNaNaNaNaNaNaNaNaNaNaNaNaNaNaNaNaa(lp106
NaNaNaNaNaNaNaNaNaNaNaNaNaNaNaNaNaNaNaNaa(lp107
NaNaNaNaNaNaNaNaNaNaNaNaNaNaNaNaNaNaNaNaa(lp108
NaNaNaNaNaNaNaNaNaNaNaNaNaNaNaNaNaNaNaNaa(lp109
NaNaNaNaNaNaNaNaNaNaNaNaNaNaNaNaNaNaNaNaa(lp110
NaNaNaNaNaNaNaNaNaNaNaNaNaNaNaNaNaNaNaNaa(lp111
NaNaNaNaNaNaNaNaNaNaNaNaNaNaNaNaNaNaNaNaa(lp112
NaNaNaNaNaNaNaNaNaNaNaNaNaNaNaNaNaNaNaNaasS'a4:db:30:b5:b0:57'
p113
(lp114
(lp115
NaNaNaNaNaNaNaNaNaNaNaNaNaNaNaNaNaNaNaNaa(lp116
NaNaNaNaNaNaNaNaNaNaNaNaNaNaNaNaNaNaNaNaa(lp117
NaNaNaNaNaNaNaNaNaNaNaNaNaNaNaNaNaNaNaNaa(lp118
NaNaNaNaNaNaNaNaNaNaNaNaNaNaNaNaNaNaNaNaa(lp119
NaNaNaNaNaNaNaNaNaNaNaNaNaNaNaNaNaNaNaNaa(lp120
NaNaNaNaNaNaNaNaNaNaNaNaNaNaNaNaNaNaNaNaa(lp121
NaNaNaNaNaNaNaNaNaNaNaNaNaNaNaNaNaNaNaNaa(lp122
NaNaNaNaNaNaNaNaNaNaNaNaNaNaNaNaNaNaNaNaa(lp123
NaNaNaNaNaNaNaNaNaNaNaNaNaNaNaNaNaNaNaNaa(lp124
NaNaNaNaNaNaNaNaNaNaNaNaNag13
(g17
S'\x90[\x97w\xc0QU\xc0'
p125
tp126
Rp127
ag13
(g17
S'\x00\x00\x00\x00\x00\x80T\xc0'
p128
tp129
Rp130
aNaNaNaNaNaa(lp131
NaNaNaNaNaNaNaNaNaNaNaNaNaNag13
(g17
S'\x00\x00\x00\x00\x00 U\xc0'
p132
tp133
Rp134
aNaNaNaNaNaa(lp135
NaNaNaNaNaNaNaNaNaNaNaNaNaNaNaNaNaNaNaNaa(lp136
NaNaNaNaNaNaNaNaNaNaNaNaNaNaNaNaNaNaNaNaa(lp137
NaNaNaNaNaNaNaNaNaNaNaNaNaNaNaNaNaNaNaNaa(lp138
NaNaNaNaNaNaNaNaNaNaNaNaNaNaNaNaNaNaNaNaa(lp139
NaNaNaNaNaNaNaNaNaNaNaNaNaNaNaNaNaNaNaNaa(lp140
NaNaNaNaNaNaNaNaNaNaNaNaNaNaNaNaNaNaNaNaa(lp141
NaNaNaNaNaNaNaNaNaNaNaNaNaNaNaNaNaNaNaNaa(lp142
NaNaNaNaNaNaNaNaNaNaNaNaNaNaNaNaNaNaNaNaa(lp143
NaNaNaNaNaNaNaNaNaNaNaNaNaNaNaNaNaNaNaNaa(lp144
NaNaNaNaNaNaNaNaNaNaNaNaNaNaNaNaNaNaNaNaa(lp145
NaNaNaNaNaNaNaNaNaNaNaNaNaNaNaNaNaNaNaNaa(lp146
NaNaNaNaNaNaNaNaNaNaNaNaNaNaNaNaNaNaNaNaa(lp147
NaNaNaNaNaNaNaNaNaNaNaNaNaNaNaNaNaNaNaNaa(lp148
NaNaNaNaNaNaNaNaNaNaNaNaNaNaNaNaNaNaNaNaa(lp149
NaNaNaNaNaNaNaNaNaNaNaNaNaNaNaNaNaNaNaNaa(lp150
NaNaNaNaNaNaNaNaNaNaNaNaNaNaNaNaNaNaNaNaasS'a8:92:2c:37:51:08'
p151
(lp152
(lp153
NaNaNaNaNaNaNaNaNaNaNaNaNaNaNaNaNaNaNaNaa(lp154
NaNaNaNaNaNaNaNaNaNaNaNaNaNaNaNaNaNaNaNaa(lp155
NaNaNaNaNaNaNaNaNaNaNaNaNaNaNaNaNaNaNaNaa(lp156
NaNaNaNaNaNaNaNaNaNaNaNaNaNaNaNaNaNaNaNaa(lp157
NaNaNaNaNaNaNaNaNaNaNaNaNaNaNaNaNaNaNaNaa(lp158
NaNaNaNaNaNaNaNaNaNaNaNaNaNaNaNaNaNaNaNaa(lp159
NaNaNaNaNaNaNaNaNaNaNaNaNaNaNaNaNaNaNaNaa(lp160
NaNaNaNaNaNaNaNaNaNaNaNaNaNaNaNaNaNaNaNaa(lp161
NaNaNaNaNaNaNaNaNaNaNaNaNaNaNaNaNaNaNaNaa(lp162
NaNaNaNaNaNaNaNaNaNaNaNaNag13
(g17
S'\x9a\x99\x99\x99\x99\x99S\xc0'
p163
tp164
Rp165
aNaNaNaNaNaNaa(lp166
NaNaNaNaNaNaNaNaNaNaNaNaNaNaNaNaNaNaNaNaa(lp167
NaNaNaNaNaNaNaNaNaNaNaNaNaNaNaNaNaNaNaNaa(lp168
NaNaNaNaNaNaNaNaNaNaNaNaNaNaNaNaNaNaNaNaa(lp169
NaNaNaNaNaNaNaNaNaNaNaNaNaNaNaNaNaNaNaNaa(lp170
NaNaNaNaNaNaNaNaNaNaNaNaNaNaNaNaNaNaNaNaa(lp171
NaNaNaNaNaNaNaNaNaNaNaNaNaNaNaNaNaNaNaNaa(lp172
NaNaNaNaNaNaNaNaNaNaNaNaNaNaNaNaNaNaNaNaa(lp173
NaNaNaNaNaNaNaNaNaNaNaNaNaNaNaNaNaNaNaNaa(lp174
NaNaNaNaNaNaNaNaNaNaNaNaNaNaNaNaNaNaNaNaa(lp175
NaNaNaNaNaNaNaNaNaNaNaNaNaNaNaNaNaNaNaNaa(lp176
NaNaNaNaNaNaNaNaNaNaNaNaNaNaNaNaNaNaNaNaa(lp177
NaNaNaNaNaNaNaNaNaNaNaNaNaNaNaNaNaNaNaNaa(lp178
NaNaNaNaNaNaNaNaNaNaNaNaNaNaNaNaNaNaNaNaa(lp179
NaNaNaNaNaNaNaNaNaNaNaNaNaNaNaNaNaNaNaNaa(lp180
NaNaNaNaNaNaNaNaNaNaNaNaNaNaNaNaNaNaNaNaa(lp181
NaNaNaNaNaNaNaNaNaNaNaNaNaNaNaNaNaNaNaNaa(lp182
NaNaNaNaNaNaNaNaNaNaNaNaNaNaNaNaNaNaNaNaasS'8c:2d:aa:55:fb:87'
p183
(lp184
(lp185
NaNaNaNaNaNaNaNaNaNaNaNaNaNaNaNaNaNaNaNaa(lp186
NaNaNaNaNaNaNaNaNaNaNaNaNaNaNaNaNaNaNaNaa(lp187
NaNaNaNaNaNaNaNaNaNaNaNaNaNaNaNaNaNaNaNaa(lp188
NaNaNaNaNaNaNaNaNaNaNaNaNaNaNaNaNaNaNaNaa(lp189
NaNaNaNaNaNaNaNaNaNaNaNaNaNaNaNaNaNaNaNaa(lp190
NaNaNaNaNaNaNaNaNaNaNaNaNaNaNaNaNaNaNaNaa(lp191
NaNaNaNaNaNaNaNaNaNaNaNaNaNaNaNaNaNaNaNaa(lp192
NaNaNaNaNaNaNaNaNaNaNaNaNaNaNaNaNaNaNaNaa(lp193
NaNaNaNaNaNaNaNaNaNaNaNaNaNaNaNaNaNaNaNaa(lp194
NaNaNaNaNaNaNaNaNaNaNaNaNaNag13
(g17
S'\x00\x00\x00\x00\x00\xc0U\xc0'
p195
tp196
Rp197
aNaNaNaNaNaa(lp198
NaNaNaNaNaNaNaNaNaNaNaNaNaNaNaNaNaNaNaNaa(lp199
NaNaNaNaNaNaNaNaNaNaNaNaNaNaNaNaNaNaNaNaa(lp200
NaNaNaNaNaNaNaNaNaNaNaNaNaNaNaNaNaNaNaNaa(lp201
NaNaNaNaNaNaNaNaNaNaNaNaNaNaNaNaNaNaNaNaa(lp202
NaNaNaNaNaNaNaNaNaNaNaNaNaNaNaNaNaNaNaNaa(lp203
NaNaNaNaNaNaNaNaNaNaNaNaNaNaNaNaNaNaNaNaa(lp204
NaNaNaNaNaNaNaNaNaNaNaNaNaNaNaNaNaNaNaNaa(lp205
NaNaNaNaNaNaNaNaNaNaNaNaNaNaNaNaNaNaNaNaa(lp206
NaNaNaNaNaNaNaNaNaNaNaNaNaNaNaNaNaNaNaNaa(lp207
NaNaNaNaNaNaNaNaNaNaNaNaNaNaNaNaNaNaNaNaa(lp208
NaNaNaNaNaNaNaNaNaNaNaNaNaNaNaNaNaNaNaNaa(lp209
NaNaNaNaNaNaNaNaNaNaNaNaNaNaNaNaNaNaNaNaa(lp210
NaNaNaNaNaNaNaNaNaNaNaNaNaNaNaNaNaNaNaNaa(lp211
NaNaNaNaNaNaNaNaNaNaNaNaNaNaNaNaNaNaNaNaa(lp212
NaNaNaNaNaNaNaNaNaNaNaNaNaNaNaNaNaNaNaNaa(lp213
NaNaNaNaNaNaNaNaNaNaNaNaNaNaNaNaNaNaNaNaa(lp214
NaNaNaNaNaNaNaNaNaNaNaNaNaNaNaNaNaNaNaNaasS'18:3d:a2:0e:34:d0'
p215
(lp216
(lp217
NaNaNaNaNaNaNaNaNaNaNaNaNaNaNaNaNaNaNaNaa(lp218
NaNaNaNaNaNaNaNaNaNaNaNaNaNaNaNaNaNaNaNaa(lp219
NaNaNaNaNaNaNaNaNaNaNaNaNaNaNaNaNaNaNaNaa(lp220
NaNaNaNaNaNaNaNaNaNaNaNaNaNaNaNaNaNaNaNaa(lp221
NaNaNaNaNaNaNaNaNaNaNaNaNaNaNaNaNaNaNaNaa(lp222
NaNaNaNaNaNaNaNaNaNaNaNaNaNaNaNaNaNaNaNaa(lp223
NaNaNaNaNaNaNaNaNaNaNaNaNaNaNaNaNaNaNaNaa(lp224
NaNaNaNaNaNaNaNaNaNaNaNaNaNaNaNaNaNaNaNaa(lp225
NaNaNaNaNaNaNaNaNaNaNaNaNaNaNaNaNaNaNaNaa(lp226
NaNaNaNaNaNaNaNaNaNaNaNaNaNag13
(g17
S'%I\x92$I\x12S\xc0'
p227
tp228
Rp229
aNaNaNaNaNaa(lp230
NaNaNaNaNaNaNaNaNaNaNaNaNaNaNaNaNaNaNaNaa(lp231
NaNaNaNaNaNaNaNaNaNaNaNaNaNaNaNaNaNaNaNaa(lp232
NaNaNaNaNaNaNaNaNaNaNaNaNaNaNaNaNaNaNaNaa(lp233
NaNaNaNaNaNaNaNaNaNaNaNaNaNaNaNaNaNaNaNaa(lp234
NaNaNaNaNaNaNaNaNaNaNaNaNaNaNaNaNaNaNaNaa(lp235
NaNaNaNaNaNaNaNaNaNaNaNaNaNaNaNaNaNaNaNaa(lp236
NaNaNaNaNaNaNaNaNaNaNaNaNaNaNaNaNaNaNaNaa(lp237
NaNaNaNaNaNaNaNaNaNaNaNaNaNaNaNaNaNaNaNaa(lp238
NaNaNaNaNaNaNaNaNaNaNaNaNaNaNaNaNaNaNaNaa(lp239
NaNaNaNaNaNaNaNaNaNaNaNaNaNaNaNaNaNaNaNaa(lp240
NaNaNaNaNaNaNaNaNaNaNaNaNaNaNaNaNaNaNaNaa(lp241
NaNaNaNaNaNaNaNaNaNaNaNaNaNaNaNaNaNaNaNaa(lp242
NaNaNaNaNaNaNaNaNaNaNaNaNaNaNaNaNaNaNaNaa(lp243
NaNaNaNaNaNaNaNaNaNaNaNaNaNaNaNaNaNaNaNaa(lp244
NaNaNaNaNaNaNaNaNaNaNaNaNaNaNaNaNaNaNaNaa(lp245
NaNaNaNaNaNaNaNaNaNaNaNaNaNaNaNaNaNaNaNaa(lp246
NaNaNaNaNaNaNaNaNaNaNaNaNaNaNaNaNaNaNaNaasS'68:17:29:75:66:79'
p247
(lp248
(lp249
NaNaNaNaNaNaNaNaNaNaNaNaNaNaNaNaNaNaNaNaa(lp250
NaNaNaNaNaNaNaNaNaNaNaNaNaNaNaNaNaNaNaNaa(lp251
NaNaNaNaNaNaNaNaNaNaNaNaNaNaNaNaNaNaNaNaa(lp252
NaNaNaNaNaNaNaNaNaNaNaNaNaNaNaNaNaNaNaNaa(lp253
NaNaNaNaNaNaNaNaNaNaNaNaNaNaNaNaNaNaNaNaa(lp254
NaNaNaNaNaNaNaNaNaNaNaNaNaNaNaNaNaNaNaNaa(lp255
NaNaNaNaNaNaNaNaNaNaNaNaNaNaNaNaNaNaNaNaa(lp256
NaNaNaNaNaNaNaNaNaNaNaNaNaNaNaNaNaNaNaNaa(lp257
NaNaNaNaNaNaNaNaNaNaNaNaNaNaNaNaNaNaNaNaa(lp258
NaNaNaNaNaNaNaNaNaNaNaNaNag13
(g17
S'\xab\xaa\xaa\xaa\xaa\xcaR\xc0'
p259
tp260
Rp261
ag13
(g17
S'UUUUUuT\xc0'
p262
tp263
Rp264
aNaNaNaNaNaa(lp265
NaNaNaNaNaNaNaNaNaNaNaNaNaNag13
(g17
S'\xba\xe8\xa2\x8b.\xbaS\xc0'
p266
tp267
Rp268
ag13
(g17
S'\x00\x00\x00\x00\x00PT\xc0'
p269
tp270
Rp271
aNaNaNaNaa(lp272
NaNaNaNaNaNaNaNaNaNaNaNaNaNaNaNaNaNaNaNaa(lp273
NaNaNaNaNaNaNaNaNaNaNaNaNaNaNaNaNaNaNaNaa(lp274
NaNaNaNaNaNaNaNaNaNaNaNaNaNaNaNaNaNaNaNaa(lp275
NaNaNaNaNaNaNaNaNaNaNaNaNaNaNaNaNaNaNaNaa(lp276
NaNaNaNaNaNaNaNaNaNaNaNaNaNaNaNaNaNaNaNaa(lp277
NaNaNaNaNaNaNaNaNaNaNaNaNaNaNaNaNaNaNaNaa(lp278
NaNaNaNaNaNaNaNaNaNaNaNaNaNaNaNaNaNaNaNaa(lp279
NaNaNaNaNaNaNaNaNaNaNaNaNaNaNaNaNaNaNaNaa(lp280
NaNaNaNaNaNaNaNaNaNaNaNaNaNaNaNaNaNaNaNaa(lp281
NaNaNaNaNaNaNaNaNaNaNaNaNaNaNaNaNaNaNaNaa(lp282
NaNaNaNaNaNaNaNaNaNaNaNaNaNaNaNaNaNaNaNaa(lp283
NaNaNaNaNaNaNaNaNaNaNaNaNaNaNaNaNaNaNaNaa(lp284
NaNaNaNaNaNaNaNaNaNaNaNaNaNaNaNaNaNaNaNaa(lp285
NaNaNaNaNaNaNaNaNaNaNaNaNaNaNaNaNaNaNaNaa(lp286
NaNaNaNaNaNaNaNaNaNaNaNaNaNaNaNaNaNaNaNaa(lp287
NaNaNaNaNaNaNaNaNaNaNaNaNaNaNaNaNaNaNaNaasS'00:1a:1e:11:4d:04'
p288
(lp289
(lp290
NaNaNaNaNaNaNaNaNaNaNaNaNaNaNaNaNaNaNaNaa(lp291
NaNaNaNaNaNaNaNaNaNaNaNaNaNaNaNaNaNaNaNaa(lp292
NaNaNaNaNaNaNaNaNaNaNaNaNaNaNaNaNaNaNaNaa(lp293
NaNaNaNaNaNaNaNaNaNaNaNaNaNaNaNaNaNaNaNaa(lp294
NaNaNaNaNaNaNaNaNaNaNaNaNaNaNaNaNaNaNaNaa(lp295
NaNaNaNaNaNaNaNaNaNaNaNaNaNaNaNaNaNaNaNaa(lp296
NaNaNaNaNaNaNaNaNaNaNaNaNaNaNaNaNaNaNaNaa(lp297
NaNaNaNaNaNaNaNaNaNaNaNaNaNaNaNaNaNaNaNaa(lp298
NaNaNaNaNaNaNaNaNaNaNaNaNaNaNaNaNaNaNaNaa(lp299
NaNaNaNaNaNaNaNaNaNaNaNaNaNag13
(g17
S'\x00\x00\x00\x00\x00\x00W\xc0'
p300
tp301
Rp302
aNaNaNaNaNaa(lp303
NaNaNaNaNaNaNaNaNaNaNaNaNaNaNaNaNaNaNaNaa(lp304
NaNaNaNaNaNaNaNaNaNaNaNaNaNaNaNaNaNaNaNaa(lp305
NaNaNaNaNaNaNaNaNaNaNaNaNaNaNaNaNaNaNaNaa(lp306
NaNaNaNaNaNaNaNaNaNaNaNaNaNaNaNaNaNaNaNaa(lp307
NaNaNaNaNaNaNaNaNaNaNaNaNaNaNaNaNaNaNaNaa(lp308
NaNaNaNaNaNaNaNaNaNaNaNaNaNaNaNaNaNaNaNaa(lp309
NaNaNaNaNaNaNaNaNaNaNaNaNaNaNaNaNaNaNaNaa(lp310
NaNaNaNaNaNaNaNaNaNaNaNaNaNaNaNaNaNaNaNaa(lp311
NaNaNaNaNaNaNaNaNaNaNaNaNaNaNaNaNaNaNaNaa(lp312
NaNaNaNaNaNaNaNaNaNaNaNaNaNaNaNaNaNaNaNaa(lp313
NaNaNaNaNaNaNaNaNaNaNaNaNaNaNaNaNaNaNaNaa(lp314
NaNaNaNaNaNaNaNaNaNaNaNaNaNaNaNaNaNaNaNaa(lp315
NaNaNaNaNaNaNaNaNaNaNaNaNaNaNaNaNaNaNaNaa(lp316
NaNaNaNaNaNaNaNaNaNaNaNaNaNaNaNaNaNaNaNaa(lp317
NaNaNaNaNaNaNaNaNaNaNaNaNaNaNaNaNaNaNaNaa(lp318
NaNaNaNaNaNaNaNaNaNaNaNaNaNaNaNaNaNaNaNaa(lp319
NaNaNaNaNaNaNaNaNaNaNaNaNaNaNaNaNaNaNaNaasS'00:1a:70:4d:17:43'
p320
(lp321
(lp322
NaNaNaNaNaNaNaNaNaNaNaNaNaNaNaNaNaNaNaNaa(lp323
NaNaNaNaNaNaNaNaNaNaNaNaNaNaNaNaNaNaNaNaa(lp324
NaNaNaNaNaNaNaNaNaNaNaNaNaNaNaNaNaNaNaNaa(lp325
NaNaNaNaNaNaNaNaNaNaNaNaNaNaNaNaNaNaNaNaa(lp326
NaNaNaNaNaNaNaNaNaNaNaNaNaNaNaNaNaNaNaNaa(lp327
NaNaNaNaNaNaNaNaNaNaNaNaNaNaNaNaNaNaNaNaa(lp328
NaNaNaNaNaNaNaNaNaNaNaNaNaNaNaNaNaNaNaNaa(lp329
NaNaNaNaNaNaNaNaNaNaNaNaNaNaNaNaNaNaNaNaa(lp330
NaNaNaNaNaNaNaNaNaNaNaNaNaNaNaNaNaNaNaNaa(lp331
NaNaNaNaNaNaNaNaNaNaNaNaNag13
(g17
S'X\xeei\x84\xe5\x9eU\xc0'
p332
tp333
Rp334
ag13
(g17
S'\x00\x00\x00\x00\x00lU\xc0'
p335
tp336
Rp337
aNaNaNaNaNaa(lp338
NaNaNaNaNaNaNaNaNaNaNaNaNaNag13
(g17
S'\x8f\xc2\xf5(\\oU\xc0'
p339
tp340
Rp341
ag13
(g17
S'\xbc\xbb\xbb\xbb\xbb\x9bU\xc0'
p342
tp343
Rp344
aNaNaNaNaa(lp345
NaNaNaNaNaNaNaNaNaNaNaNaNaNaNaNaNaNaNaNaa(lp346
NaNaNaNaNaNaNaNaNaNaNaNaNaNaNaNaNaNaNaNaa(lp347
NaNaNaNaNaNaNaNaNaNaNaNaNaNaNaNaNaNaNaNaa(lp348
NaNaNaNaNaNaNaNaNaNaNaNaNaNaNaNaNaNaNaNaa(lp349
NaNaNaNaNaNaNaNaNaNaNaNaNaNaNaNaNaNaNaNaa(lp350
NaNaNaNaNaNaNaNaNaNaNaNaNaNaNaNaNaNaNaNaa(lp351
NaNaNaNaNaNaNaNaNaNaNaNaNaNaNaNaNaNaNaNaa(lp352
NaNaNaNaNaNaNaNaNaNaNaNaNaNaNaNaNaNaNaNaa(lp353
NaNaNaNaNaNaNaNaNaNaNaNaNaNaNaNaNaNaNaNaa(lp354
NaNaNaNaNaNaNaNaNaNaNaNaNaNaNaNaNaNaNaNaa(lp355
NaNaNaNaNaNaNaNaNaNaNaNaNaNaNaNaNaNaNaNaa(lp356
NaNaNaNaNaNaNaNaNaNaNaNaNaNaNaNaNaNaNaNaa(lp357
NaNaNaNaNaNaNaNaNaNaNaNaNaNaNaNaNaNaNaNaa(lp358
NaNaNaNaNaNaNaNaNaNaNaNaNaNaNaNaNaNaNaNaa(lp359
NaNaNaNaNaNaNaNaNaNaNaNaNaNaNaNaNaNaNaNaa(lp360
NaNaNaNaNaNaNaNaNaNaNaNaNaNaNaNaNaNaNaNaasS'e8:2a:ea:a4:22:b6'
p361
(lp362
(lp363
NaNaNaNaNaNaNaNaNaNaNaNaNaNaNaNaNaNaNaNaa(lp364
NaNaNaNaNaNaNaNaNaNaNaNaNaNaNaNaNaNaNaNaa(lp365
NaNaNaNaNaNaNaNaNaNaNaNaNaNaNaNaNaNaNaNaa(lp366
NaNaNaNaNaNaNaNaNaNaNaNaNaNaNaNaNaNaNaNaa(lp367
NaNaNaNaNaNaNaNaNaNaNaNaNaNaNaNaNaNaNaNaa(lp368
NaNaNaNaNaNaNaNaNaNaNaNaNaNaNaNaNaNaNaNaa(lp369
NaNaNaNaNaNaNaNaNaNaNaNaNaNaNaNaNaNaNaNaa(lp370
NaNaNaNaNaNaNaNaNaNaNaNaNaNaNaNaNaNaNaNaa(lp371
NaNaNaNaNaNaNaNaNaNaNaNaNaNaNaNaNaNaNaNaa(lp372
NaNaNaNaNaNaNaNaNaNaNaNaNaNag13
(g17
S'\x00\x00\x00\x00\x00\x00U\xc0'
p373
tp374
Rp375
aNaNaNaNaNaa(lp376
NaNaNaNaNaNaNaNaNaNaNaNaNaNaNaNaNaNaNaNaa(lp377
NaNaNaNaNaNaNaNaNaNaNaNaNaNaNaNaNaNaNaNaa(lp378
NaNaNaNaNaNaNaNaNaNaNaNaNaNaNaNaNaNaNaNaa(lp379
NaNaNaNaNaNaNaNaNaNaNaNaNaNaNaNaNaNaNaNaa(lp380
NaNaNaNaNaNaNaNaNaNaNaNaNaNaNaNaNaNaNaNaa(lp381
NaNaNaNaNaNaNaNaNaNaNaNaNaNaNaNaNaNaNaNaa(lp382
NaNaNaNaNaNaNaNaNaNaNaNaNaNaNaNaNaNaNaNaa(lp383
NaNaNaNaNaNaNaNaNaNaNaNaNaNaNaNaNaNaNaNaa(lp384
NaNaNaNaNaNaNaNaNaNaNaNaNaNaNaNaNaNaNaNaa(lp385
NaNaNaNaNaNaNaNaNaNaNaNaNaNaNaNaNaNaNaNaa(lp386
NaNaNaNaNaNaNaNaNaNaNaNaNaNaNaNaNaNaNaNaa(lp387
NaNaNaNaNaNaNaNaNaNaNaNaNaNaNaNaNaNaNaNaa(lp388
NaNaNaNaNaNaNaNaNaNaNaNaNaNaNaNaNaNaNaNaa(lp389
NaNaNaNaNaNaNaNaNaNaNaNaNaNaNaNaNaNaNaNaa(lp390
NaNaNaNaNaNaNaNaNaNaNaNaNaNaNaNaNaNaNaNaa(lp391
NaNaNaNaNaNaNaNaNaNaNaNaNaNaNaNaNaNaNaNaa(lp392
NaNaNaNaNaNaNaNaNaNaNaNaNaNaNaNaNaNaNaNaasS'40:b3:95:2c:d1:a2'
p393
(lp394
(lp395
NaNaNaNaNaNaNaNaNaNaNaNaNaNaNaNaNaNaNaNaa(lp396
NaNaNaNaNaNaNaNaNaNaNaNaNaNaNaNaNaNaNaNaa(lp397
NaNaNaNaNaNaNaNaNaNaNaNaNaNaNaNaNaNaNaNaa(lp398
NaNaNaNaNaNaNaNaNaNaNaNaNaNaNaNaNaNaNaNaa(lp399
NaNaNaNaNaNaNaNaNaNaNaNaNaNaNaNaNaNaNaNaa(lp400
NaNaNaNaNaNaNaNaNaNaNaNaNaNaNaNaNaNaNaNaa(lp401
NaNaNaNaNaNaNaNaNaNaNaNaNaNaNaNaNaNaNaNaa(lp402
NaNaNaNaNaNaNaNaNaNaNaNaNaNaNaNaNaNaNaNaa(lp403
NaNaNaNaNaNaNaNaNaNaNaNaNaNaNaNaNaNaNaNaa(lp404
NaNaNaNaNaNaNaNaNaNaNaNaNag13
(g17
S'\x00\x00\x00\x00\x00\x00W\xc0'
p405
tp406
Rp407
aNaNaNaNaNaNaa(lp408
NaNaNaNaNaNaNaNaNaNaNaNaNaNaNaNaNaNaNaNaa(lp409
NaNaNaNaNaNaNaNaNaNaNaNaNaNaNaNaNaNaNaNaa(lp410
NaNaNaNaNaNaNaNaNaNaNaNaNaNaNaNaNaNaNaNaa(lp411
NaNaNaNaNaNaNaNaNaNaNaNaNaNaNaNaNaNaNaNaa(lp412
NaNaNaNaNaNaNaNaNaNaNaNaNaNaNaNaNaNaNaNaa(lp413
NaNaNaNaNaNaNaNaNaNaNaNaNaNaNaNaNaNaNaNaa(lp414
NaNaNaNaNaNaNaNaNaNaNaNaNaNaNaNaNaNaNaNaa(lp415
NaNaNaNaNaNaNaNaNaNaNaNaNaNaNaNaNaNaNaNaa(lp416
NaNaNaNaNaNaNaNaNaNaNaNaNaNaNaNaNaNaNaNaa(lp417
NaNaNaNaNaNaNaNaNaNaNaNaNaNaNaNaNaNaNaNaa(lp418
NaNaNaNaNaNaNaNaNaNaNaNaNaNaNaNaNaNaNaNaa(lp419
NaNaNaNaNaNaNaNaNaNaNaNaNaNaNaNaNaNaNaNaa(lp420
NaNaNaNaNaNaNaNaNaNaNaNaNaNaNaNaNaNaNaNaa(lp421
NaNaNaNaNaNaNaNaNaNaNaNaNaNaNaNaNaNaNaNaa(lp422
NaNaNaNaNaNaNaNaNaNaNaNaNaNaNaNaNaNaNaNaa(lp423
NaNaNaNaNaNaNaNaNaNaNaNaNaNaNaNaNaNaNaNaa(lp424
NaNaNaNaNaNaNaNaNaNaNaNaNaNaNaNaNaNaNaNaasS'fc:c2:de:ee:0c:33'
p425
(lp426
(lp427
NaNaNaNaNaNaNaNaNaNaNaNaNaNaNaNaNaNaNaNaa(lp428
NaNaNaNaNaNaNaNaNaNaNaNaNaNaNaNaNaNaNaNaa(lp429
NaNaNaNaNaNaNaNaNaNaNaNaNaNaNaNaNaNaNaNaa(lp430
NaNaNaNaNaNaNaNaNaNaNaNaNaNaNaNaNaNaNaNaa(lp431
NaNaNaNaNaNaNaNaNaNaNaNaNaNaNaNaNaNaNaNaa(lp432
NaNaNaNaNaNaNaNaNaNaNaNaNaNaNaNaNaNaNaNaa(lp433
NaNaNaNaNaNaNaNaNaNaNaNaNaNaNaNaNaNaNaNaa(lp434
NaNaNaNaNaNaNaNaNaNaNaNaNaNaNaNaNaNaNaNaa(lp435
NaNaNaNaNaNaNaNaNaNaNaNaNaNaNaNaNaNaNaNaa(lp436
NaNaNaNaNaNaNaNaNaNaNaNaNaNag13
(g17
S'\xc5N\xec\xc4N,U\xc0'
p437
tp438
Rp439
aNaNaNaNaNaa(lp440
NaNaNaNaNaNaNaNaNaNaNaNaNaNaNaNaNaNaNaNaa(lp441
NaNaNaNaNaNaNaNaNaNaNaNaNaNaNaNaNaNaNaNaa(lp442
NaNaNaNaNaNaNaNaNaNaNaNaNaNaNaNaNaNaNaNaa(lp443
NaNaNaNaNaNaNaNaNaNaNaNaNaNaNaNaNaNaNaNaa(lp444
NaNaNaNaNaNaNaNaNaNaNaNaNaNaNaNaNaNaNaNaa(lp445
NaNaNaNaNaNaNaNaNaNaNaNaNaNaNaNaNaNaNaNaa(lp446
NaNaNaNaNaNaNaNaNaNaNaNaNaNaNaNaNaNaNaNaa(lp447
NaNaNaNaNaNaNaNaNaNaNaNaNaNaNaNaNaNaNaNaa(lp448
NaNaNaNaNaNaNaNaNaNaNaNaNaNaNaNaNaNaNaNaa(lp449
NaNaNaNaNaNaNaNaNaNaNaNaNaNaNaNaNaNaNaNaa(lp450
NaNaNaNaNaNaNaNaNaNaNaNaNaNaNaNaNaNaNaNaa(lp451
NaNaNaNaNaNaNaNaNaNaNaNaNaNaNaNaNaNaNaNaa(lp452
NaNaNaNaNaNaNaNaNaNaNaNaNaNaNaNaNaNaNaNaa(lp453
NaNaNaNaNaNaNaNaNaNaNaNaNaNaNaNaNaNaNaNaa(lp454
NaNaNaNaNaNaNaNaNaNaNaNaNaNaNaNaNaNaNaNaa(lp455
NaNaNaNaNaNaNaNaNaNaNaNaNaNaNaNaNaNaNaNaa(lp456
NaNaNaNaNaNaNaNaNaNaNaNaNaNaNaNaNaNaNaNaasS'b0:65:bd:a7:be:50'
p457
(lp458
(lp459
NaNaNaNaNaNaNaNaNaNaNaNaNaNaNaNaNaNaNaNaa(lp460
NaNaNaNaNaNaNaNaNaNaNaNaNaNaNaNaNaNaNaNaa(lp461
NaNaNaNaNaNaNaNaNaNaNaNaNaNaNaNaNaNaNaNaa(lp462
NaNaNaNaNaNaNaNaNaNaNaNaNaNaNaNaNaNaNaNaa(lp463
NaNaNaNaNaNaNaNaNaNaNaNaNaNaNaNaNaNaNaNaa(lp464
NaNaNaNaNaNaNaNaNaNaNaNaNaNaNaNaNaNaNaNaa(lp465
NaNaNaNaNaNaNaNaNaNaNaNaNaNaNaNaNaNaNaNaa(lp466
NaNaNaNaNaNaNaNaNaNaNaNaNaNaNaNaNaNaNaNaa(lp467
NaNaNaNaNaNaNaNaNaNaNaNaNaNaNaNaNaNaNaNaa(lp468
NaNaNaNaNaNaNaNaNaNaNaNaNaNaNaNaNaNaNaNaa(lp469
NaNaNaNaNaNaNaNaNaNaNaNaNaNaNag13
(g17
S'\x00\x00\x00\x00\x00\x80U\xc0'
p470
tp471
Rp472
aNaNaNaNaa(lp473
NaNaNaNaNaNaNaNaNaNaNaNaNaNaNaNaNaNaNaNaa(lp474
NaNaNaNaNaNaNaNaNaNaNaNaNaNaNaNaNaNaNaNaa(lp475
NaNaNaNaNaNaNaNaNaNaNaNaNaNaNaNaNaNaNaNaa(lp476
NaNaNaNaNaNaNaNaNaNaNaNaNaNaNaNaNaNaNaNaa(lp477
NaNaNaNaNaNaNaNaNaNaNaNaNaNaNaNaNaNaNaNaa(lp478
NaNaNaNaNaNaNaNaNaNaNaNaNaNaNaNaNaNaNaNaa(lp479
NaNaNaNaNaNaNaNaNaNaNaNaNaNaNaNaNaNaNaNaa(lp480
NaNaNaNaNaNaNaNaNaNaNaNaNaNaNaNaNaNaNaNaa(lp481
NaNaNaNaNaNaNaNaNaNaNaNaNaNaNaNaNaNaNaNaa(lp482
NaNaNaNaNaNaNaNaNaNaNaNaNaNaNaNaNaNaNaNaa(lp483
NaNaNaNaNaNaNaNaNaNaNaNaNaNaNaNaNaNaNaNaa(lp484
NaNaNaNaNaNaNaNaNaNaNaNaNaNaNaNaNaNaNaNaa(lp485
NaNaNaNaNaNaNaNaNaNaNaNaNaNaNaNaNaNaNaNaa(lp486
NaNaNaNaNaNaNaNaNaNaNaNaNaNaNaNaNaNaNaNaa(lp487
NaNaNaNaNaNaNaNaNaNaNaNaNaNaNaNaNaNaNaNaa(lp488
NaNaNaNaNaNaNaNaNaNaNaNaNaNaNaNaNaNaNaNaasS'ec:35:86:3b:50:08'
p489
(lp490
(lp491
NaNaNaNaNaNaNaNaNaNaNaNaNaNaNaNaNaNaNaNaa(lp492
NaNaNaNaNaNaNaNaNaNaNaNaNaNaNaNaNaNaNaNaa(lp493
NaNaNaNaNaNaNaNaNaNaNaNaNaNaNaNaNaNaNaNaa(lp494
NaNaNaNaNaNaNaNaNaNaNaNaNaNaNaNaNaNaNaNaa(lp495
NaNaNaNaNaNaNaNaNaNaNaNaNaNaNaNaNaNaNaNaa(lp496
NaNaNaNaNaNaNaNaNaNaNaNaNaNaNaNaNaNaNaNaa(lp497
NaNaNaNaNaNaNaNaNaNaNaNaNaNaNaNaNaNaNaNaa(lp498
NaNaNaNaNaNaNaNaNaNaNaNaNaNaNaNaNaNaNaNaa(lp499
NaNaNaNaNaNaNaNaNaNaNaNaNaNaNaNaNaNaNaNaa(lp500
NaNaNaNaNaNaNaNaNaNaNaNaNaNag13
(g17
S'UUUUU\xd5T\xc0'
p501
tp502
Rp503
aNaNaNaNaNaa(lp504
NaNaNaNaNaNaNaNaNaNaNaNaNaNaNaNaNaNaNaNaa(lp505
NaNaNaNaNaNaNaNaNaNaNaNaNaNaNaNaNaNaNaNaa(lp506
NaNaNaNaNaNaNaNaNaNaNaNaNaNaNaNaNaNaNaNaa(lp507
NaNaNaNaNaNaNaNaNaNaNaNaNaNaNaNaNaNaNaNaa(lp508
NaNaNaNaNaNaNaNaNaNaNaNaNaNaNaNaNaNaNaNaa(lp509
NaNaNaNaNaNaNaNaNaNaNaNaNaNaNaNaNaNaNaNaa(lp510
NaNaNaNaNaNaNaNaNaNaNaNaNaNaNaNaNaNaNaNaa(lp511
NaNaNaNaNaNaNaNaNaNaNaNaNaNaNaNaNaNaNaNaa(lp512
NaNaNaNaNaNaNaNaNaNaNaNaNaNaNaNaNaNaNaNaa(lp513
NaNaNaNaNaNaNaNaNaNaNaNaNaNaNaNaNaNaNaNaa(lp514
NaNaNaNaNaNaNaNaNaNaNaNaNaNaNaNaNaNaNaNaa(lp515
NaNaNaNaNaNaNaNaNaNaNaNaNaNaNaNaNaNaNaNaa(lp516
NaNaNaNaNaNaNaNaNaNaNaNaNaNaNaNaNaNaNaNaa(lp517
NaNaNaNaNaNaNaNaNaNaNaNaNaNaNaNaNaNaNaNaa(lp518
NaNaNaNaNaNaNaNaNaNaNaNaNaNaNaNaNaNaNaNaa(lp519
NaNaNaNaNaNaNaNaNaNaNaNaNaNaNaNaNaNaNaNaa(lp520
NaNaNaNaNaNaNaNaNaNaNaNaNaNaNaNaNaNaNaNaasS'7c:dd:90:82:81:1e'
p521
(lp522
(lp523
NaNaNaNaNaNaNaNaNaNaNaNaNaNaNaNaNaNaNaNaa(lp524
NaNaNaNaNaNaNaNaNaNaNaNaNaNaNaNaNaNaNaNaa(lp525
NaNaNaNaNaNaNaNaNaNaNaNaNaNaNaNaNaNaNaNaa(lp526
NaNaNaNaNaNaNaNaNaNaNaNaNaNaNaNaNaNaNaNaa(lp527
NaNaNaNaNaNaNaNaNaNaNaNaNaNaNaNaNaNaNaNaa(lp528
NaNaNaNaNaNaNaNaNaNaNaNaNaNaNaNaNaNaNaNaa(lp529
NaNaNaNaNaNaNaNaNaNaNaNaNaNaNaNaNaNaNaNaa(lp530
NaNaNaNaNaNaNaNaNaNaNaNaNaNaNaNaNaNaNaNaa(lp531
NaNaNaNaNaNaNaNaNaNaNaNaNaNaNaNaNaNaNaNaa(lp532
NaNaNaNaNaNaNaNaNaNaNaNaNaNag13
(g17
S'\x00\x00\x00\x00\x00\xc0T\xc0'
p533
tp534
Rp535
aNaNaNaNaNaa(lp536
NaNaNaNaNaNaNaNaNaNaNaNaNaNaNag13
(g17
S'\xc7q\x1c\xc7q\\S\xc0'
p537
tp538
Rp539
aNaNaNaNaa(lp540
NaNaNaNaNaNaNaNaNaNaNaNaNaNaNaNaNaNaNaNaa(lp541
NaNaNaNaNaNaNaNaNaNaNaNaNaNaNaNaNaNaNaNaa(lp542
NaNaNaNaNaNaNaNaNaNaNaNaNaNaNaNaNaNaNaNaa(lp543
NaNaNaNaNaNaNaNaNaNaNaNaNaNaNaNaNaNaNaNaa(lp544
NaNaNaNaNaNaNaNaNaNaNaNaNaNaNaNaNaNaNaNaa(lp545
NaNaNaNaNaNaNaNaNaNaNaNaNaNaNaNaNaNaNaNaa(lp546
NaNaNaNaNaNaNaNaNaNaNaNaNaNaNaNaNaNaNaNaa(lp547
NaNaNaNaNaNaNaNaNaNaNaNaNaNaNaNaNaNaNaNaa(lp548
NaNaNaNaNaNaNaNaNaNaNaNaNaNaNaNaNaNaNaNaa(lp549
NaNaNaNaNaNaNaNaNaNaNaNaNaNaNaNaNaNaNaNaa(lp550
NaNaNaNaNaNaNaNaNaNaNaNaNaNaNaNaNaNaNaNaa(lp551
NaNaNaNaNaNaNaNaNaNaNaNaNaNaNaNaNaNaNaNaa(lp552
NaNaNaNaNaNaNaNaNaNaNaNaNaNaNaNaNaNaNaNaa(lp553
NaNaNaNaNaNaNaNaNaNaNaNaNaNaNaNaNaNaNaNaa(lp554
NaNaNaNaNaNaNaNaNaNaNaNaNaNaNaNaNaNaNaNaa(lp555
NaNaNaNaNaNaNaNaNaNaNaNaNaNaNaNaNaNaNaNaasS'0c:3e:9f:40:b5:2b'
p556
(lp557
(lp558
NaNaNaNaNaNaNaNaNaNaNaNaNaNaNaNaNaNaNaNaa(lp559
NaNaNaNaNaNaNaNaNaNaNaNaNaNaNaNaNaNaNaNaa(lp560
NaNaNaNaNaNaNaNaNaNaNaNaNaNaNaNaNaNaNaNaa(lp561
NaNaNaNaNaNaNaNaNaNaNaNaNaNaNaNaNaNaNaNaa(lp562
NaNaNaNaNaNaNaNaNaNaNaNaNaNaNaNaNaNaNaNaa(lp563
NaNaNaNaNaNaNaNaNaNaNaNaNaNaNaNaNaNaNaNaa(lp564
NaNaNaNaNaNaNaNaNaNaNaNaNaNaNaNaNaNaNaNaa(lp565
NaNaNaNaNaNaNaNaNaNaNaNaNaNaNaNaNaNaNaNaa(lp566
NaNaNaNaNaNaNaNaNaNaNaNaNaNaNaNaNaNaNaNaa(lp567
NaNaNaNaNaNaNaNaNaNaNaNaNaNag13
(g17
S'\x00\x00\x00\x00\x00\xc0T\xc0'
p568
tp569
Rp570
aNaNaNaNaNaa(lp571
NaNaNaNaNaNaNaNaNaNaNaNaNaNaNag13
(g17
S'\x00\x00\x00\x00\x00`U\xc0'
p572
tp573
Rp574
aNaNaNaNaa(lp575
NaNaNaNaNaNaNaNaNaNaNaNaNaNaNaNaNaNaNaNaa(lp576
NaNaNaNaNaNaNaNaNaNaNaNaNaNaNaNaNaNaNaNaa(lp577
NaNaNaNaNaNaNaNaNaNaNaNaNaNaNaNaNaNaNaNaa(lp578
NaNaNaNaNaNaNaNaNaNaNaNaNaNaNaNaNaNaNaNaa(lp579
NaNaNaNaNaNaNaNaNaNaNaNaNaNaNaNaNaNaNaNaa(lp580
NaNaNaNaNaNaNaNaNaNaNaNaNaNaNaNaNaNaNaNaa(lp581
NaNaNaNaNaNaNaNaNaNaNaNaNaNaNaNaNaNaNaNaa(lp582
NaNaNaNaNaNaNaNaNaNaNaNaNaNaNaNaNaNaNaNaa(lp583
NaNaNaNaNaNaNaNaNaNaNaNaNaNaNaNaNaNaNaNaa(lp584
NaNaNaNaNaNaNaNaNaNaNaNaNaNaNaNaNaNaNaNaa(lp585
NaNaNaNaNaNaNaNaNaNaNaNaNaNaNaNaNaNaNaNaa(lp586
NaNaNaNaNaNaNaNaNaNaNaNaNaNaNaNaNaNaNaNaa(lp587
NaNaNaNaNaNaNaNaNaNaNaNaNaNaNaNaNaNaNaNaa(lp588
NaNaNaNaNaNaNaNaNaNaNaNaNaNaNaNaNaNaNaNaa(lp589
NaNaNaNaNaNaNaNaNaNaNaNaNaNaNaNaNaNaNaNaa(lp590
NaNaNaNaNaNaNaNaNaNaNaNaNaNaNaNaNaNaNaNaasS'70:14:a6:f2:1a:72'
p591
(lp592
(lp593
NaNaNaNaNaNaNaNaNaNaNaNaNaNaNaNaNaNaNaNaa(lp594
NaNaNaNaNaNaNaNaNaNaNaNaNaNaNaNaNaNaNaNaa(lp595
NaNaNaNaNaNaNaNaNaNaNaNaNaNaNaNaNaNaNaNaa(lp596
NaNaNaNaNaNaNaNaNaNaNaNaNaNaNaNaNaNaNaNaa(lp597
NaNaNaNaNaNaNaNaNaNaNaNaNaNaNaNaNaNaNaNaa(lp598
NaNaNaNaNaNaNaNaNaNaNaNaNaNaNaNaNaNaNaNaa(lp599
NaNaNaNaNaNaNaNaNaNaNaNaNaNaNaNaNaNaNaNaa(lp600
NaNaNaNaNaNaNaNaNaNaNaNaNaNaNaNaNaNaNaNaa(lp601
NaNaNaNaNaNaNaNaNaNaNaNaNaNaNaNaNaNaNaNaa(lp602
NaNaNaNaNaNaNaNaNaNaNaNaNag13
(g17
S'\x00\x00\x00\x00\x00\x00V\xc0'
p603
tp604
Rp605
aNaNaNaNaNaNaa(lp606
NaNaNaNaNaNaNaNaNaNaNaNaNaNaNaNaNaNaNaNaa(lp607
NaNaNaNaNaNaNaNaNaNaNaNaNaNaNaNaNaNaNaNaa(lp608
NaNaNaNaNaNaNaNaNaNaNaNaNaNaNaNaNaNaNaNaa(lp609
NaNaNaNaNaNaNaNaNaNaNaNaNaNaNaNaNaNaNaNaa(lp610
NaNaNaNaNaNaNaNaNaNaNaNaNaNaNaNaNaNaNaNaa(lp611
NaNaNaNaNaNaNaNaNaNaNaNaNaNaNaNaNaNaNaNaa(lp612
NaNaNaNaNaNaNaNaNaNaNaNaNaNaNaNaNaNaNaNaa(lp613
NaNaNaNaNaNaNaNaNaNaNaNaNaNaNaNaNaNaNaNaa(lp614
NaNaNaNaNaNaNaNaNaNaNaNaNaNaNaNaNaNaNaNaa(lp615
NaNaNaNaNaNaNaNaNaNaNaNaNaNaNaNaNaNaNaNaa(lp616
NaNaNaNaNaNaNaNaNaNaNaNaNaNaNaNaNaNaNaNaa(lp617
NaNaNaNaNaNaNaNaNaNaNaNaNaNaNaNaNaNaNaNaa(lp618
NaNaNaNaNaNaNaNaNaNaNaNaNaNaNaNaNaNaNaNaa(lp619
NaNaNaNaNaNaNaNaNaNaNaNaNaNaNaNaNaNaNaNaa(lp620
NaNaNaNaNaNaNaNaNaNaNaNaNaNaNaNaNaNaNaNaa(lp621
NaNaNaNaNaNaNaNaNaNaNaNaNaNaNaNaNaNaNaNaa(lp622
NaNaNaNaNaNaNaNaNaNaNaNaNaNaNaNaNaNaNaNaasS'00:16:ea:5b:7b:7c'
p623
(lp624
(lp625
NaNaNaNaNaNaNaNaNaNaNaNaNaNaNaNaNaNaNaNaa(lp626
NaNaNaNaNaNaNaNaNaNaNaNaNaNaNaNaNaNaNaNaa(lp627
NaNaNaNaNaNaNaNaNaNaNaNaNaNaNaNaNaNaNaNaa(lp628
NaNaNaNaNaNaNaNaNaNaNaNaNaNaNaNaNaNaNaNaa(lp629
NaNaNaNaNaNaNaNaNaNaNaNaNaNaNaNaNaNaNaNaa(lp630
NaNaNaNaNaNaNaNaNaNaNaNaNaNaNaNaNaNaNaNaa(lp631
NaNaNaNaNaNaNaNaNaNaNaNaNaNaNaNaNaNaNaNaa(lp632
NaNaNaNaNaNaNaNaNaNaNaNaNaNaNaNaNaNaNaNaa(lp633
NaNaNaNaNaNaNaNaNaNaNaNaNaNaNaNaNaNaNaNaa(lp634
NaNaNaNaNaNaNaNaNaNaNaNaNaNag13
(g17
S'O\xec\xc4N\xecDR\xc0'
p635
tp636
Rp637
aNaNaNaNaNaa(lp638
NaNaNaNaNaNaNaNaNaNaNaNaNaNaNag13
(g17
S'\x00\x00\x00\x00\x00\x80Q\xc0'
p639
tp640
Rp641
aNaNaNaNaa(lp642
NaNaNaNaNaNaNaNaNaNaNaNaNaNaNaNaNaNaNaNaa(lp643
NaNaNaNaNaNaNaNaNaNaNaNaNaNaNaNaNaNaNaNaa(lp644
NaNaNaNaNaNaNaNaNaNaNaNaNaNaNaNaNaNaNaNaa(lp645
NaNaNaNaNaNaNaNaNaNaNaNaNaNaNaNaNaNaNaNaa(lp646
NaNaNaNaNaNaNaNaNaNaNaNaNaNaNaNaNaNaNaNaa(lp647
NaNaNaNaNaNaNaNaNaNaNaNaNaNaNaNaNaNaNaNaa(lp648
NaNaNaNaNaNaNaNaNaNaNaNaNaNaNaNaNaNaNaNaa(lp649
NaNaNaNaNaNaNaNaNaNaNaNaNaNaNaNaNaNaNaNaa(lp650
NaNaNaNaNaNaNaNaNaNaNaNaNaNaNaNaNaNaNaNaa(lp651
NaNaNaNaNaNaNaNaNaNaNaNaNaNaNaNaNaNaNaNaa(lp652
NaNaNaNaNaNaNaNaNaNaNaNaNaNaNaNaNaNaNaNaa(lp653
NaNaNaNaNaNaNaNaNaNaNaNaNaNaNaNaNaNaNaNaa(lp654
NaNaNaNaNaNaNaNaNaNaNaNaNaNaNaNaNaNaNaNaa(lp655
NaNaNaNaNaNaNaNaNaNaNaNaNaNaNaNaNaNaNaNaa(lp656
NaNaNaNaNaNaNaNaNaNaNaNaNaNaNaNaNaNaNaNaa(lp657
NaNaNaNaNaNaNaNaNaNaNaNaNaNaNaNaNaNaNaNaasS'ac:fd:ec:0c:2e:69'
p658
(lp659
(lp660
NaNaNaNaNaNaNaNaNaNaNaNaNaNaNaNaNaNaNaNaa(lp661
NaNaNaNaNaNaNaNaNaNaNaNaNaNaNaNaNaNaNaNaa(lp662
NaNaNaNaNaNaNaNaNaNaNaNaNaNaNaNaNaNaNaNaa(lp663
NaNaNaNaNaNaNaNaNaNaNaNaNaNaNaNaNaNaNaNaa(lp664
NaNaNaNaNaNaNaNaNaNaNaNaNaNaNaNaNaNaNaNaa(lp665
NaNaNaNaNaNaNaNaNaNaNaNaNaNaNaNaNaNaNaNaa(lp666
NaNaNaNaNaNaNaNaNaNaNaNaNaNaNaNaNaNaNaNaa(lp667
NaNaNaNaNaNaNaNaNaNaNaNaNaNaNaNaNaNaNaNaa(lp668
NaNaNaNaNaNaNaNaNaNaNaNaNaNaNaNaNaNaNaNaa(lp669
NaNaNaNaNaNaNaNaNaNaNaNaNaNag13
(g17
S'333333S\xc0'
p670
tp671
Rp672
aNaNaNaNaNaa(lp673
NaNaNaNaNaNaNaNaNaNaNaNaNaNaNag13
(g17
S'\x00\x00\x00\x00\x00\x80T\xc0'
p674
tp675
Rp676
aNaNaNaNaa(lp677
NaNaNaNaNaNaNaNaNaNaNaNaNaNaNaNaNaNaNaNaa(lp678
NaNaNaNaNaNaNaNaNaNaNaNaNaNaNaNaNaNaNaNaa(lp679
NaNaNaNaNaNaNaNaNaNaNaNaNaNaNaNaNaNaNaNaa(lp680
NaNaNaNaNaNaNaNaNaNaNaNaNaNaNaNaNaNaNaNaa(lp681
NaNaNaNaNaNaNaNaNaNaNaNaNaNaNaNaNaNaNaNaa(lp682
NaNaNaNaNaNaNaNaNaNaNaNaNaNaNaNaNaNaNaNaa(lp683
NaNaNaNaNaNaNaNaNaNaNaNaNaNaNaNaNaNaNaNaa(lp684
NaNaNaNaNaNaNaNaNaNaNaNaNaNaNaNaNaNaNaNaa(lp685
NaNaNaNaNaNaNaNaNaNaNaNaNaNaNaNaNaNaNaNaa(lp686
NaNaNaNaNaNaNaNaNaNaNaNaNaNaNaNaNaNaNaNaa(lp687
NaNaNaNaNaNaNaNaNaNaNaNaNaNaNaNaNaNaNaNaa(lp688
NaNaNaNaNaNaNaNaNaNaNaNaNaNaNaNaNaNaNaNaa(lp689
NaNaNaNaNaNaNaNaNaNaNaNaNaNaNaNaNaNaNaNaa(lp690
NaNaNaNaNaNaNaNaNaNaNaNaNaNaNaNaNaNaNaNaa(lp691
NaNaNaNaNaNaNaNaNaNaNaNaNaNaNaNaNaNaNaNaa(lp692
NaNaNaNaNaNaNaNaNaNaNaNaNaNaNaNaNaNaNaNaasS'20:a2:e4:c1:0c:d1'
p693
(lp694
(lp695
NaNaNaNaNaNaNaNaNaNaNaNaNaNaNaNaNaNaNaNaa(lp696
NaNaNaNaNaNaNaNaNaNaNaNaNaNaNaNaNaNaNaNaa(lp697
NaNaNaNaNaNaNaNaNaNaNaNaNaNaNaNaNaNaNaNaa(lp698
NaNaNaNaNaNaNaNaNaNaNaNaNaNaNaNaNaNaNaNaa(lp699
NaNaNaNaNaNaNaNaNaNaNaNaNaNaNaNaNaNaNaNaa(lp700
NaNaNaNaNaNaNaNaNaNaNaNaNaNaNaNaNaNaNaNaa(lp701
NaNaNaNaNaNaNaNaNaNaNaNaNaNaNaNaNaNaNaNaa(lp702
NaNaNaNaNaNaNaNaNaNaNaNaNaNaNaNaNaNaNaNaa(lp703
NaNaNaNaNaNaNaNaNaNaNaNaNaNaNaNaNaNaNaNaa(lp704
NaNaNaNaNaNaNaNaNaNaNaNaNag13
(g17
S'\x92$I\x92$\xd9U\xc0'
p705
tp706
Rp707
aNaNaNaNaNaNaa(lp708
NaNaNaNaNaNaNaNaNaNaNaNaNaNag13
(g17
S'\x9a\x99\x99\x99\x99\x99U\xc0'
p709
tp710
Rp711
aNaNaNaNaNaa(lp712
NaNaNaNaNaNaNaNaNaNaNaNaNaNaNaNaNaNaNaNaa(lp713
NaNaNaNaNaNaNaNaNaNaNaNaNaNaNaNaNaNaNaNaa(lp714
NaNaNaNaNaNaNaNaNaNaNaNaNaNaNaNaNaNaNaNaa(lp715
NaNaNaNaNaNaNaNaNaNaNaNaNaNaNaNaNaNaNaNaa(lp716
NaNaNaNaNaNaNaNaNaNaNaNaNaNaNaNaNaNaNaNaa(lp717
NaNaNaNaNaNaNaNaNaNaNaNaNaNaNaNaNaNaNaNaa(lp718
NaNaNaNaNaNaNaNaNaNaNaNaNaNaNaNaNaNaNaNaa(lp719
NaNaNaNaNaNaNaNaNaNaNaNaNaNaNaNaNaNaNaNaa(lp720
NaNaNaNaNaNaNaNaNaNaNaNaNaNaNaNaNaNaNaNaa(lp721
NaNaNaNaNaNaNaNaNaNaNaNaNaNaNaNaNaNaNaNaa(lp722
NaNaNaNaNaNaNaNaNaNaNaNaNaNaNaNaNaNaNaNaa(lp723
NaNaNaNaNaNaNaNaNaNaNaNaNaNaNaNaNaNaNaNaa(lp724
NaNaNaNaNaNaNaNaNaNaNaNaNaNaNaNaNaNaNaNaa(lp725
NaNaNaNaNaNaNaNaNaNaNaNaNaNaNaNaNaNaNaNaa(lp726
NaNaNaNaNaNaNaNaNaNaNaNaNaNaNaNaNaNaNaNaa(lp727
NaNaNaNaNaNaNaNaNaNaNaNaNaNaNaNaNaNaNaNaasS'60:36:dd:da:3b:3f'
p728
(lp729
(lp730
NaNaNaNaNaNaNaNaNaNaNaNaNaNaNaNaNaNaNaNaa(lp731
NaNaNaNaNaNaNaNaNaNaNaNaNaNaNaNaNaNaNaNaa(lp732
NaNaNaNaNaNaNaNaNaNaNaNaNaNaNaNaNaNaNaNaa(lp733
NaNaNaNaNaNaNaNaNaNaNaNaNaNaNaNaNaNaNaNaa(lp734
NaNaNaNaNaNaNaNaNaNaNaNaNaNaNaNaNaNaNaNaa(lp735
NaNaNaNaNaNaNaNaNaNaNaNaNaNaNaNaNaNaNaNaa(lp736
NaNaNaNaNaNaNaNaNaNaNaNaNaNaNaNaNaNaNaNaa(lp737
NaNaNaNaNaNaNaNaNaNaNaNaNaNaNaNaNaNaNaNaa(lp738
NaNaNaNaNaNaNaNaNaNaNaNaNaNaNaNaNaNaNaNaa(lp739
NaNaNaNaNaNaNaNaNaNaNaNaNaNag13
(g17
S'\x00\x00\x00\x00\x00\xc0T\xc0'
p740
tp741
Rp742
aNaNaNaNaNaa(lp743
NaNaNaNaNaNaNaNaNaNaNaNaNaNaNaNaNaNaNaNaa(lp744
NaNaNaNaNaNaNaNaNaNaNaNaNaNaNaNaNaNaNaNaa(lp745
NaNaNaNaNaNaNaNaNaNaNaNaNaNaNaNaNaNaNaNaa(lp746
NaNaNaNaNaNaNaNaNaNaNaNaNaNaNaNaNaNaNaNaa(lp747
NaNaNaNaNaNaNaNaNaNaNaNaNaNaNaNaNaNaNaNaa(lp748
NaNaNaNaNaNaNaNaNaNaNaNaNaNaNaNaNaNaNaNaa(lp749
NaNaNaNaNaNaNaNaNaNaNaNaNaNaNaNaNaNaNaNaa(lp750
NaNaNaNaNaNaNaNaNaNaNaNaNaNaNaNaNaNaNaNaa(lp751
NaNaNaNaNaNaNaNaNaNaNaNaNaNaNaNaNaNaNaNaa(lp752
NaNaNaNaNaNaNaNaNaNaNaNaNaNaNaNaNaNaNaNaa(lp753
NaNaNaNaNaNaNaNaNaNaNaNaNaNaNaNaNaNaNaNaa(lp754
NaNaNaNaNaNaNaNaNaNaNaNaNaNaNaNaNaNaNaNaa(lp755
NaNaNaNaNaNaNaNaNaNaNaNaNaNaNaNaNaNaNaNaa(lp756
NaNaNaNaNaNaNaNaNaNaNaNaNaNaNaNaNaNaNaNaa(lp757
NaNaNaNaNaNaNaNaNaNaNaNaNaNaNaNaNaNaNaNaa(lp758
NaNaNaNaNaNaNaNaNaNaNaNaNaNaNaNaNaNaNaNaa(lp759
NaNaNaNaNaNaNaNaNaNaNaNaNaNaNaNaNaNaNaNaasS'78:fd:94:9b:1a:59'
p760
(lp761
(lp762
NaNaNaNaNaNaNaNaNaNaNaNaNaNaNaNaNaNaNaNaa(lp763
NaNaNaNaNaNaNaNaNaNaNaNaNaNaNaNaNaNaNaNaa(lp764
NaNaNaNaNaNaNaNaNaNaNaNaNaNaNaNaNaNaNaNaa(lp765
NaNaNaNaNaNaNaNaNaNaNaNaNaNaNaNaNaNaNaNaa(lp766
NaNaNaNaNaNaNaNaNaNaNaNaNaNaNaNaNaNaNaNaa(lp767
NaNaNaNaNaNaNaNaNaNaNaNaNaNaNaNaNaNaNaNaa(lp768
NaNaNaNaNaNaNaNaNaNaNaNaNaNaNaNaNaNaNaNaa(lp769
NaNaNaNaNaNaNaNaNaNaNaNaNaNaNaNaNaNaNaNaa(lp770
NaNaNaNaNaNaNaNaNaNaNaNaNaNaNaNaNaNaNaNaa(lp771
NaNaNaNaNaNaNaNaNaNaNaNaNag13
(g17
S'\xab\xaa\xaa\xaa\xaajU\xc0'
p772
tp773
Rp774
aNaNaNaNaNaNaa(lp775
NaNaNaNaNaNaNaNaNaNaNaNaNaNaNaNaNaNaNaNaa(lp776
NaNaNaNaNaNaNaNaNaNaNaNaNaNaNaNaNaNaNaNaa(lp777
NaNaNaNaNaNaNaNaNaNaNaNaNaNaNaNaNaNaNaNaa(lp778
NaNaNaNaNaNaNaNaNaNaNaNaNaNaNaNaNaNaNaNaa(lp779
NaNaNaNaNaNaNaNaNaNaNaNaNaNaNaNaNaNaNaNaa(lp780
NaNaNaNaNaNaNaNaNaNaNaNaNaNaNaNaNaNaNaNaa(lp781
NaNaNaNaNaNaNaNaNaNaNaNaNaNaNaNaNaNaNaNaa(lp782
NaNaNaNaNaNaNaNaNaNaNaNaNaNaNaNaNaNaNaNaa(lp783
NaNaNaNaNaNaNaNaNaNaNaNaNaNaNaNaNaNaNaNaa(lp784
NaNaNaNaNaNaNaNaNaNaNaNaNaNaNaNaNaNaNaNaa(lp785
NaNaNaNaNaNaNaNaNaNaNaNaNaNaNaNaNaNaNaNaa(lp786
NaNaNaNaNaNaNaNaNaNaNaNaNaNaNaNaNaNaNaNaa(lp787
NaNaNaNaNaNaNaNaNaNaNaNaNaNaNaNaNaNaNaNaa(lp788
NaNaNaNaNaNaNaNaNaNaNaNaNaNaNaNaNaNaNaNaa(lp789
NaNaNaNaNaNaNaNaNaNaNaNaNaNaNaNaNaNaNaNaa(lp790
NaNaNaNaNaNaNaNaNaNaNaNaNaNaNaNaNaNaNaNaa(lp791
NaNaNaNaNaNaNaNaNaNaNaNaNaNaNaNaNaNaNaNaasS'34:bb:26:d1:0c:d6'
p792
(lp793
(lp794
NaNaNaNaNaNaNaNaNaNaNaNaNaNaNaNaNaNaNaNaa(lp795
NaNaNaNaNaNaNaNaNaNaNaNaNaNaNaNaNaNaNaNaa(lp796
NaNaNaNaNaNaNaNaNaNaNaNaNaNaNaNaNaNaNaNaa(lp797
NaNaNaNaNaNaNaNaNaNaNaNaNaNaNaNaNaNaNaNaa(lp798
NaNaNaNaNaNaNaNaNaNaNaNaNaNaNaNaNaNaNaNaa(lp799
NaNaNaNaNaNaNaNaNaNaNaNaNaNaNaNaNaNaNaNaa(lp800
NaNaNaNaNaNaNaNaNaNaNaNaNaNaNaNaNaNaNaNaa(lp801
NaNaNaNaNaNaNaNaNaNaNaNaNaNaNaNaNaNaNaNaa(lp802
NaNaNaNaNaNaNaNaNaNaNaNaNaNaNaNaNaNaNaNaa(lp803
NaNaNaNaNaNaNaNaNaNaNaNaNaNag13
(g17
S'\x00\x00\x00\x00\x00\xe0T\xc0'
p804
tp805
Rp806
aNaNaNaNaNaa(lp807
NaNaNaNaNaNaNaNaNaNaNaNaNaNaNaNaNaNaNaNaa(lp808
NaNaNaNaNaNaNaNaNaNaNaNaNaNaNaNaNaNaNaNaa(lp809
NaNaNaNaNaNaNaNaNaNaNaNaNaNaNaNaNaNaNaNaa(lp810
NaNaNaNaNaNaNaNaNaNaNaNaNaNaNaNaNaNaNaNaa(lp811
NaNaNaNaNaNaNaNaNaNaNaNaNaNaNaNaNaNaNaNaa(lp812
NaNaNaNaNaNaNaNaNaNaNaNaNaNaNaNaNaNaNaNaa(lp813
NaNaNaNaNaNaNaNaNaNaNaNaNaNaNaNaNaNaNaNaa(lp814
NaNaNaNaNaNaNaNaNaNaNaNaNaNaNaNaNaNaNaNaa(lp815
NaNaNaNaNaNaNaNaNaNaNaNaNaNaNaNaNaNaNaNaa(lp816
NaNaNaNaNaNaNaNaNaNaNaNaNaNaNaNaNaNaNaNaa(lp817
NaNaNaNaNaNaNaNaNaNaNaNaNaNaNaNaNaNaNaNaa(lp818
NaNaNaNaNaNaNaNaNaNaNaNaNaNaNaNaNaNaNaNaa(lp819
NaNaNaNaNaNaNaNaNaNaNaNaNaNaNaNaNaNaNaNaa(lp820
NaNaNaNaNaNaNaNaNaNaNaNaNaNaNaNaNaNaNaNaa(lp821
NaNaNaNaNaNaNaNaNaNaNaNaNaNaNaNaNaNaNaNaa(lp822
NaNaNaNaNaNaNaNaNaNaNaNaNaNaNaNaNaNaNaNaa(lp823
NaNaNaNaNaNaNaNaNaNaNaNaNaNaNaNaNaNaNaNaasS'8c:2d:aa:55:fd:11'
p824
(lp825
(lp826
NaNaNaNaNaNaNaNaNaNaNaNaNaNaNaNaNaNaNaNaa(lp827
NaNaNaNaNaNaNaNaNaNaNaNaNaNaNaNaNaNaNaNaa(lp828
NaNaNaNaNaNaNaNaNaNaNaNaNaNaNaNaNaNaNaNaa(lp829
NaNaNaNaNaNaNaNaNaNaNaNaNaNaNaNaNaNaNaNaa(lp830
NaNaNaNaNaNaNaNaNaNaNaNaNaNaNaNaNaNaNaNaa(lp831
NaNaNaNaNaNaNaNaNaNaNaNaNaNaNaNaNaNaNaNaa(lp832
NaNaNaNaNaNaNaNaNaNaNaNaNaNaNaNaNaNaNaNaa(lp833
NaNaNaNaNaNaNaNaNaNaNaNaNaNaNaNaNaNaNaNaa(lp834
NaNaNaNaNaNaNaNaNaNaNaNaNaNaNaNaNaNaNaNaa(lp835
NaNaNaNaNaNaNaNaNaNaNaNaNag13
(g17
S'\x00\x00\x00\x00\x00@U\xc0'
p836
tp837
Rp838
aNaNaNaNaNaNaa(lp839
NaNaNaNaNaNaNaNaNaNaNaNaNaNaNaNaNaNaNaNaa(lp840
NaNaNaNaNaNaNaNaNaNaNaNaNaNaNaNaNaNaNaNaa(lp841
NaNaNaNaNaNaNaNaNaNaNaNaNaNaNaNaNaNaNaNaa(lp842
NaNaNaNaNaNaNaNaNaNaNaNaNaNaNaNaNaNaNaNaa(lp843
NaNaNaNaNaNaNaNaNaNaNaNaNaNaNaNaNaNaNaNaa(lp844
NaNaNaNaNaNaNaNaNaNaNaNaNaNaNaNaNaNaNaNaa(lp845
NaNaNaNaNaNaNaNaNaNaNaNaNaNaNaNaNaNaNaNaa(lp846
NaNaNaNaNaNaNaNaNaNaNaNaNaNaNaNaNaNaNaNaa(lp847
NaNaNaNaNaNaNaNaNaNaNaNaNaNaNaNaNaNaNaNaa(lp848
NaNaNaNaNaNaNaNaNaNaNaNaNaNaNaNaNaNaNaNaa(lp849
NaNaNaNaNaNaNaNaNaNaNaNaNaNaNaNaNaNaNaNaa(lp850
NaNaNaNaNaNaNaNaNaNaNaNaNaNaNaNaNaNaNaNaa(lp851
NaNaNaNaNaNaNaNaNaNaNaNaNaNaNaNaNaNaNaNaa(lp852
NaNaNaNaNaNaNaNaNaNaNaNaNaNaNaNaNaNaNaNaa(lp853
NaNaNaNaNaNaNaNaNaNaNaNaNaNaNaNaNaNaNaNaa(lp854
NaNaNaNaNaNaNaNaNaNaNaNaNaNaNaNaNaNaNaNaa(lp855
NaNaNaNaNaNaNaNaNaNaNaNaNaNaNaNaNaNaNaNaasS'f0:b4:79:1d:d9:59'
p856
(lp857
(lp858
NaNaNaNaNaNaNaNaNaNaNaNaNaNaNaNaNaNaNaNaa(lp859
NaNaNaNaNaNaNaNaNaNaNaNaNaNaNaNaNaNaNaNaa(lp860
NaNaNaNaNaNaNaNaNaNaNaNaNaNaNaNaNaNaNaNaa(lp861
NaNaNaNaNaNaNaNaNaNaNaNaNaNaNaNaNaNaNaNaa(lp862
NaNaNaNaNaNaNaNaNaNaNaNaNaNaNaNaNaNaNaNaa(lp863
NaNaNaNaNaNaNaNaNaNaNaNaNaNaNaNaNaNaNaNaa(lp864
NaNaNaNaNaNaNaNaNaNaNaNaNaNaNaNaNaNaNaNaa(lp865
NaNaNaNaNaNaNaNaNaNaNaNaNaNaNaNaNaNaNaNaa(lp866
NaNaNaNaNaNaNaNaNaNaNaNaNaNaNaNaNaNaNaNaa(lp867
NaNaNaNaNaNaNaNaNaNaNaNaNaNag13
(g17
S'\x00\x00\x00\x00\x00\x80S\xc0'
p868
tp869
Rp870
aNaNaNaNaNaa(lp871
NaNaNaNaNaNaNaNaNaNaNaNaNaNaNaNaNaNaNaNaa(lp872
NaNaNaNaNaNaNaNaNaNaNaNaNaNaNaNaNaNaNaNaa(lp873
NaNaNaNaNaNaNaNaNaNaNaNaNaNaNaNaNaNaNaNaa(lp874
NaNaNaNaNaNaNaNaNaNaNaNaNaNaNaNaNaNaNaNaa(lp875
NaNaNaNaNaNaNaNaNaNaNaNaNaNaNaNaNaNaNaNaa(lp876
NaNaNaNaNaNaNaNaNaNaNaNaNaNaNaNaNaNaNaNaa(lp877
NaNaNaNaNaNaNaNaNaNaNaNaNaNaNaNaNaNaNaNaa(lp878
NaNaNaNaNaNaNaNaNaNaNaNaNaNaNaNaNaNaNaNaa(lp879
NaNaNaNaNaNaNaNaNaNaNaNaNaNaNaNaNaNaNaNaa(lp880
NaNaNaNaNaNaNaNaNaNaNaNaNaNaNaNaNaNaNaNaa(lp881
NaNaNaNaNaNaNaNaNaNaNaNaNaNaNaNaNaNaNaNaa(lp882
NaNaNaNaNaNaNaNaNaNaNaNaNaNaNaNaNaNaNaNaa(lp883
NaNaNaNaNaNaNaNaNaNaNaNaNaNaNaNaNaNaNaNaa(lp884
NaNaNaNaNaNaNaNaNaNaNaNaNaNaNaNaNaNaNaNaa(lp885
NaNaNaNaNaNaNaNaNaNaNaNaNaNaNaNaNaNaNaNaa(lp886
NaNaNaNaNaNaNaNaNaNaNaNaNaNaNaNaNaNaNaNaa(lp887
NaNaNaNaNaNaNaNaNaNaNaNaNaNaNaNaNaNaNaNaasS'2c:b4:3a:72:38:57'
p888
(lp889
(lp890
NaNaNaNaNaNaNaNaNaNaNaNaNaNaNaNaNaNaNaNaa(lp891
NaNaNaNaNaNaNaNaNaNaNaNaNaNaNaNaNaNaNaNaa(lp892
NaNaNaNaNaNaNaNaNaNaNaNaNaNaNaNaNaNaNaNaa(lp893
NaNaNaNaNaNaNaNaNaNaNaNaNaNaNaNaNaNaNaNaa(lp894
NaNaNaNaNaNaNaNaNaNaNaNaNaNaNaNaNaNaNaNaa(lp895
NaNaNaNaNaNaNaNaNaNaNaNaNaNaNaNaNaNaNaNaa(lp896
NaNaNaNaNaNaNaNaNaNaNaNaNaNaNaNaNaNaNaNaa(lp897
NaNaNaNaNaNaNaNaNaNaNaNaNaNaNaNaNaNaNaNaa(lp898
NaNaNaNaNaNaNaNaNaNaNaNaNaNaNaNaNaNaNaNaa(lp899
NaNaNaNaNaNaNaNaNaNaNaNaNaNag13
(g17
S'\x00\x00\x00\x00\x00\xc0U\xc0'
p900
tp901
Rp902
aNaNaNaNaNaa(lp903
NaNaNaNaNaNaNaNaNaNaNaNaNaNaNaNaNaNaNaNaa(lp904
NaNaNaNaNaNaNaNaNaNaNaNaNaNaNaNaNaNaNaNaa(lp905
NaNaNaNaNaNaNaNaNaNaNaNaNaNaNaNaNaNaNaNaa(lp906
NaNaNaNaNaNaNaNaNaNaNaNaNaNaNaNaNaNaNaNaa(lp907
NaNaNaNaNaNaNaNaNaNaNaNaNaNaNaNaNaNaNaNaa(lp908
NaNaNaNaNaNaNaNaNaNaNaNaNaNaNaNaNaNaNaNaa(lp909
NaNaNaNaNaNaNaNaNaNaNaNaNaNaNaNaNaNaNaNaa(lp910
NaNaNaNaNaNaNaNaNaNaNaNaNaNaNaNaNaNaNaNaa(lp911
NaNaNaNaNaNaNaNaNaNaNaNaNaNaNaNaNaNaNaNaa(lp912
NaNaNaNaNaNaNaNaNaNaNaNaNaNaNaNaNaNaNaNaa(lp913
NaNaNaNaNaNaNaNaNaNaNaNaNaNaNaNaNaNaNaNaa(lp914
NaNaNaNaNaNaNaNaNaNaNaNaNaNaNaNaNaNaNaNaa(lp915
NaNaNaNaNaNaNaNaNaNaNaNaNaNaNaNaNaNaNaNaa(lp916
NaNaNaNaNaNaNaNaNaNaNaNaNaNaNaNaNaNaNaNaa(lp917
NaNaNaNaNaNaNaNaNaNaNaNaNaNaNaNaNaNaNaNaa(lp918
NaNaNaNaNaNaNaNaNaNaNaNaNaNaNaNaNaNaNaNaa(lp919
NaNaNaNaNaNaNaNaNaNaNaNaNaNaNaNaNaNaNaNaasS'98:e0:d9:70:bb:3a'
p920
(lp921
(lp922
NaNaNaNaNaNaNaNaNaNaNaNaNaNaNaNaNaNaNaNaa(lp923
NaNaNaNaNaNaNaNaNaNaNaNaNaNaNaNaNaNaNaNaa(lp924
NaNaNaNaNaNaNaNaNaNaNaNaNaNaNaNaNaNaNaNaa(lp925
NaNaNaNaNaNaNaNaNaNaNaNaNaNaNaNaNaNaNaNaa(lp926
NaNaNaNaNaNaNaNaNaNaNaNaNaNaNaNaNaNaNaNaa(lp927
NaNaNaNaNaNaNaNaNaNaNaNaNaNaNaNaNaNaNaNaa(lp928
NaNaNaNaNaNaNaNaNaNaNaNaNaNaNaNaNaNaNaNaa(lp929
NaNaNaNaNaNaNaNaNaNaNaNaNaNaNaNaNaNaNaNaa(lp930
NaNaNaNaNaNaNaNaNaNaNaNaNaNaNaNaNaNaNaNaa(lp931
NaNaNaNaNaNaNaNaNaNaNaNaNaNag13
(g17
S'\x00\x00\x00\x00\x00@V\xc0'
p932
tp933
Rp934
aNaNaNaNaNaa(lp935
NaNaNaNaNaNaNaNaNaNaNaNaNaNaNaNaNaNaNaNaa(lp936
NaNaNaNaNaNaNaNaNaNaNaNaNaNaNaNaNaNaNaNaa(lp937
NaNaNaNaNaNaNaNaNaNaNaNaNaNaNaNaNaNaNaNaa(lp938
NaNaNaNaNaNaNaNaNaNaNaNaNaNaNaNaNaNaNaNaa(lp939
NaNaNaNaNaNaNaNaNaNaNaNaNaNaNaNaNaNaNaNaa(lp940
NaNaNaNaNaNaNaNaNaNaNaNaNaNaNaNaNaNaNaNaa(lp941
NaNaNaNaNaNaNaNaNaNaNaNaNaNaNaNaNaNaNaNaa(lp942
NaNaNaNaNaNaNaNaNaNaNaNaNaNaNaNaNaNaNaNaa(lp943
NaNaNaNaNaNaNaNaNaNaNaNaNaNaNaNaNaNaNaNaa(lp944
NaNaNaNaNaNaNaNaNaNaNaNaNaNaNaNaNaNaNaNaa(lp945
NaNaNaNaNaNaNaNaNaNaNaNaNaNaNaNaNaNaNaNaa(lp946
NaNaNaNaNaNaNaNaNaNaNaNaNaNaNaNaNaNaNaNaa(lp947
NaNaNaNaNaNaNaNaNaNaNaNaNaNaNaNaNaNaNaNaa(lp948
NaNaNaNaNaNaNaNaNaNaNaNaNaNaNaNaNaNaNaNaa(lp949
NaNaNaNaNaNaNaNaNaNaNaNaNaNaNaNaNaNaNaNaa(lp950
NaNaNaNaNaNaNaNaNaNaNaNaNaNaNaNaNaNaNaNaa(lp951
NaNaNaNaNaNaNaNaNaNaNaNaNaNaNaNaNaNaNaNaasS'68:a3:c4:ef:ff:08'
p952
(lp953
(lp954
NaNaNaNaNaNaNaNaNaNaNaNaNaNaNaNaNaNaNaNaa(lp955
NaNaNaNaNaNaNaNaNaNaNaNaNaNaNaNaNaNaNaNaa(lp956
NaNaNaNaNaNaNaNaNaNaNaNaNaNaNaNaNaNaNaNaa(lp957
NaNaNaNaNaNaNaNaNaNaNaNaNaNaNaNaNaNaNaNaa(lp958
NaNaNaNaNaNaNaNaNaNaNaNaNaNaNaNaNaNaNaNaa(lp959
NaNaNaNaNaNaNaNaNaNaNaNaNaNaNaNaNaNaNaNaa(lp960
NaNaNaNaNaNaNaNaNaNaNaNaNaNaNaNaNaNaNaNaa(lp961
NaNaNaNaNaNaNaNaNaNaNaNaNaNaNaNaNaNaNaNaa(lp962
NaNaNaNaNaNaNaNaNaNaNaNaNaNaNaNaNaNaNaNaa(lp963
NaNaNaNaNaNaNaNaNaNaNaNaNaNag13
(g17
S'\x00\x00\x00\x00\x00pT\xc0'
p964
tp965
Rp966
aNaNaNaNaNaa(lp967
NaNaNaNaNaNaNaNaNaNaNaNaNaNaNaNaNaNaNaNaa(lp968
NaNaNaNaNaNaNaNaNaNaNaNaNaNaNaNaNaNaNaNaa(lp969
NaNaNaNaNaNaNaNaNaNaNaNaNaNaNaNaNaNaNaNaa(lp970
NaNaNaNaNaNaNaNaNaNaNaNaNaNaNaNaNaNaNaNaa(lp971
NaNaNaNaNaNaNaNaNaNaNaNaNaNaNaNaNaNaNaNaa(lp972
NaNaNaNaNaNaNaNaNaNaNaNaNaNaNaNaNaNaNaNaa(lp973
NaNaNaNaNaNaNaNaNaNaNaNaNaNaNaNaNaNaNaNaa(lp974
NaNaNaNaNaNaNaNaNaNaNaNaNaNaNaNaNaNaNaNaa(lp975
NaNaNaNaNaNaNaNaNaNaNaNaNaNaNaNaNaNaNaNaa(lp976
NaNaNaNaNaNaNaNaNaNaNaNaNaNaNaNaNaNaNaNaa(lp977
NaNaNaNaNaNaNaNaNaNaNaNaNaNaNaNaNaNaNaNaa(lp978
NaNaNaNaNaNaNaNaNaNaNaNaNaNaNaNaNaNaNaNaa(lp979
NaNaNaNaNaNaNaNaNaNaNaNaNaNaNaNaNaNaNaNaa(lp980
NaNaNaNaNaNaNaNaNaNaNaNaNaNaNaNaNaNaNaNaa(lp981
NaNaNaNaNaNaNaNaNaNaNaNaNaNaNaNaNaNaNaNaa(lp982
NaNaNaNaNaNaNaNaNaNaNaNaNaNaNaNaNaNaNaNaa(lp983
NaNaNaNaNaNaNaNaNaNaNaNaNaNaNaNaNaNaNaNaasS'3c:15:c2:d4:d7:cc'
p984
(lp985
(lp986
NaNaNaNaNaNaNaNaNaNaNaNaNaNaNaNaNaNaNaNaa(lp987
NaNaNaNaNaNaNaNaNaNaNaNaNaNaNaNaNaNaNaNaa(lp988
NaNaNaNaNaNaNaNaNaNaNaNaNaNaNaNaNaNaNaNaa(lp989
NaNaNaNaNaNaNaNaNaNaNaNaNaNaNaNaNaNaNaNaa(lp990
NaNaNaNaNaNaNaNaNaNaNaNaNaNaNaNaNaNaNaNaa(lp991
NaNaNaNaNaNaNaNaNaNaNaNaNaNaNaNaNaNaNaNaa(lp992
NaNaNaNaNaNaNaNaNaNaNaNaNaNaNaNaNaNaNaNaa(lp993
NaNaNaNaNaNaNaNaNaNaNaNaNaNaNaNaNaNaNaNaa(lp994
NaNaNaNaNaNaNaNaNaNaNaNaNaNaNaNaNaNaNaNaa(lp995
NaNaNaNaNaNaNaNaNaNaNaNaNaNaNaNaNaNaNaNaa(lp996
NaNaNaNaNaNaNaNaNaNaNaNaNaNag13
(g17
S'\xab\xaa\xaa\xaa\xaajU\xc0'
p997
tp998
Rp999
aNaNaNaNaNaa(lp1000
NaNaNaNaNaNaNaNaNaNaNaNaNaNaNaNaNaNaNaNaa(lp1001
NaNaNaNaNaNaNaNaNaNaNaNaNaNaNaNaNaNaNaNaa(lp1002
NaNaNaNaNaNaNaNaNaNaNaNaNaNaNaNaNaNaNaNaa(lp1003
NaNaNaNaNaNaNaNaNaNaNaNaNaNaNaNaNaNaNaNaa(lp1004
NaNaNaNaNaNaNaNaNaNaNaNaNaNaNaNaNaNaNaNaa(lp1005
NaNaNaNaNaNaNaNaNaNaNaNaNaNaNaNaNaNaNaNaa(lp1006
NaNaNaNaNaNaNaNaNaNaNaNaNaNaNaNaNaNaNaNaa(lp1007
NaNaNaNaNaNaNaNaNaNaNaNaNaNaNaNaNaNaNaNaa(lp1008
NaNaNaNaNaNaNaNaNaNaNaNaNaNaNaNaNaNaNaNaa(lp1009
NaNaNaNaNaNaNaNaNaNaNaNaNaNaNaNaNaNaNaNaa(lp1010
NaNaNaNaNaNaNaNaNaNaNaNaNaNaNaNaNaNaNaNaa(lp1011
NaNaNaNaNaNaNaNaNaNaNaNaNaNaNaNaNaNaNaNaa(lp1012
NaNaNaNaNaNaNaNaNaNaNaNaNaNaNaNaNaNaNaNaa(lp1013
NaNaNaNaNaNaNaNaNaNaNaNaNaNaNaNaNaNaNaNaa(lp1014
NaNaNaNaNaNaNaNaNaNaNaNaNaNaNaNaNaNaNaNaa(lp1015
NaNaNaNaNaNaNaNaNaNaNaNaNaNaNaNaNaNaNaNaasS'70:3e:ac:5e:94:e1'
p1016
(lp1017
(lp1018
NaNaNaNaNaNaNaNaNaNaNaNaNaNaNaNaNaNaNaNaa(lp1019
NaNaNaNaNaNaNaNaNaNaNaNaNaNaNaNaNaNaNaNaa(lp1020
NaNaNaNaNaNaNaNaNaNaNaNaNaNaNaNaNaNaNaNaa(lp1021
NaNaNaNaNaNaNaNaNaNaNaNaNaNaNaNaNaNaNaNaa(lp1022
NaNaNaNaNaNaNaNaNaNaNaNaNaNaNaNaNaNaNaNaa(lp1023
NaNaNaNaNaNaNaNaNaNaNaNaNaNaNaNaNaNaNaNaa(lp1024
NaNaNaNaNaNaNaNaNaNaNaNaNaNaNaNaNaNaNaNaa(lp1025
NaNaNaNaNaNaNaNaNaNaNaNaNaNaNaNaNaNaNaNaa(lp1026
NaNaNaNaNaNaNaNaNaNaNaNaNaNaNaNaNaNaNaNaa(lp1027
NaNaNaNaNaNaNaNaNaNaNaNaNaNag13
(g17
S'\x00\x00\x00\x00\x00\x80T\xc0'
p1028
tp1029
Rp1030
aNaNaNaNaNaa(lp1031
NaNaNaNaNaNaNaNaNaNaNaNaNaNaNaNaNaNaNaNaa(lp1032
NaNaNaNaNaNaNaNaNaNaNaNaNaNaNaNaNaNaNaNaa(lp1033
NaNaNaNaNaNaNaNaNaNaNaNaNaNaNaNaNaNaNaNaa(lp1034
NaNaNaNaNaNaNaNaNaNaNaNaNaNaNaNaNaNaNaNaa(lp1035
NaNaNaNaNaNaNaNaNaNaNaNaNaNaNaNaNaNaNaNaa(lp1036
NaNaNaNaNaNaNaNaNaNaNaNaNaNaNaNaNaNaNaNaa(lp1037
NaNaNaNaNaNaNaNaNaNaNaNaNaNaNaNaNaNaNaNaa(lp1038
NaNaNaNaNaNaNaNaNaNaNaNaNaNaNaNaNaNaNaNaa(lp1039
NaNaNaNaNaNaNaNaNaNaNaNaNaNaNaNaNaNaNaNaa(lp1040
NaNaNaNaNaNaNaNaNaNaNaNaNaNaNaNaNaNaNaNaa(lp1041
NaNaNaNaNaNaNaNaNaNaNaNaNaNaNaNaNaNaNaNaa(lp1042
NaNaNaNaNaNaNaNaNaNaNaNaNaNaNaNaNaNaNaNaa(lp1043
NaNaNaNaNaNaNaNaNaNaNaNaNaNaNaNaNaNaNaNaa(lp1044
NaNaNaNaNaNaNaNaNaNaNaNaNaNaNaNaNaNaNaNaa(lp1045
NaNaNaNaNaNaNaNaNaNaNaNaNaNaNaNaNaNaNaNaa(lp1046
NaNaNaNaNaNaNaNaNaNaNaNaNaNaNaNaNaNaNaNaa(lp1047
NaNaNaNaNaNaNaNaNaNaNaNaNaNaNaNaNaNaNaNaasS'60:6c:66:29:88:67'
p1048
(lp1049
(lp1050
NaNaNaNaNaNaNaNaNaNaNaNaNaNaNaNaNaNaNaNaa(lp1051
NaNaNaNaNaNaNaNaNaNaNaNaNaNaNaNaNaNaNaNaa(lp1052
NaNaNaNaNaNaNaNaNaNaNaNaNaNaNaNaNaNaNaNaa(lp1053
NaNaNaNaNaNaNaNaNaNaNaNaNaNaNaNaNaNaNaNaa(lp1054
NaNaNaNaNaNaNaNaNaNaNaNaNaNaNaNaNaNaNaNaa(lp1055
NaNaNaNaNaNaNaNaNaNaNaNaNaNaNaNaNaNaNaNaa(lp1056
NaNaNaNaNaNaNaNaNaNaNaNaNaNaNaNaNaNaNaNaa(lp1057
NaNaNaNaNaNaNaNaNaNaNaNaNaNaNaNaNaNaNaNaa(lp1058
NaNaNaNaNaNaNaNaNaNaNaNaNaNaNaNaNaNaNaNaa(lp1059
NaNaNaNaNaNaNaNaNaNaNaNaNaNag13
(g17
S'\xab\xaa\xaa\xaa\xaa\xeaT\xc0'
p1060
tp1061
Rp1062
aNaNaNaNaNaa(lp1063
NaNaNaNaNaNaNaNaNaNaNaNaNaNaNag13
(g17
S'\x00\x00\x00\x00\x00\x00T\xc0'
p1064
tp1065
Rp1066
aNaNaNaNaa(lp1067
NaNaNaNaNaNaNaNaNaNaNaNaNaNaNaNaNaNaNaNaa(lp1068
NaNaNaNaNaNaNaNaNaNaNaNaNaNaNaNaNaNaNaNaa(lp1069
NaNaNaNaNaNaNaNaNaNaNaNaNaNaNaNaNaNaNaNaa(lp1070
NaNaNaNaNaNaNaNaNaNaNaNaNaNaNaNaNaNaNaNaa(lp1071
NaNaNaNaNaNaNaNaNaNaNaNaNaNaNaNaNaNaNaNaa(lp1072
NaNaNaNaNaNaNaNaNaNaNaNaNaNaNaNaNaNaNaNaa(lp1073
NaNaNaNaNaNaNaNaNaNaNaNaNaNaNaNaNaNaNaNaa(lp1074
NaNaNaNaNaNaNaNaNaNaNaNaNaNaNaNaNaNaNaNaa(lp1075
NaNaNaNaNaNaNaNaNaNaNaNaNaNaNaNaNaNaNaNaa(lp1076
NaNaNaNaNaNaNaNaNaNaNaNaNaNaNaNaNaNaNaNaa(lp1077
NaNaNaNaNaNaNaNaNaNaNaNaNaNaNaNaNaNaNaNaa(lp1078
NaNaNaNaNaNaNaNaNaNaNaNaNaNaNaNaNaNaNaNaa(lp1079
NaNaNaNaNaNaNaNaNaNaNaNaNaNaNaNaNaNaNaNaa(lp1080
NaNaNaNaNaNaNaNaNaNaNaNaNaNaNaNaNaNaNaNaa(lp1081
NaNaNaNaNaNaNaNaNaNaNaNaNaNaNaNaNaNaNaNaa(lp1082
NaNaNaNaNaNaNaNaNaNaNaNaNaNaNaNaNaNaNaNaasS'00:26:ab:11:1c:46'
p1083
(lp1084
(lp1085
NaNaNaNaNaNaNaNaNaNaNaNaNaNaNaNaNaNaNaNaa(lp1086
NaNaNaNaNaNaNaNaNaNaNaNaNaNaNaNaNaNaNaNaa(lp1087
NaNaNaNaNaNaNaNaNaNaNaNaNaNaNaNaNaNaNaNaa(lp1088
NaNaNaNaNaNaNaNaNaNaNaNaNaNaNaNaNaNaNaNaa(lp1089
NaNaNaNaNaNaNaNaNaNaNaNaNaNaNaNaNaNaNaNaa(lp1090
NaNaNaNaNaNaNaNaNaNaNaNaNaNaNaNaNaNaNaNaa(lp1091
NaNaNaNaNaNaNaNaNaNaNaNaNaNaNaNaNaNaNaNaa(lp1092
NaNaNaNaNaNaNaNaNaNaNaNaNaNaNaNaNaNaNaNaa(lp1093
NaNaNaNaNaNaNaNaNaNaNaNaNaNaNaNaNaNaNaNaa(lp1094
NaNaNaNaNaNaNaNaNaNaNaNaNag13
(g17
S'xxxxx\xf8Q\xc0'
p1095
tp1096
Rp1097
ag13
(g17
S'\xcd\xcc\xcc\xcc\xcc\xccR\xc0'
p1098
tp1099
Rp1100
aNaNaNaNaNaa(lp1101
NaNaNaNaNaNaNaNaNaNaNaNaNaNag13
(g17
S'\xe48\x8e\xe38nR\xc0'
p1102
tp1103
Rp1104
ag13
(g17
S'\xc8B\x16\xb2\x90\x05R\xc0'
p1105
tp1106
Rp1107
aNaNaNaNaa(lp1108
NaNaNaNaNaNaNaNaNaNaNaNaNaNaNaNaNaNaNaNaa(lp1109
NaNaNaNaNaNaNaNaNaNaNaNaNaNaNaNaNaNaNaNaa(lp1110
NaNaNaNaNaNaNaNaNaNaNaNaNaNaNaNaNaNaNaNaa(lp1111
NaNaNaNaNaNaNaNaNaNaNaNaNaNaNaNaNaNaNaNaa(lp1112
NaNaNaNaNaNaNaNaNaNaNaNaNaNaNaNaNaNaNaNaa(lp1113
NaNaNaNaNaNaNaNaNaNaNaNaNaNaNaNaNaNaNaNaa(lp1114
NaNaNaNaNaNaNaNaNaNaNaNaNaNaNaNaNaNaNaNaa(lp1115
NaNaNaNaNaNaNaNaNaNaNaNaNaNaNaNaNaNaNaNaa(lp1116
NaNaNaNaNaNaNaNaNaNaNaNaNaNaNaNaNaNaNaNaa(lp1117
NaNaNaNaNaNaNaNaNaNaNaNaNaNaNaNaNaNaNaNaa(lp1118
NaNaNaNaNaNaNaNaNaNaNaNaNaNaNaNaNaNaNaNaa(lp1119
NaNaNaNaNaNaNaNaNaNaNaNaNaNaNaNaNaNaNaNaa(lp1120
NaNaNaNaNaNaNaNaNaNaNaNaNaNaNaNaNaNaNaNaa(lp1121
NaNaNaNaNaNaNaNaNaNaNaNaNaNaNaNaNaNaNaNaa(lp1122
NaNaNaNaNaNaNaNaNaNaNaNaNaNaNaNaNaNaNaNaa(lp1123
NaNaNaNaNaNaNaNaNaNaNaNaNaNaNaNaNaNaNaNaasS'00:24:6c:c5:48:02'
p1124
(lp1125
(lp1126
NaNaNaNaNaNaNaNaNaNaNaNaNaNaNaNaNaNaNaNaa(lp1127
NaNaNaNaNaNaNaNaNaNaNaNaNaNaNaNaNaNaNaNaa(lp1128
NaNaNaNaNaNaNaNaNaNaNaNaNaNaNaNaNaNaNaNaa(lp1129
NaNaNaNaNaNaNaNaNaNaNaNaNaNaNaNaNaNaNaNaa(lp1130
NaNaNaNaNaNaNaNaNaNaNaNaNaNaNaNaNaNaNaNaa(lp1131
NaNaNaNaNaNaNaNaNaNaNaNaNaNaNaNaNaNaNaNaa(lp1132
NaNaNaNaNaNaNaNaNaNaNaNaNaNaNaNaNaNaNaNaa(lp1133
NaNaNaNaNaNaNaNaNaNaNaNaNaNaNaNaNaNaNaNaa(lp1134
NaNaNaNaNaNaNaNaNaNaNaNaNaNaNaNaNaNaNaNaa(lp1135
NaNaNaNaNaNaNaNaNaNaNaNaNag13
(g17
S']AL\xae FR\xc0'
p1136
tp1137
Rp1138
ag13
(g17
S'\x00\x00\x00\x00\x00\x80Q\xc0'
p1139
tp1140
Rp1141
aNaNaNaNaNaa(lp1142
NaNaNaNaNaNaNaNaNaNaNaNaNaNag13
(g17
S'O\xec\xc4N\xec$Q\xc0'
p1143
tp1144
Rp1145
ag13
(g17
S'\x00\x00\x00\x00\x00pQ\xc0'
p1146
tp1147
Rp1148
aNaNaNaNaa(lp1149
NaNaNaNaNaNaNaNaNaNaNaNaNaNaNaNaNaNaNaNaa(lp1150
NaNaNaNaNaNaNaNaNaNaNaNaNaNaNaNaNaNaNaNaa(lp1151
NaNaNaNaNaNaNaNaNaNaNaNaNaNaNaNaNaNaNaNaa(lp1152
NaNaNaNaNaNaNaNaNaNaNaNaNaNaNaNaNaNaNaNaa(lp1153
NaNaNaNaNaNaNaNaNaNaNaNaNaNaNaNaNaNaNaNaa(lp1154
NaNaNaNaNaNaNaNaNaNaNaNaNaNaNaNaNaNaNaNaa(lp1155
NaNaNaNaNaNaNaNaNaNaNaNaNaNaNaNaNaNaNaNaa(lp1156
NaNaNaNaNaNaNaNaNaNaNaNaNaNaNaNaNaNaNaNaa(lp1157
NaNaNaNaNaNaNaNaNaNaNaNaNaNaNaNaNaNaNaNaa(lp1158
NaNaNaNaNaNaNaNaNaNaNaNaNaNaNaNaNaNaNaNaa(lp1159
NaNaNaNaNaNaNaNaNaNaNaNaNaNaNaNaNaNaNaNaa(lp1160
NaNaNaNaNaNaNaNaNaNaNaNaNaNaNaNaNaNaNaNaa(lp1161
NaNaNaNaNaNaNaNaNaNaNaNaNaNaNaNaNaNaNaNaa(lp1162
NaNaNaNaNaNaNaNaNaNaNaNaNaNaNaNaNaNaNaNaa(lp1163
NaNaNaNaNaNaNaNaNaNaNaNaNaNaNaNaNaNaNaNaa(lp1164
NaNaNaNaNaNaNaNaNaNaNaNaNaNaNaNaNaNaNaNaasS'9c:ad:97:ab:14:77'
p1165
(lp1166
(lp1167
NaNaNaNaNaNaNaNaNaNaNaNaNaNaNaNaNaNaNaNaa(lp1168
NaNaNaNaNaNaNaNaNaNaNaNaNaNaNaNaNaNaNaNaa(lp1169
NaNaNaNaNaNaNaNaNaNaNaNaNaNaNaNaNaNaNaNaa(lp1170
NaNaNaNaNaNaNaNaNaNaNaNaNaNaNaNaNaNaNaNaa(lp1171
NaNaNaNaNaNaNaNaNaNaNaNaNaNaNaNaNaNaNaNaa(lp1172
NaNaNaNaNaNaNaNaNaNaNaNaNaNaNaNaNaNaNaNaa(lp1173
NaNaNaNaNaNaNaNaNaNaNaNaNaNaNaNaNaNaNaNaa(lp1174
NaNaNaNaNaNaNaNaNaNaNaNaNaNaNaNaNaNaNaNaa(lp1175
NaNaNaNaNaNaNaNaNaNaNaNaNaNaNaNaNaNaNaNaa(lp1176
NaNaNaNaNaNaNaNaNaNaNaNaNaNag13
(g17
S'\xd3\xd2\xd2\xd2\xd2RQ\xc0'
p1177
tp1178
Rp1179
aNaNaNaNaNaa(lp1180
NaNaNaNaNaNaNaNaNaNaNaNaNaNaNaNaNaNaNaNaa(lp1181
NaNaNaNaNaNaNaNaNaNaNaNaNaNaNaNaNaNaNaNaa(lp1182
NaNaNaNaNaNaNaNaNaNaNaNaNaNaNaNaNaNaNaNaa(lp1183
NaNaNaNaNaNaNaNaNaNaNaNaNaNaNaNaNaNaNaNaa(lp1184
NaNaNaNaNaNaNaNaNaNaNaNaNaNaNaNaNaNaNaNaa(lp1185
NaNaNaNaNaNaNaNaNaNaNaNaNaNaNaNaNaNaNaNaa(lp1186
NaNaNaNaNaNaNaNaNaNaNaNaNaNaNaNaNaNaNaNaa(lp1187
NaNaNaNaNaNaNaNaNaNaNaNaNaNaNaNaNaNaNaNaa(lp1188
NaNaNaNaNaNaNaNaNaNaNaNaNaNaNaNaNaNaNaNaa(lp1189
NaNaNaNaNaNaNaNaNaNaNaNaNaNaNaNaNaNaNaNaa(lp1190
NaNaNaNaNaNaNaNaNaNaNaNaNaNaNaNaNaNaNaNaa(lp1191
NaNaNaNaNaNaNaNaNaNaNaNaNaNaNaNaNaNaNaNaa(lp1192
NaNaNaNaNaNaNaNaNaNaNaNaNaNaNaNaNaNaNaNaa(lp1193
NaNaNaNaNaNaNaNaNaNaNaNaNaNaNaNaNaNaNaNaa(lp1194
NaNaNaNaNaNaNaNaNaNaNaNaNaNaNaNaNaNaNaNaa(lp1195
NaNaNaNaNaNaNaNaNaNaNaNaNaNaNaNaNaNaNaNaa(lp1196
NaNaNaNaNaNaNaNaNaNaNaNaNaNaNaNaNaNaNaNaasS'00:24:6c:c5:48:01'
p1197
(lp1198
(lp1199
NaNaNaNaNaNaNaNaNaNaNaNaNaNaNaNaNaNaNaNaa(lp1200
NaNaNaNaNaNaNaNaNaNaNaNaNaNaNaNaNaNaNaNaa(lp1201
NaNaNaNaNaNaNaNaNaNaNaNaNaNaNaNaNaNaNaNaa(lp1202
NaNaNaNaNaNaNaNaNaNaNaNaNaNaNaNaNaNaNaNaa(lp1203
NaNaNaNaNaNaNaNaNaNaNaNaNaNaNaNaNaNaNaNaa(lp1204
NaNaNaNaNaNaNaNaNaNaNaNaNaNaNaNaNaNaNaNaa(lp1205
NaNaNaNaNaNaNaNaNaNaNaNaNaNaNaNaNaNaNaNaa(lp1206
NaNaNaNaNaNaNaNaNaNaNaNaNaNaNaNaNaNaNaNaa(lp1207
NaNaNaNaNaNaNaNaNaNaNaNaNaNaNaNaNaNaNaNaa(lp1208
NaNaNaNaNaNaNaNaNaNaNaNaNag13
(g17
S'\x17]t\xd1EwR\xc0'
p1209
tp1210
Rp1211
ag13
(g17
S'\x00\x00\x00\x00\x00\x08R\xc0'
p1212
tp1213
Rp1214
aNaNaNaNaNaa(lp1215
NaNaNaNaNaNaNaNaNaNaNaNaNaNag13
(g17
S'\x00\x00\x00\x00\x00\x80Q\xc0'
p1216
tp1217
Rp1218
ag13
(g17
S'9\x8e\xe38\x8e\xa3Q\xc0'
p1219
tp1220
Rp1221
aNaNaNaNaa(lp1222
NaNaNaNaNaNaNaNaNaNaNaNaNaNaNaNaNaNaNaNaa(lp1223
NaNaNaNaNaNaNaNaNaNaNaNaNaNaNaNaNaNaNaNaa(lp1224
NaNaNaNaNaNaNaNaNaNaNaNaNaNaNaNaNaNaNaNaa(lp1225
NaNaNaNaNaNaNaNaNaNaNaNaNaNaNaNaNaNaNaNaa(lp1226
NaNaNaNaNaNaNaNaNaNaNaNaNaNaNaNaNaNaNaNaa(lp1227
NaNaNaNaNaNaNaNaNaNaNaNaNaNaNaNaNaNaNaNaa(lp1228
NaNaNaNaNaNaNaNaNaNaNaNaNaNaNaNaNaNaNaNaa(lp1229
NaNaNaNaNaNaNaNaNaNaNaNaNaNaNaNaNaNaNaNaa(lp1230
NaNaNaNaNaNaNaNaNaNaNaNaNaNaNaNaNaNaNaNaa(lp1231
NaNaNaNaNaNaNaNaNaNaNaNaNaNaNaNaNaNaNaNaa(lp1232
NaNaNaNaNaNaNaNaNaNaNaNaNaNaNaNaNaNaNaNaa(lp1233
NaNaNaNaNaNaNaNaNaNaNaNaNaNaNaNaNaNaNaNaa(lp1234
NaNaNaNaNaNaNaNaNaNaNaNaNaNaNaNaNaNaNaNaa(lp1235
NaNaNaNaNaNaNaNaNaNaNaNaNaNaNaNaNaNaNaNaa(lp1236
NaNaNaNaNaNaNaNaNaNaNaNaNaNaNaNaNaNaNaNaa(lp1237
NaNaNaNaNaNaNaNaNaNaNaNaNaNaNaNaNaNaNaNaasS'00:24:6c:a9:ee:a1'
p1238
(lp1239
(lp1240
NaNaNaNaNaNaNaNaNaNaNaNaNaNaNaNaNaNaNaNaa(lp1241
NaNaNaNaNaNaNaNaNaNaNaNaNaNaNaNaNaNaNaNaa(lp1242
NaNaNaNaNaNaNaNaNaNaNaNaNaNaNaNaNaNaNaNaa(lp1243
NaNaNaNaNaNaNaNaNaNaNaNaNaNaNaNaNaNaNaNaa(lp1244
NaNaNaNaNaNaNaNaNaNaNaNaNaNaNaNaNaNaNaNaa(lp1245
NaNaNaNaNaNaNaNaNaNaNaNaNaNaNaNaNaNaNaNaa(lp1246
NaNaNaNaNaNaNaNaNaNaNaNaNaNaNaNaNaNaNaNaa(lp1247
NaNaNaNaNaNaNaNaNaNaNaNaNaNaNaNaNaNaNaNaa(lp1248
NaNaNaNaNaNaNaNaNaNaNaNaNaNaNaNaNaNaNaNaa(lp1249
NaNaNaNaNaNaNaNaNaNaNaNaNaNag13
(g17
S'\x00\x00\x00\x00\x00\x00V\xc0'
p1250
tp1251
Rp1252
aNaNaNaNaNaa(lp1253
NaNaNaNaNaNaNaNaNaNaNaNaNaNaNaNaNaNaNaNaa(lp1254
NaNaNaNaNaNaNaNaNaNaNaNaNaNaNaNaNaNaNaNaa(lp1255
NaNaNaNaNaNaNaNaNaNaNaNaNaNaNaNaNaNaNaNaa(lp1256
NaNaNaNaNaNaNaNaNaNaNaNaNaNaNaNaNaNaNaNaa(lp1257
NaNaNaNaNaNaNaNaNaNaNaNaNaNaNaNaNaNaNaNaa(lp1258
NaNaNaNaNaNaNaNaNaNaNaNaNaNaNaNaNaNaNaNaa(lp1259
NaNaNaNaNaNaNaNaNaNaNaNaNaNaNaNaNaNaNaNaa(lp1260
NaNaNaNaNaNaNaNaNaNaNaNaNaNaNaNaNaNaNaNaa(lp1261
NaNaNaNaNaNaNaNaNaNaNaNaNaNaNaNaNaNaNaNaa(lp1262
NaNaNaNaNaNaNaNaNaNaNaNaNaNaNaNaNaNaNaNaa(lp1263
NaNaNaNaNaNaNaNaNaNaNaNaNaNaNaNaNaNaNaNaa(lp1264
NaNaNaNaNaNaNaNaNaNaNaNaNaNaNaNaNaNaNaNaa(lp1265
NaNaNaNaNaNaNaNaNaNaNaNaNaNaNaNaNaNaNaNaa(lp1266
NaNaNaNaNaNaNaNaNaNaNaNaNaNaNaNaNaNaNaNaa(lp1267
NaNaNaNaNaNaNaNaNaNaNaNaNaNaNaNaNaNaNaNaa(lp1268
NaNaNaNaNaNaNaNaNaNaNaNaNaNaNaNaNaNaNaNaa(lp1269
NaNaNaNaNaNaNaNaNaNaNaNaNaNaNaNaNaNaNaNaasS'00:24:6c:c5:62:21'
p1270
(lp1271
(lp1272
NaNaNaNaNaNaNaNaNaNaNaNaNaNaNaNaNaNaNaNaa(lp1273
NaNaNaNaNaNaNaNaNaNaNaNaNaNaNaNaNaNaNaNaa(lp1274
NaNaNaNaNaNaNaNaNaNaNaNaNaNaNaNaNaNaNaNaa(lp1275
NaNaNaNaNaNaNaNaNaNaNaNaNaNaNaNaNaNaNaNaa(lp1276
NaNaNaNaNaNaNaNaNaNaNaNaNaNaNaNaNaNaNaNaa(lp1277
NaNaNaNaNaNaNaNaNaNaNaNaNaNaNaNaNaNaNaNaa(lp1278
NaNaNaNaNaNaNaNaNaNaNaNaNaNaNaNaNaNaNaNaa(lp1279
NaNaNaNaNaNaNaNaNaNaNaNaNaNaNaNaNaNaNaNaa(lp1280
NaNaNaNaNaNaNaNaNaNaNaNaNaNaNaNaNaNaNaNaa(lp1281
NaNaNaNaNaNaNaNaNaNaNaNaNag13
(g17
S'\x92$I\x92$\tU\xc0'
p1282
tp1283
Rp1284
ag13
(g17
S'\x00\x00\x00\x00\x00@U\xc0'
p1285
tp1286
Rp1287
aNaNaNaNaNaa(lp1288
NaNaNaNaNaNaNaNaNaNaNaNaNaNag13
(g17
S'\x00\x00\x00\x00\x00 U\xc0'
p1289
tp1290
Rp1291
ag13
(g17
S'\xcd\xcc\xcc\xcc\xcc\x0cU\xc0'
p1292
tp1293
Rp1294
aNaNaNaNaa(lp1295
NaNaNaNaNaNaNaNaNaNaNaNaNaNaNaNaNaNaNaNaa(lp1296
NaNaNaNaNaNaNaNaNaNaNaNaNaNaNaNaNaNaNaNaa(lp1297
NaNaNaNaNaNaNaNaNaNaNaNaNaNaNaNaNaNaNaNaa(lp1298
NaNaNaNaNaNaNaNaNaNaNaNaNaNaNaNaNaNaNaNaa(lp1299
NaNaNaNaNaNaNaNaNaNaNaNaNaNaNaNaNaNaNaNaa(lp1300
NaNaNaNaNaNaNaNaNaNaNaNaNaNaNaNaNaNaNaNaa(lp1301
NaNaNaNaNaNaNaNaNaNaNaNaNaNaNaNaNaNaNaNaa(lp1302
NaNaNaNaNaNaNaNaNaNaNaNaNaNaNaNaNaNaNaNaa(lp1303
NaNaNaNaNaNaNaNaNaNaNaNaNaNaNaNaNaNaNaNaa(lp1304
NaNaNaNaNaNaNaNaNaNaNaNaNaNaNaNaNaNaNaNaa(lp1305
NaNaNaNaNaNaNaNaNaNaNaNaNaNaNaNaNaNaNaNaa(lp1306
NaNaNaNaNaNaNaNaNaNaNaNaNaNaNaNaNaNaNaNaa(lp1307
NaNaNaNaNaNaNaNaNaNaNaNaNaNaNaNaNaNaNaNaa(lp1308
NaNaNaNaNaNaNaNaNaNaNaNaNaNaNaNaNaNaNaNaa(lp1309
NaNaNaNaNaNaNaNaNaNaNaNaNaNaNaNaNaNaNaNaa(lp1310
NaNaNaNaNaNaNaNaNaNaNaNaNaNaNaNaNaNaNaNaasS'00:24:6c:c5:62:22'
p1311
(lp1312
(lp1313
NaNaNaNaNaNaNaNaNaNaNaNaNaNaNaNaNaNaNaNaa(lp1314
NaNaNaNaNaNaNaNaNaNaNaNaNaNaNaNaNaNaNaNaa(lp1315
NaNaNaNaNaNaNaNaNaNaNaNaNaNaNaNaNaNaNaNaa(lp1316
NaNaNaNaNaNaNaNaNaNaNaNaNaNaNaNaNaNaNaNaa(lp1317
NaNaNaNaNaNaNaNaNaNaNaNaNaNaNaNaNaNaNaNaa(lp1318
NaNaNaNaNaNaNaNaNaNaNaNaNaNaNaNaNaNaNaNaa(lp1319
NaNaNaNaNaNaNaNaNaNaNaNaNaNaNaNaNaNaNaNaa(lp1320
NaNaNaNaNaNaNaNaNaNaNaNaNaNaNaNaNaNaNaNaa(lp1321
NaNaNaNaNaNaNaNaNaNaNaNaNaNaNaNaNaNaNaNaa(lp1322
NaNaNaNaNaNaNaNaNaNaNaNaNag13
(g17
S'\x8e\xe38\x8e\xe38U\xc0'
p1323
tp1324
Rp1325
ag13
(g17
S'\xab\xaa\xaa\xaa\xaa\xeaT\xc0'
p1326
tp1327
Rp1328
aNaNaNaNaNaa(lp1329
NaNaNaNaNaNaNaNaNaNaNaNaNaNag13
(g17
S'\x00\x00\x00\x00\x00\x00U\xc0'
p1330
tp1331
Rp1332
ag13
(g17
S'\x17]t\xd1E\x97T\xc0'
p1333
tp1334
Rp1335
aNaNaNaNaa(lp1336
NaNaNaNaNaNaNaNaNaNaNaNaNaNaNaNaNaNaNaNaa(lp1337
NaNaNaNaNaNaNaNaNaNaNaNaNaNaNaNaNaNaNaNaa(lp1338
NaNaNaNaNaNaNaNaNaNaNaNaNaNaNaNaNaNaNaNaa(lp1339
NaNaNaNaNaNaNaNaNaNaNaNaNaNaNaNaNaNaNaNaa(lp1340
NaNaNaNaNaNaNaNaNaNaNaNaNaNaNaNaNaNaNaNaa(lp1341
NaNaNaNaNaNaNaNaNaNaNaNaNaNaNaNaNaNaNaNaa(lp1342
NaNaNaNaNaNaNaNaNaNaNaNaNaNaNaNaNaNaNaNaa(lp1343
NaNaNaNaNaNaNaNaNaNaNaNaNaNaNaNaNaNaNaNaa(lp1344
NaNaNaNaNaNaNaNaNaNaNaNaNaNaNaNaNaNaNaNaa(lp1345
NaNaNaNaNaNaNaNaNaNaNaNaNaNaNaNaNaNaNaNaa(lp1346
NaNaNaNaNaNaNaNaNaNaNaNaNaNaNaNaNaNaNaNaa(lp1347
NaNaNaNaNaNaNaNaNaNaNaNaNaNaNaNaNaNaNaNaa(lp1348
NaNaNaNaNaNaNaNaNaNaNaNaNaNaNaNaNaNaNaNaa(lp1349
NaNaNaNaNaNaNaNaNaNaNaNaNaNaNaNaNaNaNaNaa(lp1350
NaNaNaNaNaNaNaNaNaNaNaNaNaNaNaNaNaNaNaNaa(lp1351
NaNaNaNaNaNaNaNaNaNaNaNaNaNaNaNaNaNaNaNaasS'00:25:00:4e:27:9e'
p1352
(lp1353
(lp1354
NaNaNaNaNaNaNaNaNaNaNaNaNaNaNaNaNaNaNaNaa(lp1355
NaNaNaNaNaNaNaNaNaNaNaNaNaNaNaNaNaNaNaNaa(lp1356
NaNaNaNaNaNaNaNaNaNaNaNaNaNaNaNaNaNaNaNaa(lp1357
NaNaNaNaNaNaNaNaNaNaNaNaNaNaNaNaNaNaNaNaa(lp1358
NaNaNaNaNaNaNaNaNaNaNaNaNaNaNaNaNaNaNaNaa(lp1359
NaNaNaNaNaNaNaNaNaNaNaNaNaNaNaNaNaNaNaNaa(lp1360
NaNaNaNaNaNaNaNaNaNaNaNaNaNaNaNaNaNaNaNaa(lp1361
NaNaNaNaNaNaNaNaNaNaNaNaNaNaNaNaNaNaNaNaa(lp1362
NaNaNaNaNaNaNaNaNaNaNaNaNaNaNaNaNaNaNaNaa(lp1363
NaNaNaNaNaNaNaNaNaNaNaNaNag13
(g17
S'\x00\x00\x00\x00\x00@V\xc0'
p1364
tp1365
Rp1366
aNaNaNaNaNaNaa(lp1367
NaNaNaNaNaNaNaNaNaNaNaNaNaNaNaNaNaNaNaNaa(lp1368
NaNaNaNaNaNaNaNaNaNaNaNaNaNaNaNaNaNaNaNaa(lp1369
NaNaNaNaNaNaNaNaNaNaNaNaNaNaNaNaNaNaNaNaa(lp1370
NaNaNaNaNaNaNaNaNaNaNaNaNaNaNaNaNaNaNaNaa(lp1371
NaNaNaNaNaNaNaNaNaNaNaNaNaNaNaNaNaNaNaNaa(lp1372
NaNaNaNaNaNaNaNaNaNaNaNaNaNaNaNaNaNaNaNaa(lp1373
NaNaNaNaNaNaNaNaNaNaNaNaNaNaNaNaNaNaNaNaa(lp1374
NaNaNaNaNaNaNaNaNaNaNaNaNaNaNaNaNaNaNaNaa(lp1375
NaNaNaNaNaNaNaNaNaNaNaNaNaNaNaNaNaNaNaNaa(lp1376
NaNaNaNaNaNaNaNaNaNaNaNaNaNaNaNaNaNaNaNaa(lp1377
NaNaNaNaNaNaNaNaNaNaNaNaNaNaNaNaNaNaNaNaa(lp1378
NaNaNaNaNaNaNaNaNaNaNaNaNaNaNaNaNaNaNaNaa(lp1379
NaNaNaNaNaNaNaNaNaNaNaNaNaNaNaNaNaNaNaNaa(lp1380
NaNaNaNaNaNaNaNaNaNaNaNaNaNaNaNaNaNaNaNaa(lp1381
NaNaNaNaNaNaNaNaNaNaNaNaNaNaNaNaNaNaNaNaa(lp1382
NaNaNaNaNaNaNaNaNaNaNaNaNaNaNaNaNaNaNaNaa(lp1383
NaNaNaNaNaNaNaNaNaNaNaNaNaNaNaNaNaNaNaNaasS'c8:bc:c8:c4:78:70'
p1384
(lp1385
(lp1386
NaNaNaNaNaNaNaNaNaNaNaNaNaNaNaNaNaNaNaNaa(lp1387
NaNaNaNaNaNaNaNaNaNaNaNaNaNaNaNaNaNaNaNaa(lp1388
NaNaNaNaNaNaNaNaNaNaNaNaNaNaNaNaNaNaNaNaa(lp1389
NaNaNaNaNaNaNaNaNaNaNaNaNaNaNaNaNaNaNaNaa(lp1390
NaNaNaNaNaNaNaNaNaNaNaNaNaNaNaNaNaNaNaNaa(lp1391
NaNaNaNaNaNaNaNaNaNaNaNaNaNaNaNaNaNaNaNaa(lp1392
NaNaNaNaNaNaNaNaNaNaNaNaNaNaNaNaNaNaNaNaa(lp1393
NaNaNaNaNaNaNaNaNaNaNaNaNaNaNaNaNaNaNaNaa(lp1394
NaNaNaNaNaNaNaNaNaNaNaNaNaNaNaNaNaNaNaNaa(lp1395
NaNaNaNaNaNaNaNaNaNaNaNaNag13
(g17
S'\xa3\x8b.\xba\xe8\x02S\xc0'
p1396
tp1397
Rp1398
ag13
(g17
S'\x00\x00\x00\x00\x00\x80T\xc0'
p1399
tp1400
Rp1401
aNaNaNaNaNaa(lp1402
NaNaNaNaNaNaNaNaNaNaNaNaNaNag13
(g17
S'\xdb\xb6m\xdb\xb6\xedS\xc0'
p1403
tp1404
Rp1405
ag13
(g17
S'\xcd\xcc\xcc\xcc\xcc\xecS\xc0'
p1406
tp1407
Rp1408
aNaNaNaNaa(lp1409
NaNaNaNaNaNaNaNaNaNaNaNaNaNaNaNaNaNaNaNaa(lp1410
NaNaNaNaNaNaNaNaNaNaNaNaNaNaNaNaNaNaNaNaa(lp1411
NaNaNaNaNaNaNaNaNaNaNaNaNaNaNaNaNaNaNaNaa(lp1412
NaNaNaNaNaNaNaNaNaNaNaNaNaNaNaNaNaNaNaNaa(lp1413
NaNaNaNaNaNaNaNaNaNaNaNaNaNaNaNaNaNaNaNaa(lp1414
NaNaNaNaNaNaNaNaNaNaNaNaNaNaNaNaNaNaNaNaa(lp1415
NaNaNaNaNaNaNaNaNaNaNaNaNaNaNaNaNaNaNaNaa(lp1416
NaNaNaNaNaNaNaNaNaNaNaNaNaNaNaNaNaNaNaNaa(lp1417
NaNaNaNaNaNaNaNaNaNaNaNaNaNaNaNaNaNaNaNaa(lp1418
NaNaNaNaNaNaNaNaNaNaNaNaNaNaNaNaNaNaNaNaa(lp1419
NaNaNaNaNaNaNaNaNaNaNaNaNaNaNaNaNaNaNaNaa(lp1420
NaNaNaNaNaNaNaNaNaNaNaNaNaNaNaNaNaNaNaNaa(lp1421
NaNaNaNaNaNaNaNaNaNaNaNaNaNaNaNaNaNaNaNaa(lp1422
NaNaNaNaNaNaNaNaNaNaNaNaNaNaNaNaNaNaNaNaa(lp1423
NaNaNaNaNaNaNaNaNaNaNaNaNaNaNaNaNaNaNaNaa(lp1424
NaNaNaNaNaNaNaNaNaNaNaNaNaNaNaNaNaNaNaNaasS'd8:eb:97:ac:5e:78'
p1425
(lp1426
(lp1427
NaNaNaNaNaNaNaNaNaNaNaNaNaNaNaNaNaNaNaNaa(lp1428
NaNaNaNaNaNaNaNaNaNaNaNaNaNaNaNaNaNaNaNaa(lp1429
NaNaNaNaNaNaNaNaNaNaNaNaNaNaNaNaNaNaNaNaa(lp1430
NaNaNaNaNaNaNaNaNaNaNaNaNaNaNaNaNaNaNaNaa(lp1431
NaNaNaNaNaNaNaNaNaNaNaNaNaNaNaNaNaNaNaNaa(lp1432
NaNaNaNaNaNaNaNaNaNaNaNaNaNaNaNaNaNaNaNaa(lp1433
NaNaNaNaNaNaNaNaNaNaNaNaNaNaNaNaNaNaNaNaa(lp1434
NaNaNaNaNaNaNaNaNaNaNaNaNaNaNaNaNaNaNaNaa(lp1435
NaNaNaNaNaNaNaNaNaNaNaNaNaNaNaNaNaNaNaNaa(lp1436
NaNaNaNaNaNaNaNaNaNaNaNaNaNaNaNaNaNaNaNaa(lp1437
NaNaNaNaNaNaNaNaNaNaNaNaNaNaNag13
(g17
S'\x00\x00\x00\x00\x00\x00V\xc0'
p1438
tp1439
Rp1440
aNaNaNaNaa(lp1441
NaNaNaNaNaNaNaNaNaNaNaNaNaNaNaNaNaNaNaNaa(lp1442
NaNaNaNaNaNaNaNaNaNaNaNaNaNaNaNaNaNaNaNaa(lp1443
NaNaNaNaNaNaNaNaNaNaNaNaNaNaNaNaNaNaNaNaa(lp1444
NaNaNaNaNaNaNaNaNaNaNaNaNaNaNaNaNaNaNaNaa(lp1445
NaNaNaNaNaNaNaNaNaNaNaNaNaNaNaNaNaNaNaNaa(lp1446
NaNaNaNaNaNaNaNaNaNaNaNaNaNaNaNaNaNaNaNaa(lp1447
NaNaNaNaNaNaNaNaNaNaNaNaNaNaNaNaNaNaNaNaa(lp1448
NaNaNaNaNaNaNaNaNaNaNaNaNaNaNaNaNaNaNaNaa(lp1449
NaNaNaNaNaNaNaNaNaNaNaNaNaNaNaNaNaNaNaNaa(lp1450
NaNaNaNaNaNaNaNaNaNaNaNaNaNaNaNaNaNaNaNaa(lp1451
NaNaNaNaNaNaNaNaNaNaNaNaNaNaNaNaNaNaNaNaa(lp1452
NaNaNaNaNaNaNaNaNaNaNaNaNaNaNaNaNaNaNaNaa(lp1453
NaNaNaNaNaNaNaNaNaNaNaNaNaNaNaNaNaNaNaNaa(lp1454
NaNaNaNaNaNaNaNaNaNaNaNaNaNaNaNaNaNaNaNaa(lp1455
NaNaNaNaNaNaNaNaNaNaNaNaNaNaNaNaNaNaNaNaa(lp1456
NaNaNaNaNaNaNaNaNaNaNaNaNaNaNaNaNaNaNaNaasS'64:9a:be:b9:3d:81'
p1457
(lp1458
(lp1459
NaNaNaNaNaNaNaNaNaNaNaNaNaNaNaNaNaNaNaNaa(lp1460
NaNaNaNaNaNaNaNaNaNaNaNaNaNaNaNaNaNaNaNaa(lp1461
NaNaNaNaNaNaNaNaNaNaNaNaNaNaNaNaNaNaNaNaa(lp1462
NaNaNaNaNaNaNaNaNaNaNaNaNaNaNaNaNaNaNaNaa(lp1463
NaNaNaNaNaNaNaNaNaNaNaNaNaNaNaNaNaNaNaNaa(lp1464
NaNaNaNaNaNaNaNaNaNaNaNaNaNaNaNaNaNaNaNaa(lp1465
NaNaNaNaNaNaNaNaNaNaNaNaNaNaNaNaNaNaNaNaa(lp1466
NaNaNaNaNaNaNaNaNaNaNaNaNaNaNaNaNaNaNaNaa(lp1467
NaNaNaNaNaNaNaNaNaNaNaNaNaNaNaNaNaNaNaNaa(lp1468
NaNaNaNaNaNaNaNaNaNaNaNaNaNag13
(g17
S'\x00\x00\x00\x00\x00\x00V\xc0'
p1469
tp1470
Rp1471
aNaNaNaNaNaa(lp1472
NaNaNaNaNaNaNaNaNaNaNaNaNaNaNaNaNaNaNaNaa(lp1473
NaNaNaNaNaNaNaNaNaNaNaNaNaNaNaNaNaNaNaNaa(lp1474
NaNaNaNaNaNaNaNaNaNaNaNaNaNaNaNaNaNaNaNaa(lp1475
NaNaNaNaNaNaNaNaNaNaNaNaNaNaNaNaNaNaNaNaa(lp1476
NaNaNaNaNaNaNaNaNaNaNaNaNaNaNaNaNaNaNaNaa(lp1477
NaNaNaNaNaNaNaNaNaNaNaNaNaNaNaNaNaNaNaNaa(lp1478
NaNaNaNaNaNaNaNaNaNaNaNaNaNaNaNaNaNaNaNaa(lp1479
NaNaNaNaNaNaNaNaNaNaNaNaNaNaNaNaNaNaNaNaa(lp1480
NaNaNaNaNaNaNaNaNaNaNaNaNaNaNaNaNaNaNaNaa(lp1481
NaNaNaNaNaNaNaNaNaNaNaNaNaNaNaNaNaNaNaNaa(lp1482
NaNaNaNaNaNaNaNaNaNaNaNaNaNaNaNaNaNaNaNaa(lp1483
NaNaNaNaNaNaNaNaNaNaNaNaNaNaNaNaNaNaNaNaa(lp1484
NaNaNaNaNaNaNaNaNaNaNaNaNaNaNaNaNaNaNaNaa(lp1485
NaNaNaNaNaNaNaNaNaNaNaNaNaNaNaNaNaNaNaNaa(lp1486
NaNaNaNaNaNaNaNaNaNaNaNaNaNaNaNaNaNaNaNaa(lp1487
NaNaNaNaNaNaNaNaNaNaNaNaNaNaNaNaNaNaNaNaa(lp1488
NaNaNaNaNaNaNaNaNaNaNaNaNaNaNaNaNaNaNaNaasS'18:f6:43:50:fb:c0'
p1489
(lp1490
(lp1491
NaNaNaNaNaNaNaNaNaNaNaNaNaNaNaNaNaNaNaNaa(lp1492
NaNaNaNaNaNaNaNaNaNaNaNaNaNaNaNaNaNaNaNaa(lp1493
NaNaNaNaNaNaNaNaNaNaNaNaNaNaNaNaNaNaNaNaa(lp1494
NaNaNaNaNaNaNaNaNaNaNaNaNaNaNaNaNaNaNaNaa(lp1495
NaNaNaNaNaNaNaNaNaNaNaNaNaNaNaNaNaNaNaNaa(lp1496
NaNaNaNaNaNaNaNaNaNaNaNaNaNaNaNaNaNaNaNaa(lp1497
NaNaNaNaNaNaNaNaNaNaNaNaNaNaNaNaNaNaNaNaa(lp1498
NaNaNaNaNaNaNaNaNaNaNaNaNaNaNaNaNaNaNaNaa(lp1499
NaNaNaNaNaNaNaNaNaNaNaNaNaNaNaNaNaNaNaNaa(lp1500
NaNaNaNaNaNaNaNaNaNaNaNaNaNag13
(g17
S'r\x1c\xc7q\x1c\x87S\xc0'
p1501
tp1502
Rp1503
aNaNaNaNaNaa(lp1504
NaNaNaNaNaNaNaNaNaNaNaNaNaNaNaNaNaNaNaNaa(lp1505
NaNaNaNaNaNaNaNaNaNaNaNaNaNaNaNaNaNaNaNaa(lp1506
NaNaNaNaNaNaNaNaNaNaNaNaNaNaNaNaNaNaNaNaa(lp1507
NaNaNaNaNaNaNaNaNaNaNaNaNaNaNaNaNaNaNaNaa(lp1508
NaNaNaNaNaNaNaNaNaNaNaNaNaNaNaNaNaNaNaNaa(lp1509
NaNaNaNaNaNaNaNaNaNaNaNaNaNaNaNaNaNaNaNaa(lp1510
NaNaNaNaNaNaNaNaNaNaNaNaNaNaNaNaNaNaNaNaa(lp1511
NaNaNaNaNaNaNaNaNaNaNaNaNaNaNaNaNaNaNaNaa(lp1512
NaNaNaNaNaNaNaNaNaNaNaNaNaNaNaNaNaNaNaNaa(lp1513
NaNaNaNaNaNaNaNaNaNaNaNaNaNaNaNaNaNaNaNaa(lp1514
NaNaNaNaNaNaNaNaNaNaNaNaNaNaNaNaNaNaNaNaa(lp1515
NaNaNaNaNaNaNaNaNaNaNaNaNaNaNaNaNaNaNaNaa(lp1516
NaNaNaNaNaNaNaNaNaNaNaNaNaNaNaNaNaNaNaNaa(lp1517
NaNaNaNaNaNaNaNaNaNaNaNaNaNaNaNaNaNaNaNaa(lp1518
NaNaNaNaNaNaNaNaNaNaNaNaNaNaNaNaNaNaNaNaa(lp1519
NaNaNaNaNaNaNaNaNaNaNaNaNaNaNaNaNaNaNaNaa(lp1520
NaNaNaNaNaNaNaNaNaNaNaNaNaNaNaNaNaNaNaNaasS'cc:3a:61:7d:11:cd'
p1521
(lp1522
(lp1523
NaNaNaNaNaNaNaNaNaNaNaNaNaNaNaNaNaNaNaNaa(lp1524
NaNaNaNaNaNaNaNaNaNaNaNaNaNaNaNaNaNaNaNaa(lp1525
NaNaNaNaNaNaNaNaNaNaNaNaNaNaNaNaNaNaNaNaa(lp1526
NaNaNaNaNaNaNaNaNaNaNaNaNaNaNaNaNaNaNaNaa(lp1527
NaNaNaNaNaNaNaNaNaNaNaNaNaNaNaNaNaNaNaNaa(lp1528
NaNaNaNaNaNaNaNaNaNaNaNaNaNaNaNaNaNaNaNaa(lp1529
NaNaNaNaNaNaNaNaNaNaNaNaNaNaNaNaNaNaNaNaa(lp1530
NaNaNaNaNaNaNaNaNaNaNaNaNaNaNaNaNaNaNaNaa(lp1531
NaNaNaNaNaNaNaNaNaNaNaNaNaNaNaNaNaNaNaNaa(lp1532
NaNaNaNaNaNaNaNaNaNaNaNaNaNag13
(g17
S'\x00\x00\x00\x00\x00\x80S\xc0'
p1533
tp1534
Rp1535
aNaNaNaNaNaa(lp1536
NaNaNaNaNaNaNaNaNaNaNaNaNaNag13
(g17
S'\x00\x00\x00\x00\x00 T\xc0'
p1537
tp1538
Rp1539
ag13
(g17
S'\x00\x00\x00\x00\x00\xc0T\xc0'
p1540
tp1541
Rp1542
aNaNaNaNaa(lp1543
NaNaNaNaNaNaNaNaNaNaNaNaNaNaNaNaNaNaNaNaa(lp1544
NaNaNaNaNaNaNaNaNaNaNaNaNaNaNaNaNaNaNaNaa(lp1545
NaNaNaNaNaNaNaNaNaNaNaNaNaNaNaNaNaNaNaNaa(lp1546
NaNaNaNaNaNaNaNaNaNaNaNaNaNaNaNaNaNaNaNaa(lp1547
NaNaNaNaNaNaNaNaNaNaNaNaNaNaNaNaNaNaNaNaa(lp1548
NaNaNaNaNaNaNaNaNaNaNaNaNaNaNaNaNaNaNaNaa(lp1549
NaNaNaNaNaNaNaNaNaNaNaNaNaNaNaNaNaNaNaNaa(lp1550
NaNaNaNaNaNaNaNaNaNaNaNaNaNaNaNaNaNaNaNaa(lp1551
NaNaNaNaNaNaNaNaNaNaNaNaNaNaNaNaNaNaNaNaa(lp1552
NaNaNaNaNaNaNaNaNaNaNaNaNaNaNaNaNaNaNaNaa(lp1553
NaNaNaNaNaNaNaNaNaNaNaNaNaNaNaNaNaNaNaNaa(lp1554
NaNaNaNaNaNaNaNaNaNaNaNaNaNaNaNaNaNaNaNaa(lp1555
NaNaNaNaNaNaNaNaNaNaNaNaNaNaNaNaNaNaNaNaa(lp1556
NaNaNaNaNaNaNaNaNaNaNaNaNaNaNaNaNaNaNaNaa(lp1557
NaNaNaNaNaNaNaNaNaNaNaNaNaNaNaNaNaNaNaNaa(lp1558
NaNaNaNaNaNaNaNaNaNaNaNaNaNaNaNaNaNaNaNaasS'8c:2d:aa:5d:02:a1'
p1559
(lp1560
(lp1561
NaNaNaNaNaNaNaNaNaNaNaNaNaNaNaNaNaNaNaNaa(lp1562
NaNaNaNaNaNaNaNaNaNaNaNaNaNaNaNaNaNaNaNaa(lp1563
NaNaNaNaNaNaNaNaNaNaNaNaNaNaNaNaNaNaNaNaa(lp1564
NaNaNaNaNaNaNaNaNaNaNaNaNaNaNaNaNaNaNaNaa(lp1565
NaNaNaNaNaNaNaNaNaNaNaNaNaNaNaNaNaNaNaNaa(lp1566
NaNaNaNaNaNaNaNaNaNaNaNaNaNaNaNaNaNaNaNaa(lp1567
NaNaNaNaNaNaNaNaNaNaNaNaNaNaNaNaNaNaNaNaa(lp1568
NaNaNaNaNaNaNaNaNaNaNaNaNaNaNaNaNaNaNaNaa(lp1569
NaNaNaNaNaNaNaNaNaNaNaNaNaNaNaNaNaNaNaNaa(lp1570
NaNaNaNaNaNaNaNaNaNaNaNaNaNag13
(g17
S'\x00\x00\x00\x00\x00\x80U\xc0'
p1571
tp1572
Rp1573
aNaNaNaNaNaa(lp1574
NaNaNaNaNaNaNaNaNaNaNaNaNaNaNaNaNaNaNaNaa(lp1575
NaNaNaNaNaNaNaNaNaNaNaNaNaNaNaNaNaNaNaNaa(lp1576
NaNaNaNaNaNaNaNaNaNaNaNaNaNaNaNaNaNaNaNaa(lp1577
NaNaNaNaNaNaNaNaNaNaNaNaNaNaNaNaNaNaNaNaa(lp1578
NaNaNaNaNaNaNaNaNaNaNaNaNaNaNaNaNaNaNaNaa(lp1579
NaNaNaNaNaNaNaNaNaNaNaNaNaNaNaNaNaNaNaNaa(lp1580
NaNaNaNaNaNaNaNaNaNaNaNaNaNaNaNaNaNaNaNaa(lp1581
NaNaNaNaNaNaNaNaNaNaNaNaNaNaNaNaNaNaNaNaa(lp1582
NaNaNaNaNaNaNaNaNaNaNaNaNaNaNaNaNaNaNaNaa(lp1583
NaNaNaNaNaNaNaNaNaNaNaNaNaNaNaNaNaNaNaNaa(lp1584
NaNaNaNaNaNaNaNaNaNaNaNaNaNaNaNaNaNaNaNaa(lp1585
NaNaNaNaNaNaNaNaNaNaNaNaNaNaNaNaNaNaNaNaa(lp1586
NaNaNaNaNaNaNaNaNaNaNaNaNaNaNaNaNaNaNaNaa(lp1587
NaNaNaNaNaNaNaNaNaNaNaNaNaNaNaNaNaNaNaNaa(lp1588
NaNaNaNaNaNaNaNaNaNaNaNaNaNaNaNaNaNaNaNaa(lp1589
NaNaNaNaNaNaNaNaNaNaNaNaNaNaNaNaNaNaNaNaa(lp1590
NaNaNaNaNaNaNaNaNaNaNaNaNaNaNaNaNaNaNaNaasS'98:fe:94:f0:f6:dd'
p1591
(lp1592
(lp1593
NaNaNaNaNaNaNaNaNaNaNaNaNaNaNaNaNaNaNaNaa(lp1594
NaNaNaNaNaNaNaNaNaNaNaNaNaNaNaNaNaNaNaNaa(lp1595
NaNaNaNaNaNaNaNaNaNaNaNaNaNaNaNaNaNaNaNaa(lp1596
NaNaNaNaNaNaNaNaNaNaNaNaNaNaNaNaNaNaNaNaa(lp1597
NaNaNaNaNaNaNaNaNaNaNaNaNaNaNaNaNaNaNaNaa(lp1598
NaNaNaNaNaNaNaNaNaNaNaNaNaNaNaNaNaNaNaNaa(lp1599
NaNaNaNaNaNaNaNaNaNaNaNaNaNaNaNaNaNaNaNaa(lp1600
NaNaNaNaNaNaNaNaNaNaNaNaNaNaNaNaNaNaNaNaa(lp1601
NaNaNaNaNaNaNaNaNaNaNaNaNaNaNaNaNaNaNaNaa(lp1602
NaNaNaNaNaNaNaNaNaNaNaNaNaNag13
(g17
S'\x00\x00\x00\x00\x00\xe0T\xc0'
p1603
tp1604
Rp1605
aNaNaNaNaNaa(lp1606
NaNaNaNaNaNaNaNaNaNaNaNaNaNag13
(g17
S'UUUUU\x15T\xc0'
p1607
tp1608
Rp1609
aNaNaNaNaNaa(lp1610
NaNaNaNaNaNaNaNaNaNaNaNaNaNaNaNaNaNaNaNaa(lp1611
NaNaNaNaNaNaNaNaNaNaNaNaNaNaNaNaNaNaNaNaa(lp1612
NaNaNaNaNaNaNaNaNaNaNaNaNaNaNaNaNaNaNaNaa(lp1613
NaNaNaNaNaNaNaNaNaNaNaNaNaNaNaNaNaNaNaNaa(lp1614
NaNaNaNaNaNaNaNaNaNaNaNaNaNaNaNaNaNaNaNaa(lp1615
NaNaNaNaNaNaNaNaNaNaNaNaNaNaNaNaNaNaNaNaa(lp1616
NaNaNaNaNaNaNaNaNaNaNaNaNaNaNaNaNaNaNaNaa(lp1617
NaNaNaNaNaNaNaNaNaNaNaNaNaNaNaNaNaNaNaNaa(lp1618
NaNaNaNaNaNaNaNaNaNaNaNaNaNaNaNaNaNaNaNaa(lp1619
NaNaNaNaNaNaNaNaNaNaNaNaNaNaNaNaNaNaNaNaa(lp1620
NaNaNaNaNaNaNaNaNaNaNaNaNaNaNaNaNaNaNaNaa(lp1621
NaNaNaNaNaNaNaNaNaNaNaNaNaNaNaNaNaNaNaNaa(lp1622
NaNaNaNaNaNaNaNaNaNaNaNaNaNaNaNaNaNaNaNaa(lp1623
NaNaNaNaNaNaNaNaNaNaNaNaNaNaNaNaNaNaNaNaa(lp1624
NaNaNaNaNaNaNaNaNaNaNaNaNaNaNaNaNaNaNaNaa(lp1625
NaNaNaNaNaNaNaNaNaNaNaNaNaNaNaNaNaNaNaNaasS'ec:35:86:3b:84:70'
p1626
(lp1627
(lp1628
NaNaNaNaNaNaNaNaNaNaNaNaNaNaNaNaNaNaNaNaa(lp1629
NaNaNaNaNaNaNaNaNaNaNaNaNaNaNaNaNaNaNaNaa(lp1630
NaNaNaNaNaNaNaNaNaNaNaNaNaNaNaNaNaNaNaNaa(lp1631
NaNaNaNaNaNaNaNaNaNaNaNaNaNaNaNaNaNaNaNaa(lp1632
NaNaNaNaNaNaNaNaNaNaNaNaNaNaNaNaNaNaNaNaa(lp1633
NaNaNaNaNaNaNaNaNaNaNaNaNaNaNaNaNaNaNaNaa(lp1634
NaNaNaNaNaNaNaNaNaNaNaNaNaNaNaNaNaNaNaNaa(lp1635
NaNaNaNaNaNaNaNaNaNaNaNaNaNaNaNaNaNaNaNaa(lp1636
NaNaNaNaNaNaNaNaNaNaNaNaNaNaNaNaNaNaNaNaa(lp1637
NaNaNaNaNaNaNaNaNaNaNaNaNaNaNaNaNaNaNaNaa(lp1638
NaNaNaNaNaNaNaNaNaNaNaNaNaNaNag13
(g17
S'\xab\xaa\xaa\xaa\xaa\xeaT\xc0'
p1639
tp1640
Rp1641
aNaNaNaNaa(lp1642
NaNaNaNaNaNaNaNaNaNaNaNaNaNaNaNaNaNaNaNaa(lp1643
NaNaNaNaNaNaNaNaNaNaNaNaNaNaNaNaNaNaNaNaa(lp1644
NaNaNaNaNaNaNaNaNaNaNaNaNaNaNaNaNaNaNaNaa(lp1645
NaNaNaNaNaNaNaNaNaNaNaNaNaNaNaNaNaNaNaNaa(lp1646
NaNaNaNaNaNaNaNaNaNaNaNaNaNaNaNaNaNaNaNaa(lp1647
NaNaNaNaNaNaNaNaNaNaNaNaNaNaNaNaNaNaNaNaa(lp1648
NaNaNaNaNaNaNaNaNaNaNaNaNaNaNaNaNaNaNaNaa(lp1649
NaNaNaNaNaNaNaNaNaNaNaNaNaNaNaNaNaNaNaNaa(lp1650
NaNaNaNaNaNaNaNaNaNaNaNaNaNaNaNaNaNaNaNaa(lp1651
NaNaNaNaNaNaNaNaNaNaNaNaNaNaNaNaNaNaNaNaa(lp1652
NaNaNaNaNaNaNaNaNaNaNaNaNaNaNaNaNaNaNaNaa(lp1653
NaNaNaNaNaNaNaNaNaNaNaNaNaNaNaNaNaNaNaNaa(lp1654
NaNaNaNaNaNaNaNaNaNaNaNaNaNaNaNaNaNaNaNaa(lp1655
NaNaNaNaNaNaNaNaNaNaNaNaNaNaNaNaNaNaNaNaa(lp1656
NaNaNaNaNaNaNaNaNaNaNaNaNaNaNaNaNaNaNaNaa(lp1657
NaNaNaNaNaNaNaNaNaNaNaNaNaNaNaNaNaNaNaNaasS'00:24:6c:c5:49:a2'
p1658
(lp1659
(lp1660
NaNaNaNaNaNaNaNaNaNaNaNaNaNaNaNaNaNaNaNaa(lp1661
NaNaNaNaNaNaNaNaNaNaNaNaNaNaNaNaNaNaNaNaa(lp1662
NaNaNaNaNaNaNaNaNaNaNaNaNaNaNaNaNaNaNaNaa(lp1663
NaNaNaNaNaNaNaNaNaNaNaNaNaNaNaNaNaNaNaNaa(lp1664
NaNaNaNaNaNaNaNaNaNaNaNaNaNaNaNaNaNaNaNaa(lp1665
NaNaNaNaNaNaNaNaNaNaNaNaNaNaNaNaNaNaNaNaa(lp1666
NaNaNaNaNaNaNaNaNaNaNaNaNaNaNaNaNaNaNaNaa(lp1667
NaNaNaNaNaNaNaNaNaNaNaNaNaNaNaNaNaNaNaNaa(lp1668
NaNaNaNaNaNaNaNaNaNaNaNaNaNaNaNaNaNaNaNaa(lp1669
NaNaNaNaNaNaNaNaNaNaNaNaNag13
(g17
S'\x98S\xf0r\n\x1eI\xc0'
p1670
tp1671
Rp1672
ag13
(g17
S'\xe2\xe1\xe1\xe1\xe1aI\xc0'
p1673
tp1674
Rp1675
aNaNaNaNaNaa(lp1676
NaNaNaNaNaNaNaNaNaNaNaNaNaNag13
(g17
S'\xb7m\xdb\xb6m[I\xc0'
p1677
tp1678
Rp1679
ag13
(g17
S'\xd9\x89\x9d\xd8\x89\x9dI\xc0'
p1680
tp1681
Rp1682
aNaNaNaNaa(lp1683
NaNaNaNaNaNaNaNaNaNaNaNaNaNaNaNaNaNaNaNaa(lp1684
NaNaNaNaNaNaNaNaNaNaNaNaNaNaNaNaNaNaNaNaa(lp1685
NaNaNaNaNaNaNaNaNaNaNaNaNaNaNaNaNaNaNaNaa(lp1686
NaNaNaNaNaNaNaNaNaNaNaNaNaNaNaNaNaNaNaNaa(lp1687
NaNaNaNaNaNaNaNaNaNaNaNaNaNaNaNaNaNaNaNaa(lp1688
NaNaNaNaNaNaNaNaNaNaNaNaNaNaNaNaNaNaNaNaa(lp1689
NaNaNaNaNaNaNaNaNaNaNaNaNaNaNaNaNaNaNaNaa(lp1690
NaNaNaNaNaNaNaNaNaNaNaNaNaNaNaNaNaNaNaNaa(lp1691
NaNaNaNaNaNaNaNaNaNaNaNaNaNaNaNaNaNaNaNaa(lp1692
NaNaNaNaNaNaNaNaNaNaNaNaNaNaNaNaNaNaNaNaa(lp1693
NaNaNaNaNaNaNaNaNaNaNaNaNaNaNaNaNaNaNaNaa(lp1694
NaNaNaNaNaNaNaNaNaNaNaNaNaNaNaNaNaNaNaNaa(lp1695
NaNaNaNaNaNaNaNaNaNaNaNaNaNaNaNaNaNaNaNaa(lp1696
NaNaNaNaNaNaNaNaNaNaNaNaNaNaNaNaNaNaNaNaa(lp1697
NaNaNaNaNaNaNaNaNaNaNaNaNaNaNaNaNaNaNaNaa(lp1698
NaNaNaNaNaNaNaNaNaNaNaNaNaNaNaNaNaNaNaNaasS'00:24:6c:c5:49:a1'
p1699
(lp1700
(lp1701
NaNaNaNaNaNaNaNaNaNaNaNaNaNaNaNaNaNaNaNaa(lp1702
NaNaNaNaNaNaNaNaNaNaNaNaNaNaNaNaNaNaNaNaa(lp1703
NaNaNaNaNaNaNaNaNaNaNaNaNaNaNaNaNaNaNaNaa(lp1704
NaNaNaNaNaNaNaNaNaNaNaNaNaNaNaNaNaNaNaNaa(lp1705
NaNaNaNaNaNaNaNaNaNaNaNaNaNaNaNaNaNaNaNaa(lp1706
NaNaNaNaNaNaNaNaNaNaNaNaNaNaNaNaNaNaNaNaa(lp1707
NaNaNaNaNaNaNaNaNaNaNaNaNaNaNaNaNaNaNaNaa(lp1708
NaNaNaNaNaNaNaNaNaNaNaNaNaNaNaNaNaNaNaNaa(lp1709
NaNaNaNaNaNaNaNaNaNaNaNaNaNaNaNaNaNaNaNaa(lp1710
NaNaNaNaNaNaNaNaNaNaNaNaNag13
(g17
S'\x00\x00\x00\x00\x00\x10K\xc0'
p1711
tp1712
Rp1713
ag13
(g17
S'9\x8e\xe38\x8e\xe3J\xc0'
p1714
tp1715
Rp1716
aNaNaNaNaNaa(lp1717
NaNaNaNaNaNaNaNaNaNaNaNaNaNag13
(g17
S'UUUUUUK\xc0'
p1718
tp1719
Rp1720
ag13
(g17
S'\xc7q\x1c\xc7q\\J\xc0'
p1721
tp1722
Rp1723
aNaNaNaNaa(lp1724
NaNaNaNaNaNaNaNaNaNaNaNaNaNaNaNaNaNaNaNaa(lp1725
NaNaNaNaNaNaNaNaNaNaNaNaNaNaNaNaNaNaNaNaa(lp1726
NaNaNaNaNaNaNaNaNaNaNaNaNaNaNaNaNaNaNaNaa(lp1727
NaNaNaNaNaNaNaNaNaNaNaNaNaNaNaNaNaNaNaNaa(lp1728
NaNaNaNaNaNaNaNaNaNaNaNaNaNaNaNaNaNaNaNaa(lp1729
NaNaNaNaNaNaNaNaNaNaNaNaNaNaNaNaNaNaNaNaa(lp1730
NaNaNaNaNaNaNaNaNaNaNaNaNaNaNaNaNaNaNaNaa(lp1731
NaNaNaNaNaNaNaNaNaNaNaNaNaNaNaNaNaNaNaNaa(lp1732
NaNaNaNaNaNaNaNaNaNaNaNaNaNaNaNaNaNaNaNaa(lp1733
NaNaNaNaNaNaNaNaNaNaNaNaNaNaNaNaNaNaNaNaa(lp1734
NaNaNaNaNaNaNaNaNaNaNaNaNaNaNaNaNaNaNaNaa(lp1735
NaNaNaNaNaNaNaNaNaNaNaNaNaNaNaNaNaNaNaNaa(lp1736
NaNaNaNaNaNaNaNaNaNaNaNaNaNaNaNaNaNaNaNaa(lp1737
NaNaNaNaNaNaNaNaNaNaNaNaNaNaNaNaNaNaNaNaa(lp1738
NaNaNaNaNaNaNaNaNaNaNaNaNaNaNaNaNaNaNaNaa(lp1739
NaNaNaNaNaNaNaNaNaNaNaNaNaNaNaNaNaNaNaNaasS'a4:c3:61:3e:55:7e'
p1740
(lp1741
(lp1742
NaNaNaNaNaNaNaNaNaNaNaNaNaNaNaNaNaNaNaNaa(lp1743
NaNaNaNaNaNaNaNaNaNaNaNaNaNaNaNaNaNaNaNaa(lp1744
NaNaNaNaNaNaNaNaNaNaNaNaNaNaNaNaNaNaNaNaa(lp1745
NaNaNaNaNaNaNaNaNaNaNaNaNaNaNaNaNaNaNaNaa(lp1746
NaNaNaNaNaNaNaNaNaNaNaNaNaNaNaNaNaNaNaNaa(lp1747
NaNaNaNaNaNaNaNaNaNaNaNaNaNaNaNaNaNaNaNaa(lp1748
NaNaNaNaNaNaNaNaNaNaNaNaNaNaNaNaNaNaNaNaa(lp1749
NaNaNaNaNaNaNaNaNaNaNaNaNaNaNaNaNaNaNaNaa(lp1750
NaNaNaNaNaNaNaNaNaNaNaNaNaNaNaNaNaNaNaNaa(lp1751
NaNaNaNaNaNaNaNaNaNaNaNaNaNag13
(g17
S'\x00\x00\x00\x00\x00\x80U\xc0'
p1752
tp1753
Rp1754
aNaNaNaNaNaa(lp1755
NaNaNaNaNaNaNaNaNaNaNaNaNaNaNaNaNaNaNaNaa(lp1756
NaNaNaNaNaNaNaNaNaNaNaNaNaNaNaNaNaNaNaNaa(lp1757
NaNaNaNaNaNaNaNaNaNaNaNaNaNaNaNaNaNaNaNaa(lp1758
NaNaNaNaNaNaNaNaNaNaNaNaNaNaNaNaNaNaNaNaa(lp1759
NaNaNaNaNaNaNaNaNaNaNaNaNaNaNaNaNaNaNaNaa(lp1760
NaNaNaNaNaNaNaNaNaNaNaNaNaNaNaNaNaNaNaNaa(lp1761
NaNaNaNaNaNaNaNaNaNaNaNaNaNaNaNaNaNaNaNaa(lp1762
NaNaNaNaNaNaNaNaNaNaNaNaNaNaNaNaNaNaNaNaa(lp1763
NaNaNaNaNaNaNaNaNaNaNaNaNaNaNaNaNaNaNaNaa(lp1764
NaNaNaNaNaNaNaNaNaNaNaNaNaNaNaNaNaNaNaNaa(lp1765
NaNaNaNaNaNaNaNaNaNaNaNaNaNaNaNaNaNaNaNaa(lp1766
NaNaNaNaNaNaNaNaNaNaNaNaNaNaNaNaNaNaNaNaa(lp1767
NaNaNaNaNaNaNaNaNaNaNaNaNaNaNaNaNaNaNaNaa(lp1768
NaNaNaNaNaNaNaNaNaNaNaNaNaNaNaNaNaNaNaNaa(lp1769
NaNaNaNaNaNaNaNaNaNaNaNaNaNaNaNaNaNaNaNaa(lp1770
NaNaNaNaNaNaNaNaNaNaNaNaNaNaNaNaNaNaNaNaa(lp1771
NaNaNaNaNaNaNaNaNaNaNaNaNaNaNaNaNaNaNaNaasS'00:24:b2:10:ef:44'
p1772
(lp1773
(lp1774
NaNaNaNaNaNaNaNaNaNaNaNaNaNaNaNaNaNaNaNaa(lp1775
NaNaNaNaNaNaNaNaNaNaNaNaNaNaNaNaNaNaNaNaa(lp1776
NaNaNaNaNaNaNaNaNaNaNaNaNaNaNaNaNaNaNaNaa(lp1777
NaNaNaNaNaNaNaNaNaNaNaNaNaNaNaNaNaNaNaNaa(lp1778
NaNaNaNaNaNaNaNaNaNaNaNaNaNaNaNaNaNaNaNaa(lp1779
NaNaNaNaNaNaNaNaNaNaNaNaNaNaNaNaNaNaNaNaa(lp1780
NaNaNaNaNaNaNaNaNaNaNaNaNaNaNaNaNaNaNaNaa(lp1781
NaNaNaNaNaNaNaNaNaNaNaNaNaNaNaNaNaNaNaNaa(lp1782
NaNaNaNaNaNaNaNaNaNaNaNaNaNaNaNaNaNaNaNaa(lp1783
NaNaNaNaNaNaNaNaNaNaNaNaNaNag13
(g17
S'\x00\x00\x00\x00\x00@U\xc0'
p1784
tp1785
Rp1786
aNaNaNaNaNaa(lp1787
NaNaNaNaNaNaNaNaNaNaNaNaNaNag13
(g17
S'\x00\x00\x00\x00\x00\x00U\xc0'
p1788
tp1789
Rp1790
aNaNaNaNaNaa(lp1791
NaNaNaNaNaNaNaNaNaNaNaNaNaNaNaNaNaNaNaNaa(lp1792
NaNaNaNaNaNaNaNaNaNaNaNaNaNaNaNaNaNaNaNaa(lp1793
NaNaNaNaNaNaNaNaNaNaNaNaNaNaNaNaNaNaNaNaa(lp1794
NaNaNaNaNaNaNaNaNaNaNaNaNaNaNaNaNaNaNaNaa(lp1795
NaNaNaNaNaNaNaNaNaNaNaNaNaNaNaNaNaNaNaNaa(lp1796
NaNaNaNaNaNaNaNaNaNaNaNaNaNaNaNaNaNaNaNaa(lp1797
NaNaNaNaNaNaNaNaNaNaNaNaNaNaNaNaNaNaNaNaa(lp1798
NaNaNaNaNaNaNaNaNaNaNaNaNaNaNaNaNaNaNaNaa(lp1799
NaNaNaNaNaNaNaNaNaNaNaNaNaNaNaNaNaNaNaNaa(lp1800
NaNaNaNaNaNaNaNaNaNaNaNaNaNaNaNaNaNaNaNaa(lp1801
NaNaNaNaNaNaNaNaNaNaNaNaNaNaNaNaNaNaNaNaa(lp1802
NaNaNaNaNaNaNaNaNaNaNaNaNaNaNaNaNaNaNaNaa(lp1803
NaNaNaNaNaNaNaNaNaNaNaNaNaNaNaNaNaNaNaNaa(lp1804
NaNaNaNaNaNaNaNaNaNaNaNaNaNaNaNaNaNaNaNaa(lp1805
NaNaNaNaNaNaNaNaNaNaNaNaNaNaNaNaNaNaNaNaa(lp1806
NaNaNaNaNaNaNaNaNaNaNaNaNaNaNaNaNaNaNaNaasS'00:18:39:81:1a:c9'
p1807
(lp1808
(lp1809
NaNaNaNaNaNaNaNaNaNaNaNaNaNaNaNaNaNaNaNaa(lp1810
NaNaNaNaNaNaNaNaNaNaNaNaNaNaNaNaNaNaNaNaa(lp1811
NaNaNaNaNaNaNaNaNaNaNaNaNaNaNaNaNaNaNaNaa(lp1812
NaNaNaNaNaNaNaNaNaNaNaNaNaNaNaNaNaNaNaNaa(lp1813
NaNaNaNaNaNaNaNaNaNaNaNaNaNaNaNaNaNaNaNaa(lp1814
NaNaNaNaNaNaNaNaNaNaNaNaNaNaNaNaNaNaNaNaa(lp1815
NaNaNaNaNaNaNaNaNaNaNaNaNaNaNaNaNaNaNaNaa(lp1816
NaNaNaNaNaNaNaNaNaNaNaNaNaNaNaNaNaNaNaNaa(lp1817
NaNaNaNaNaNaNaNaNaNaNaNaNaNaNaNaNaNaNaNaa(lp1818
NaNaNaNaNaNaNaNaNaNaNaNaNaNag13
(g17
S'\xab\xaa\xaa\xaa\xaajU\xc0'
p1819
tp1820
Rp1821
aNaNaNaNaNaa(lp1822
NaNaNaNaNaNaNaNaNaNaNaNaNaNag13
(g17
S'UUUUU\x15U\xc0'
p1823
tp1824
Rp1825
ag13
(g17
S'\x00\x00\x00\x00\x00\xa0U\xc0'
p1826
tp1827
Rp1828
aNaNaNaNaa(lp1829
NaNaNaNaNaNaNaNaNaNaNaNaNaNaNaNaNaNaNaNaa(lp1830
NaNaNaNaNaNaNaNaNaNaNaNaNaNaNaNaNaNaNaNaa(lp1831
NaNaNaNaNaNaNaNaNaNaNaNaNaNaNaNaNaNaNaNaa(lp1832
NaNaNaNaNaNaNaNaNaNaNaNaNaNaNaNaNaNaNaNaa(lp1833
NaNaNaNaNaNaNaNaNaNaNaNaNaNaNaNaNaNaNaNaa(lp1834
NaNaNaNaNaNaNaNaNaNaNaNaNaNaNaNaNaNaNaNaa(lp1835
NaNaNaNaNaNaNaNaNaNaNaNaNaNaNaNaNaNaNaNaa(lp1836
NaNaNaNaNaNaNaNaNaNaNaNaNaNaNaNaNaNaNaNaa(lp1837
NaNaNaNaNaNaNaNaNaNaNaNaNaNaNaNaNaNaNaNaa(lp1838
NaNaNaNaNaNaNaNaNaNaNaNaNaNaNaNaNaNaNaNaa(lp1839
NaNaNaNaNaNaNaNaNaNaNaNaNaNaNaNaNaNaNaNaa(lp1840
NaNaNaNaNaNaNaNaNaNaNaNaNaNaNaNaNaNaNaNaa(lp1841
NaNaNaNaNaNaNaNaNaNaNaNaNaNaNaNaNaNaNaNaa(lp1842
NaNaNaNaNaNaNaNaNaNaNaNaNaNaNaNaNaNaNaNaa(lp1843
NaNaNaNaNaNaNaNaNaNaNaNaNaNaNaNaNaNaNaNaa(lp1844
NaNaNaNaNaNaNaNaNaNaNaNaNaNaNaNaNaNaNaNaasS'2c:81:58:f8:bd:07'
p1845
(lp1846
(lp1847
NaNaNaNaNaNaNaNaNaNaNaNaNaNaNaNaNaNaNaNaa(lp1848
NaNaNaNaNaNaNaNaNaNaNaNaNaNaNaNaNaNaNaNaa(lp1849
NaNaNaNaNaNaNaNaNaNaNaNaNaNaNaNaNaNaNaNaa(lp1850
NaNaNaNaNaNaNaNaNaNaNaNaNaNaNaNaNaNaNaNaa(lp1851
NaNaNaNaNaNaNaNaNaNaNaNaNaNaNaNaNaNaNaNaa(lp1852
NaNaNaNaNaNaNaNaNaNaNaNaNaNaNaNaNaNaNaNaa(lp1853
NaNaNaNaNaNaNaNaNaNaNaNaNaNaNaNaNaNaNaNaa(lp1854
NaNaNaNaNaNaNaNaNaNaNaNaNaNaNaNaNaNaNaNaa(lp1855
NaNaNaNaNaNaNaNaNaNaNaNaNaNaNaNaNaNaNaNaa(lp1856
NaNaNaNaNaNaNaNaNaNaNaNaNag13
(g17
S'\x00\x00\x00\x00\x00\x80J\xc0'
p1857
tp1858
Rp1859
aNaNaNaNaNaNaa(lp1860
NaNaNaNaNaNaNaNaNaNaNaNaNaNag13
(g17
S'9\x8e\xe38\x8ecK\xc0'
p1861
tp1862
Rp1863
aNaNaNaNaNaa(lp1864
NaNaNaNaNaNaNaNaNaNaNaNaNaNaNaNaNaNaNaNaa(lp1865
NaNaNaNaNaNaNaNaNaNaNaNaNaNaNaNaNaNaNaNaa(lp1866
NaNaNaNaNaNaNaNaNaNaNaNaNaNaNaNaNaNaNaNaa(lp1867
NaNaNaNaNaNaNaNaNaNaNaNaNaNaNaNaNaNaNaNaa(lp1868
NaNaNaNaNaNaNaNaNaNaNaNaNaNaNaNaNaNaNaNaa(lp1869
NaNaNaNaNaNaNaNaNaNaNaNaNaNaNaNaNaNaNaNaa(lp1870
NaNaNaNaNaNaNaNaNaNaNaNaNaNaNaNaNaNaNaNaa(lp1871
NaNaNaNaNaNaNaNaNaNaNaNaNaNaNaNaNaNaNaNaa(lp1872
NaNaNaNaNaNaNaNaNaNaNaNaNaNaNaNaNaNaNaNaa(lp1873
NaNaNaNaNaNaNaNaNaNaNaNaNaNaNaNaNaNaNaNaa(lp1874
NaNaNaNaNaNaNaNaNaNaNaNaNaNaNaNaNaNaNaNaa(lp1875
NaNaNaNaNaNaNaNaNaNaNaNaNaNaNaNaNaNaNaNaa(lp1876
NaNaNaNaNaNaNaNaNaNaNaNaNaNaNaNaNaNaNaNaa(lp1877
NaNaNaNaNaNaNaNaNaNaNaNaNaNaNaNaNaNaNaNaa(lp1878
NaNaNaNaNaNaNaNaNaNaNaNaNaNaNaNaNaNaNaNaa(lp1879
NaNaNaNaNaNaNaNaNaNaNaNaNaNaNaNaNaNaNaNaasS'24:a2:e1:65:1c:8f'
p1880
(lp1881
(lp1882
NaNaNaNaNaNaNaNaNaNaNaNaNaNaNaNaNaNaNaNaa(lp1883
NaNaNaNaNaNaNaNaNaNaNaNaNaNaNaNaNaNaNaNaa(lp1884
NaNaNaNaNaNaNaNaNaNaNaNaNaNaNaNaNaNaNaNaa(lp1885
NaNaNaNaNaNaNaNaNaNaNaNaNaNaNaNaNaNaNaNaa(lp1886
NaNaNaNaNaNaNaNaNaNaNaNaNaNaNaNaNaNaNaNaa(lp1887
NaNaNaNaNaNaNaNaNaNaNaNaNaNaNaNaNaNaNaNaa(lp1888
NaNaNaNaNaNaNaNaNaNaNaNaNaNaNaNaNaNaNaNaa(lp1889
NaNaNaNaNaNaNaNaNaNaNaNaNaNaNaNaNaNaNaNaa(lp1890
NaNaNaNaNaNaNaNaNaNaNaNaNaNaNaNaNaNaNaNaa(lp1891
NaNaNaNaNaNaNaNaNaNaNaNaNaNag13
(g17
S'\x00\x00\x00\x00\x00\x00U\xc0'
p1892
tp1893
Rp1894
aNaNaNaNaNaa(lp1895
NaNaNaNaNaNaNaNaNaNaNaNaNaNag13
(g17
S'\xf1\xf0\xf0\xf0\xf0\xb0U\xc0'
p1896
tp1897
Rp1898
ag13
(g17
S'\x00\x00\x00\x00\x00pU\xc0'
p1899
tp1900
Rp1901
aNaNaNaNaa(lp1902
NaNaNaNaNaNaNaNaNaNaNaNaNaNaNaNaNaNaNaNaa(lp1903
NaNaNaNaNaNaNaNaNaNaNaNaNaNaNaNaNaNaNaNaa(lp1904
NaNaNaNaNaNaNaNaNaNaNaNaNaNaNaNaNaNaNaNaa(lp1905
NaNaNaNaNaNaNaNaNaNaNaNaNaNaNaNaNaNaNaNaa(lp1906
NaNaNaNaNaNaNaNaNaNaNaNaNaNaNaNaNaNaNaNaa(lp1907
NaNaNaNaNaNaNaNaNaNaNaNaNaNaNaNaNaNaNaNaa(lp1908
NaNaNaNaNaNaNaNaNaNaNaNaNaNaNaNaNaNaNaNaa(lp1909
NaNaNaNaNaNaNaNaNaNaNaNaNaNaNaNaNaNaNaNaa(lp1910
NaNaNaNaNaNaNaNaNaNaNaNaNaNaNaNaNaNaNaNaa(lp1911
NaNaNaNaNaNaNaNaNaNaNaNaNaNaNaNaNaNaNaNaa(lp1912
NaNaNaNaNaNaNaNaNaNaNaNaNaNaNaNaNaNaNaNaa(lp1913
NaNaNaNaNaNaNaNaNaNaNaNaNaNaNaNaNaNaNaNaa(lp1914
NaNaNaNaNaNaNaNaNaNaNaNaNaNaNaNaNaNaNaNaa(lp1915
NaNaNaNaNaNaNaNaNaNaNaNaNaNaNaNaNaNaNaNaa(lp1916
NaNaNaNaNaNaNaNaNaNaNaNaNaNaNaNaNaNaNaNaa(lp1917
NaNaNaNaNaNaNaNaNaNaNaNaNaNaNaNaNaNaNaNaasS'fa:30:8c:58:7a:5b'
p1918
(lp1919
(lp1920
NaNaNaNaNaNaNaNaNaNaNaNaNaNaNaNaNaNaNaNaa(lp1921
NaNaNaNaNaNaNaNaNaNaNaNaNaNaNaNaNaNaNaNaa(lp1922
NaNaNaNaNaNaNaNaNaNaNaNaNaNaNaNaNaNaNaNaa(lp1923
NaNaNaNaNaNaNaNaNaNaNaNaNaNaNaNaNaNaNaNaa(lp1924
NaNaNaNaNaNaNaNaNaNaNaNaNaNaNaNaNaNaNaNaa(lp1925
NaNaNaNaNaNaNaNaNaNaNaNaNaNaNaNaNaNaNaNaa(lp1926
NaNaNaNaNaNaNaNaNaNaNaNaNaNaNaNaNaNaNaNaa(lp1927
NaNaNaNaNaNaNaNaNaNaNaNaNaNaNaNaNaNaNaNaa(lp1928
NaNaNaNaNaNaNaNaNaNaNaNaNaNaNaNaNaNaNaNaa(lp1929
NaNaNaNaNaNaNaNaNaNaNaNaNaNag13
(g17
S'\x00\x00\x00\x00\x00@T\xc0'
p1930
tp1931
Rp1932
aNaNaNaNaNaa(lp1933
NaNaNaNaNaNaNaNaNaNaNaNaNaNaNaNaNaNaNaNaa(lp1934
NaNaNaNaNaNaNaNaNaNaNaNaNaNaNaNaNaNaNaNaa(lp1935
NaNaNaNaNaNaNaNaNaNaNaNaNaNaNaNaNaNaNaNaa(lp1936
NaNaNaNaNaNaNaNaNaNaNaNaNaNaNaNaNaNaNaNaa(lp1937
NaNaNaNaNaNaNaNaNaNaNaNaNaNaNaNaNaNaNaNaa(lp1938
NaNaNaNaNaNaNaNaNaNaNaNaNaNaNaNaNaNaNaNaa(lp1939
NaNaNaNaNaNaNaNaNaNaNaNaNaNaNaNaNaNaNaNaa(lp1940
NaNaNaNaNaNaNaNaNaNaNaNaNaNaNaNaNaNaNaNaa(lp1941
NaNaNaNaNaNaNaNaNaNaNaNaNaNaNaNaNaNaNaNaa(lp1942
NaNaNaNaNaNaNaNaNaNaNaNaNaNaNaNaNaNaNaNaa(lp1943
NaNaNaNaNaNaNaNaNaNaNaNaNaNaNaNaNaNaNaNaa(lp1944
NaNaNaNaNaNaNaNaNaNaNaNaNaNaNaNaNaNaNaNaa(lp1945
NaNaNaNaNaNaNaNaNaNaNaNaNaNaNaNaNaNaNaNaa(lp1946
NaNaNaNaNaNaNaNaNaNaNaNaNaNaNaNaNaNaNaNaa(lp1947
NaNaNaNaNaNaNaNaNaNaNaNaNaNaNaNaNaNaNaNaa(lp1948
NaNaNaNaNaNaNaNaNaNaNaNaNaNaNaNaNaNaNaNaa(lp1949
NaNaNaNaNaNaNaNaNaNaNaNaNaNaNaNaNaNaNaNaasS'70:3e:ac:63:08:88'
p1950
(lp1951
(lp1952
NaNaNaNaNaNaNaNaNaNaNaNaNaNaNaNaNaNaNaNaa(lp1953
NaNaNaNaNaNaNaNaNaNaNaNaNaNaNaNaNaNaNaNaa(lp1954
NaNaNaNaNaNaNaNaNaNaNaNaNaNaNaNaNaNaNaNaa(lp1955
NaNaNaNaNaNaNaNaNaNaNaNaNaNaNaNaNaNaNaNaa(lp1956
NaNaNaNaNaNaNaNaNaNaNaNaNaNaNaNaNaNaNaNaa(lp1957
NaNaNaNaNaNaNaNaNaNaNaNaNaNaNaNaNaNaNaNaa(lp1958
NaNaNaNaNaNaNaNaNaNaNaNaNaNaNaNaNaNaNaNaa(lp1959
NaNaNaNaNaNaNaNaNaNaNaNaNaNaNaNaNaNaNaNaa(lp1960
NaNaNaNaNaNaNaNaNaNaNaNaNaNaNaNaNaNaNaNaa(lp1961
NaNaNaNaNaNaNaNaNaNaNaNaNaNag13
(g17
S'\x00\x00\x00\x00\x00\xb0P\xc0'
p1962
tp1963
Rp1964
aNaNaNaNaNaa(lp1965
NaNaNaNaNaNaNaNaNaNaNaNaNaNaNaNaNaNaNaNaa(lp1966
NaNaNaNaNaNaNaNaNaNaNaNaNaNaNaNaNaNaNaNaa(lp1967
NaNaNaNaNaNaNaNaNaNaNaNaNaNaNaNaNaNaNaNaa(lp1968
NaNaNaNaNaNaNaNaNaNaNaNaNaNaNaNaNaNaNaNaa(lp1969
NaNaNaNaNaNaNaNaNaNaNaNaNaNaNaNaNaNaNaNaa(lp1970
NaNaNaNaNaNaNaNaNaNaNaNaNaNaNaNaNaNaNaNaa(lp1971
NaNaNaNaNaNaNaNaNaNaNaNaNaNaNaNaNaNaNaNaa(lp1972
NaNaNaNaNaNaNaNaNaNaNaNaNaNaNaNaNaNaNaNaa(lp1973
NaNaNaNaNaNaNaNaNaNaNaNaNaNaNaNaNaNaNaNaa(lp1974
NaNaNaNaNaNaNaNaNaNaNaNaNaNaNaNaNaNaNaNaa(lp1975
NaNaNaNaNaNaNaNaNaNaNaNaNaNaNaNaNaNaNaNaa(lp1976
NaNaNaNaNaNaNaNaNaNaNaNaNaNaNaNaNaNaNaNaa(lp1977
NaNaNaNaNaNaNaNaNaNaNaNaNaNaNaNaNaNaNaNaa(lp1978
NaNaNaNaNaNaNaNaNaNaNaNaNaNaNaNaNaNaNaNaa(lp1979
NaNaNaNaNaNaNaNaNaNaNaNaNaNaNaNaNaNaNaNaa(lp1980
NaNaNaNaNaNaNaNaNaNaNaNaNaNaNaNaNaNaNaNaa(lp1981
NaNaNaNaNaNaNaNaNaNaNaNaNaNaNaNaNaNaNaNaasS'1c:99:4c:bd:b8:c2'
p1982
(lp1983
(lp1984
NaNaNaNaNaNaNaNaNaNaNaNaNaNaNaNaNaNaNaNaa(lp1985
NaNaNaNaNaNaNaNaNaNaNaNaNaNaNaNaNaNaNaNaa(lp1986
NaNaNaNaNaNaNaNaNaNaNaNaNaNaNaNaNaNaNaNaa(lp1987
NaNaNaNaNaNaNaNaNaNaNaNaNaNaNaNaNaNaNaNaa(lp1988
NaNaNaNaNaNaNaNaNaNaNaNaNaNaNaNaNaNaNaNaa(lp1989
NaNaNaNaNaNaNaNaNaNaNaNaNaNaNaNaNaNaNaNaa(lp1990
NaNaNaNaNaNaNaNaNaNaNaNaNaNaNaNaNaNaNaNaa(lp1991
NaNaNaNaNaNaNaNaNaNaNaNaNaNaNaNaNaNaNaNaa(lp1992
NaNaNaNaNaNaNaNaNaNaNaNaNaNaNaNaNaNaNaNaa(lp1993
NaNaNaNaNaNaNaNaNaNaNaNaNag13
(g17
S'\x8e\xe38\x8e\xe3\xf8T\xc0'
p1994
tp1995
Rp1996
ag13
(g17
S'\x00\x00\x00\x00\x00\xe0T\xc0'
p1997
tp1998
Rp1999
aNaNaNaNaNaa(lp2000
NaNaNaNaNaNaNaNaNaNaNaNaNaNag13
(g17
S'\x00\x00\x00\x00\x00\x00V\xc0'
p2001
tp2002
Rp2003
aNaNaNaNaNaa(lp2004
NaNaNaNaNaNaNaNaNaNaNaNaNaNaNaNaNaNaNaNaa(lp2005
NaNaNaNaNaNaNaNaNaNaNaNaNaNaNaNaNaNaNaNaa(lp2006
NaNaNaNaNaNaNaNaNaNaNaNaNaNaNaNaNaNaNaNaa(lp2007
NaNaNaNaNaNaNaNaNaNaNaNaNaNaNaNaNaNaNaNaa(lp2008
NaNaNaNaNaNaNaNaNaNaNaNaNaNaNaNaNaNaNaNaa(lp2009
NaNaNaNaNaNaNaNaNaNaNaNaNaNaNaNaNaNaNaNaa(lp2010
NaNaNaNaNaNaNaNaNaNaNaNaNaNaNaNaNaNaNaNaa(lp2011
NaNaNaNaNaNaNaNaNaNaNaNaNaNaNaNaNaNaNaNaa(lp2012
NaNaNaNaNaNaNaNaNaNaNaNaNaNaNaNaNaNaNaNaa(lp2013
NaNaNaNaNaNaNaNaNaNaNaNaNaNaNaNaNaNaNaNaa(lp2014
NaNaNaNaNaNaNaNaNaNaNaNaNaNaNaNaNaNaNaNaa(lp2015
NaNaNaNaNaNaNaNaNaNaNaNaNaNaNaNaNaNaNaNaa(lp2016
NaNaNaNaNaNaNaNaNaNaNaNaNaNaNaNaNaNaNaNaa(lp2017
NaNaNaNaNaNaNaNaNaNaNaNaNaNaNaNaNaNaNaNaa(lp2018
NaNaNaNaNaNaNaNaNaNaNaNaNaNaNaNaNaNaNaNaa(lp2019
NaNaNaNaNaNaNaNaNaNaNaNaNaNaNaNaNaNaNaNaasS'a0:ed:cd:b6:31:9e'
p2020
(lp2021
(lp2022
NaNaNaNaNaNaNaNaNaNaNaNaNaNaNaNaNaNaNaNaa(lp2023
NaNaNaNaNaNaNaNaNaNaNaNaNaNaNaNaNaNaNaNaa(lp2024
NaNaNaNaNaNaNaNaNaNaNaNaNaNaNaNaNaNaNaNaa(lp2025
NaNaNaNaNaNaNaNaNaNaNaNaNaNaNaNaNaNaNaNaa(lp2026
NaNaNaNaNaNaNaNaNaNaNaNaNaNaNaNaNaNaNaNaa(lp2027
NaNaNaNaNaNaNaNaNaNaNaNaNaNaNaNaNaNaNaNaa(lp2028
NaNaNaNaNaNaNaNaNaNaNaNaNaNaNaNaNaNaNaNaa(lp2029
NaNaNaNaNaNaNaNaNaNaNaNaNaNaNaNaNaNaNaNaa(lp2030
NaNaNaNaNaNaNaNaNaNaNaNaNaNaNaNaNaNaNaNaa(lp2031
NaNaNaNaNaNaNaNaNaNaNaNaNaNag13
(g17
S'\x00\x00\x00\x00\x00\xc0U\xc0'
p2032
tp2033
Rp2034
aNaNaNaNaNaa(lp2035
NaNaNaNaNaNaNaNaNaNaNaNaNaNaNaNaNaNaNaNaa(lp2036
NaNaNaNaNaNaNaNaNaNaNaNaNaNaNaNaNaNaNaNaa(lp2037
NaNaNaNaNaNaNaNaNaNaNaNaNaNaNaNaNaNaNaNaa(lp2038
NaNaNaNaNaNaNaNaNaNaNaNaNaNaNaNaNaNaNaNaa(lp2039
NaNaNaNaNaNaNaNaNaNaNaNaNaNaNaNaNaNaNaNaa(lp2040
NaNaNaNaNaNaNaNaNaNaNaNaNaNaNaNaNaNaNaNaa(lp2041
NaNaNaNaNaNaNaNaNaNaNaNaNaNaNaNaNaNaNaNaa(lp2042
NaNaNaNaNaNaNaNaNaNaNaNaNaNaNaNaNaNaNaNaa(lp2043
NaNaNaNaNaNaNaNaNaNaNaNaNaNaNaNaNaNaNaNaa(lp2044
NaNaNaNaNaNaNaNaNaNaNaNaNaNaNaNaNaNaNaNaa(lp2045
NaNaNaNaNaNaNaNaNaNaNaNaNaNaNaNaNaNaNaNaa(lp2046
NaNaNaNaNaNaNaNaNaNaNaNaNaNaNaNaNaNaNaNaa(lp2047
NaNaNaNaNaNaNaNaNaNaNaNaNaNaNaNaNaNaNaNaa(lp2048
NaNaNaNaNaNaNaNaNaNaNaNaNaNaNaNaNaNaNaNaa(lp2049
NaNaNaNaNaNaNaNaNaNaNaNaNaNaNaNaNaNaNaNaa(lp2050
NaNaNaNaNaNaNaNaNaNaNaNaNaNaNaNaNaNaNaNaa(lp2051
NaNaNaNaNaNaNaNaNaNaNaNaNaNaNaNaNaNaNaNaasS'f8:1e:df:de:ed:27'
p2052
(lp2053
(lp2054
NaNaNaNaNaNaNaNaNaNaNaNaNaNaNaNaNaNaNaNaa(lp2055
NaNaNaNaNaNaNaNaNaNaNaNaNaNaNaNaNaNaNaNaa(lp2056
NaNaNaNaNaNaNaNaNaNaNaNaNaNaNaNaNaNaNaNaa(lp2057
NaNaNaNaNaNaNaNaNaNaNaNaNaNaNaNaNaNaNaNaa(lp2058
NaNaNaNaNaNaNaNaNaNaNaNaNaNaNaNaNaNaNaNaa(lp2059
NaNaNaNaNaNaNaNaNaNaNaNaNaNaNaNaNaNaNaNaa(lp2060
NaNaNaNaNaNaNaNaNaNaNaNaNaNaNaNaNaNaNaNaa(lp2061
NaNaNaNaNaNaNaNaNaNaNaNaNaNaNaNaNaNaNaNaa(lp2062
NaNaNaNaNaNaNaNaNaNaNaNaNaNaNaNaNaNaNaNaa(lp2063
NaNaNaNaNaNaNaNaNaNaNaNaNag13
(g17
S'\x00\x00\x00\x00\x00\x00T\xc0'
p2064
tp2065
Rp2066
aNaNaNaNaNaNaa(lp2067
NaNaNaNaNaNaNaNaNaNaNaNaNaNaNaNaNaNaNaNaa(lp2068
NaNaNaNaNaNaNaNaNaNaNaNaNaNaNaNaNaNaNaNaa(lp2069
NaNaNaNaNaNaNaNaNaNaNaNaNaNaNaNaNaNaNaNaa(lp2070
NaNaNaNaNaNaNaNaNaNaNaNaNaNaNaNaNaNaNaNaa(lp2071
NaNaNaNaNaNaNaNaNaNaNaNaNaNaNaNaNaNaNaNaa(lp2072
NaNaNaNaNaNaNaNaNaNaNaNaNaNaNaNaNaNaNaNaa(lp2073
NaNaNaNaNaNaNaNaNaNaNaNaNaNaNaNaNaNaNaNaa(lp2074
NaNaNaNaNaNaNaNaNaNaNaNaNaNaNaNaNaNaNaNaa(lp2075
NaNaNaNaNaNaNaNaNaNaNaNaNaNaNaNaNaNaNaNaa(lp2076
NaNaNaNaNaNaNaNaNaNaNaNaNaNaNaNaNaNaNaNaa(lp2077
NaNaNaNaNaNaNaNaNaNaNaNaNaNaNaNaNaNaNaNaa(lp2078
NaNaNaNaNaNaNaNaNaNaNaNaNaNaNaNaNaNaNaNaa(lp2079
NaNaNaNaNaNaNaNaNaNaNaNaNaNaNaNaNaNaNaNaa(lp2080
NaNaNaNaNaNaNaNaNaNaNaNaNaNaNaNaNaNaNaNaa(lp2081
NaNaNaNaNaNaNaNaNaNaNaNaNaNaNaNaNaNaNaNaa(lp2082
NaNaNaNaNaNaNaNaNaNaNaNaNaNaNaNaNaNaNaNaa(lp2083
NaNaNaNaNaNaNaNaNaNaNaNaNaNaNaNaNaNaNaNaasS'f8:27:93:60:14:02'
p2084
(lp2085
(lp2086
NaNaNaNaNaNaNaNaNaNaNaNaNaNaNaNaNaNaNaNaa(lp2087
NaNaNaNaNaNaNaNaNaNaNaNaNaNaNaNaNaNaNaNaa(lp2088
NaNaNaNaNaNaNaNaNaNaNaNaNaNaNaNaNaNaNaNaa(lp2089
NaNaNaNaNaNaNaNaNaNaNaNaNaNaNaNaNaNaNaNaa(lp2090
NaNaNaNaNaNaNaNaNaNaNaNaNaNaNaNaNaNaNaNaa(lp2091
NaNaNaNaNaNaNaNaNaNaNaNaNaNaNaNaNaNaNaNaa(lp2092
NaNaNaNaNaNaNaNaNaNaNaNaNaNaNaNaNaNaNaNaa(lp2093
NaNaNaNaNaNaNaNaNaNaNaNaNaNaNaNaNaNaNaNaa(lp2094
NaNaNaNaNaNaNaNaNaNaNaNaNaNaNaNaNaNaNaNaa(lp2095
NaNaNaNaNaNaNaNaNaNaNaNaNaNag13
(g17
S'\x9a\x99\x99\x99\x99YU\xc0'
p2096
tp2097
Rp2098
aNaNaNaNaNaa(lp2099
NaNaNaNaNaNaNaNaNaNaNaNaNaNaNaNaNaNaNaNaa(lp2100
NaNaNaNaNaNaNaNaNaNaNaNaNaNaNaNaNaNaNaNaa(lp2101
NaNaNaNaNaNaNaNaNaNaNaNaNaNaNaNaNaNaNaNaa(lp2102
NaNaNaNaNaNaNaNaNaNaNaNaNaNaNaNaNaNaNaNaa(lp2103
NaNaNaNaNaNaNaNaNaNaNaNaNaNaNaNaNaNaNaNaa(lp2104
NaNaNaNaNaNaNaNaNaNaNaNaNaNaNaNaNaNaNaNaa(lp2105
NaNaNaNaNaNaNaNaNaNaNaNaNaNaNaNaNaNaNaNaa(lp2106
NaNaNaNaNaNaNaNaNaNaNaNaNaNaNaNaNaNaNaNaa(lp2107
NaNaNaNaNaNaNaNaNaNaNaNaNaNaNaNaNaNaNaNaa(lp2108
NaNaNaNaNaNaNaNaNaNaNaNaNaNaNaNaNaNaNaNaa(lp2109
NaNaNaNaNaNaNaNaNaNaNaNaNaNaNaNaNaNaNaNaa(lp2110
NaNaNaNaNaNaNaNaNaNaNaNaNaNaNaNaNaNaNaNaa(lp2111
NaNaNaNaNaNaNaNaNaNaNaNaNaNaNaNaNaNaNaNaa(lp2112
NaNaNaNaNaNaNaNaNaNaNaNaNaNaNaNaNaNaNaNaa(lp2113
NaNaNaNaNaNaNaNaNaNaNaNaNaNaNaNaNaNaNaNaa(lp2114
NaNaNaNaNaNaNaNaNaNaNaNaNaNaNaNaNaNaNaNaa(lp2115
NaNaNaNaNaNaNaNaNaNaNaNaNaNaNaNaNaNaNaNaasS'00:1f:f3:bd:56:72'
p2116
(lp2117
(lp2118
NaNaNaNaNaNaNaNaNaNaNaNaNaNaNaNaNaNaNaNaa(lp2119
NaNaNaNaNaNaNaNaNaNaNaNaNaNaNaNaNaNaNaNaa(lp2120
NaNaNaNaNaNaNaNaNaNaNaNaNaNaNaNaNaNaNaNaa(lp2121
NaNaNaNaNaNaNaNaNaNaNaNaNaNaNaNaNaNaNaNaa(lp2122
NaNaNaNaNaNaNaNaNaNaNaNaNaNaNaNaNaNaNaNaa(lp2123
NaNaNaNaNaNaNaNaNaNaNaNaNaNaNaNaNaNaNaNaa(lp2124
NaNaNaNaNaNaNaNaNaNaNaNaNaNaNaNaNaNaNaNaa(lp2125
NaNaNaNaNaNaNaNaNaNaNaNaNaNaNaNaNaNaNaNaa(lp2126
NaNaNaNaNaNaNaNaNaNaNaNaNaNaNaNaNaNaNaNaa(lp2127
NaNaNaNaNaNaNaNaNaNaNaNaNag13
(g17
S'fffff&U\xc0'
p2128
tp2129
Rp2130
ag13
(g17
S'\xe9\xa2\x8b.\xba\xa8U\xc0'
p2131
tp2132
Rp2133
aNaNaNaNaNaa(lp2134
NaNaNaNaNaNaNaNaNaNaNaNaNaNag13
(g17
S'9\x8e\xe38\x8e\xe3T\xc0'
p2135
tp2136
Rp2137
ag13
(g17
S'fffff\xa6U\xc0'
p2138
tp2139
Rp2140
aNaNaNaNaa(lp2141
NaNaNaNaNaNaNaNaNaNaNaNaNaNaNaNaNaNaNaNaa(lp2142
NaNaNaNaNaNaNaNaNaNaNaNaNaNaNaNaNaNaNaNaa(lp2143
NaNaNaNaNaNaNaNaNaNaNaNaNaNaNaNaNaNaNaNaa(lp2144
NaNaNaNaNaNaNaNaNaNaNaNaNaNaNaNaNaNaNaNaa(lp2145
NaNaNaNaNaNaNaNaNaNaNaNaNaNaNaNaNaNaNaNaa(lp2146
NaNaNaNaNaNaNaNaNaNaNaNaNaNaNaNaNaNaNaNaa(lp2147
NaNaNaNaNaNaNaNaNaNaNaNaNaNaNaNaNaNaNaNaa(lp2148
NaNaNaNaNaNaNaNaNaNaNaNaNaNaNaNaNaNaNaNaa(lp2149
NaNaNaNaNaNaNaNaNaNaNaNaNaNaNaNaNaNaNaNaa(lp2150
NaNaNaNaNaNaNaNaNaNaNaNaNaNaNaNaNaNaNaNaa(lp2151
NaNaNaNaNaNaNaNaNaNaNaNaNaNaNaNaNaNaNaNaa(lp2152
NaNaNaNaNaNaNaNaNaNaNaNaNaNaNaNaNaNaNaNaa(lp2153
NaNaNaNaNaNaNaNaNaNaNaNaNaNaNaNaNaNaNaNaa(lp2154
NaNaNaNaNaNaNaNaNaNaNaNaNaNaNaNaNaNaNaNaa(lp2155
NaNaNaNaNaNaNaNaNaNaNaNaNaNaNaNaNaNaNaNaa(lp2156
NaNaNaNaNaNaNaNaNaNaNaNaNaNaNaNaNaNaNaNaasS'e8:92:a4:93:88:8b'
p2157
(lp2158
(lp2159
NaNaNaNaNaNaNaNaNaNaNaNaNaNaNaNaNaNaNaNaa(lp2160
NaNaNaNaNaNaNaNaNaNaNaNaNaNaNaNaNaNaNaNaa(lp2161
NaNaNaNaNaNaNaNaNaNaNaNaNaNaNaNaNaNaNaNaa(lp2162
NaNaNaNaNaNaNaNaNaNaNaNaNaNaNaNaNaNaNaNaa(lp2163
NaNaNaNaNaNaNaNaNaNaNaNaNaNaNaNaNaNaNaNaa(lp2164
NaNaNaNaNaNaNaNaNaNaNaNaNaNaNaNaNaNaNaNaa(lp2165
NaNaNaNaNaNaNaNaNaNaNaNaNaNaNaNaNaNaNaNaa(lp2166
NaNaNaNaNaNaNaNaNaNaNaNaNaNaNaNaNaNaNaNaa(lp2167
NaNaNaNaNaNaNaNaNaNaNaNaNaNaNaNaNaNaNaNaa(lp2168
NaNaNaNaNaNaNaNaNaNaNaNaNaNag13
(g17
S'\x00\x00\x00\x00\x00\xc0U\xc0'
p2169
tp2170
Rp2171
aNaNaNaNaNaa(lp2172
NaNaNaNaNaNaNaNaNaNaNaNaNaNaNag13
(g17
S'33333\xb3P\xc0'
p2173
tp2174
Rp2175
aNaNaNaNaa(lp2176
NaNaNaNaNaNaNaNaNaNaNaNaNaNaNaNaNaNaNaNaa(lp2177
NaNaNaNaNaNaNaNaNaNaNaNaNaNaNaNaNaNaNaNaa(lp2178
NaNaNaNaNaNaNaNaNaNaNaNaNaNaNaNaNaNaNaNaa(lp2179
NaNaNaNaNaNaNaNaNaNaNaNaNaNaNaNaNaNaNaNaa(lp2180
NaNaNaNaNaNaNaNaNaNaNaNaNaNaNaNaNaNaNaNaa(lp2181
NaNaNaNaNaNaNaNaNaNaNaNaNaNaNaNaNaNaNaNaa(lp2182
NaNaNaNaNaNaNaNaNaNaNaNaNaNaNaNaNaNaNaNaa(lp2183
NaNaNaNaNaNaNaNaNaNaNaNaNaNaNaNaNaNaNaNaa(lp2184
NaNaNaNaNaNaNaNaNaNaNaNaNaNaNaNaNaNaNaNaa(lp2185
NaNaNaNaNaNaNaNaNaNaNaNaNaNaNaNaNaNaNaNaa(lp2186
NaNaNaNaNaNaNaNaNaNaNaNaNaNaNaNaNaNaNaNaa(lp2187
NaNaNaNaNaNaNaNaNaNaNaNaNaNaNaNaNaNaNaNaa(lp2188
NaNaNaNaNaNaNaNaNaNaNaNaNaNaNaNaNaNaNaNaa(lp2189
NaNaNaNaNaNaNaNaNaNaNaNaNaNaNaNaNaNaNaNaa(lp2190
NaNaNaNaNaNaNaNaNaNaNaNaNaNaNaNaNaNaNaNaa(lp2191
NaNaNaNaNaNaNaNaNaNaNaNaNaNaNaNaNaNaNaNaasS'ec:35:86:39:cf:32'
p2192
(lp2193
(lp2194
NaNaNaNaNaNaNaNaNaNaNaNaNaNaNaNaNaNaNaNaa(lp2195
NaNaNaNaNaNaNaNaNaNaNaNaNaNaNaNaNaNaNaNaa(lp2196
NaNaNaNaNaNaNaNaNaNaNaNaNaNaNaNaNaNaNaNaa(lp2197
NaNaNaNaNaNaNaNaNaNaNaNaNaNaNaNaNaNaNaNaa(lp2198
NaNaNaNaNaNaNaNaNaNaNaNaNaNaNaNaNaNaNaNaa(lp2199
NaNaNaNaNaNaNaNaNaNaNaNaNaNaNaNaNaNaNaNaa(lp2200
NaNaNaNaNaNaNaNaNaNaNaNaNaNaNaNaNaNaNaNaa(lp2201
NaNaNaNaNaNaNaNaNaNaNaNaNaNaNaNaNaNaNaNaa(lp2202
NaNaNaNaNaNaNaNaNaNaNaNaNaNaNaNaNaNaNaNaa(lp2203
NaNaNaNaNaNaNaNaNaNaNaNaNaNaNaNaNaNaNaNaa(lp2204
NaNaNaNaNaNaNaNaNaNaNaNaNaNag13
(g17
S'\x00\x00\x00\x00\x00\x00U\xc0'
p2205
tp2206
Rp2207
aNaNaNaNaNaa(lp2208
NaNaNaNaNaNaNaNaNaNaNaNaNaNaNaNaNaNaNaNaa(lp2209
NaNaNaNaNaNaNaNaNaNaNaNaNaNaNaNaNaNaNaNaa(lp2210
NaNaNaNaNaNaNaNaNaNaNaNaNaNaNaNaNaNaNaNaa(lp2211
NaNaNaNaNaNaNaNaNaNaNaNaNaNaNaNaNaNaNaNaa(lp2212
NaNaNaNaNaNaNaNaNaNaNaNaNaNaNaNaNaNaNaNaa(lp2213
NaNaNaNaNaNaNaNaNaNaNaNaNaNaNaNaNaNaNaNaa(lp2214
NaNaNaNaNaNaNaNaNaNaNaNaNaNaNaNaNaNaNaNaa(lp2215
NaNaNaNaNaNaNaNaNaNaNaNaNaNaNaNaNaNaNaNaa(lp2216
NaNaNaNaNaNaNaNaNaNaNaNaNaNaNaNaNaNaNaNaa(lp2217
NaNaNaNaNaNaNaNaNaNaNaNaNaNaNaNaNaNaNaNaa(lp2218
NaNaNaNaNaNaNaNaNaNaNaNaNaNaNaNaNaNaNaNaa(lp2219
NaNaNaNaNaNaNaNaNaNaNaNaNaNaNaNaNaNaNaNaa(lp2220
NaNaNaNaNaNaNaNaNaNaNaNaNaNaNaNaNaNaNaNaa(lp2221
NaNaNaNaNaNaNaNaNaNaNaNaNaNaNaNaNaNaNaNaa(lp2222
NaNaNaNaNaNaNaNaNaNaNaNaNaNaNaNaNaNaNaNaa(lp2223
NaNaNaNaNaNaNaNaNaNaNaNaNaNaNaNaNaNaNaNaasS'38:b1:db:79:ea:fb'
p2224
(lp2225
(lp2226
NaNaNaNaNaNaNaNaNaNaNaNaNaNaNaNaNaNaNaNaa(lp2227
NaNaNaNaNaNaNaNaNaNaNaNaNaNaNaNaNaNaNaNaa(lp2228
NaNaNaNaNaNaNaNaNaNaNaNaNaNaNaNaNaNaNaNaa(lp2229
NaNaNaNaNaNaNaNaNaNaNaNaNaNaNaNaNaNaNaNaa(lp2230
NaNaNaNaNaNaNaNaNaNaNaNaNaNaNaNaNaNaNaNaa(lp2231
NaNaNaNaNaNaNaNaNaNaNaNaNaNaNaNaNaNaNaNaa(lp2232
NaNaNaNaNaNaNaNaNaNaNaNaNaNaNaNaNaNaNaNaa(lp2233
NaNaNaNaNaNaNaNaNaNaNaNaNaNaNaNaNaNaNaNaa(lp2234
NaNaNaNaNaNaNaNaNaNaNaNaNaNaNaNaNaNaNaNaa(lp2235
NaNaNaNaNaNaNaNaNaNaNaNaNaNag13
(g17
S'F\x17]t\xd1%U\xc0'
p2236
tp2237
Rp2238
aNaNaNaNaNaa(lp2239
NaNaNaNaNaNaNaNaNaNaNaNaNaNaNaNaNaNaNaNaa(lp2240
NaNaNaNaNaNaNaNaNaNaNaNaNaNaNaNaNaNaNaNaa(lp2241
NaNaNaNaNaNaNaNaNaNaNaNaNaNaNaNaNaNaNaNaa(lp2242
NaNaNaNaNaNaNaNaNaNaNaNaNaNaNaNaNaNaNaNaa(lp2243
NaNaNaNaNaNaNaNaNaNaNaNaNaNaNaNaNaNaNaNaa(lp2244
NaNaNaNaNaNaNaNaNaNaNaNaNaNaNaNaNaNaNaNaa(lp2245
NaNaNaNaNaNaNaNaNaNaNaNaNaNaNaNaNaNaNaNaa(lp2246
NaNaNaNaNaNaNaNaNaNaNaNaNaNaNaNaNaNaNaNaa(lp2247
NaNaNaNaNaNaNaNaNaNaNaNaNaNaNaNaNaNaNaNaa(lp2248
NaNaNaNaNaNaNaNaNaNaNaNaNaNaNaNaNaNaNaNaa(lp2249
NaNaNaNaNaNaNaNaNaNaNaNaNaNaNaNaNaNaNaNaa(lp2250
NaNaNaNaNaNaNaNaNaNaNaNaNaNaNaNaNaNaNaNaa(lp2251
NaNaNaNaNaNaNaNaNaNaNaNaNaNaNaNaNaNaNaNaa(lp2252
NaNaNaNaNaNaNaNaNaNaNaNaNaNaNaNaNaNaNaNaa(lp2253
NaNaNaNaNaNaNaNaNaNaNaNaNaNaNaNaNaNaNaNaa(lp2254
NaNaNaNaNaNaNaNaNaNaNaNaNaNaNaNaNaNaNaNaa(lp2255
NaNaNaNaNaNaNaNaNaNaNaNaNaNaNaNaNaNaNaNaasS'9c:f3:87:4f:66:53'
p2256
(lp2257
(lp2258
NaNaNaNaNaNaNaNaNaNaNaNaNaNaNaNaNaNaNaNaa(lp2259
NaNaNaNaNaNaNaNaNaNaNaNaNaNaNaNaNaNaNaNaa(lp2260
NaNaNaNaNaNaNaNaNaNaNaNaNaNaNaNaNaNaNaNaa(lp2261
NaNaNaNaNaNaNaNaNaNaNaNaNaNaNaNaNaNaNaNaa(lp2262
NaNaNaNaNaNaNaNaNaNaNaNaNaNaNaNaNaNaNaNaa(lp2263
NaNaNaNaNaNaNaNaNaNaNaNaNaNaNaNaNaNaNaNaa(lp2264
NaNaNaNaNaNaNaNaNaNaNaNaNaNaNaNaNaNaNaNaa(lp2265
NaNaNaNaNaNaNaNaNaNaNaNaNaNaNaNaNaNaNaNaa(lp2266
NaNaNaNaNaNaNaNaNaNaNaNaNaNaNaNaNaNaNaNaa(lp2267
NaNaNaNaNaNaNaNaNaNaNaNaNag13
(g17
S'\x00\x00\x00\x00\x00\x80T\xc0'
p2268
tp2269
Rp2270
aNaNaNaNaNaNaa(lp2271
NaNaNaNaNaNaNaNaNaNaNaNaNaNaNaNaNaNaNaNaa(lp2272
NaNaNaNaNaNaNaNaNaNaNaNaNaNaNaNaNaNaNaNaa(lp2273
NaNaNaNaNaNaNaNaNaNaNaNaNaNaNaNaNaNaNaNaa(lp2274
NaNaNaNaNaNaNaNaNaNaNaNaNaNaNaNaNaNaNaNaa(lp2275
NaNaNaNaNaNaNaNaNaNaNaNaNaNaNaNaNaNaNaNaa(lp2276
NaNaNaNaNaNaNaNaNaNaNaNaNaNaNaNaNaNaNaNaa(lp2277
NaNaNaNaNaNaNaNaNaNaNaNaNaNaNaNaNaNaNaNaa(lp2278
NaNaNaNaNaNaNaNaNaNaNaNaNaNaNaNaNaNaNaNaa(lp2279
NaNaNaNaNaNaNaNaNaNaNaNaNaNaNaNaNaNaNaNaa(lp2280
NaNaNaNaNaNaNaNaNaNaNaNaNaNaNaNaNaNaNaNaa(lp2281
NaNaNaNaNaNaNaNaNaNaNaNaNaNaNaNaNaNaNaNaa(lp2282
NaNaNaNaNaNaNaNaNaNaNaNaNaNaNaNaNaNaNaNaa(lp2283
NaNaNaNaNaNaNaNaNaNaNaNaNaNaNaNaNaNaNaNaa(lp2284
NaNaNaNaNaNaNaNaNaNaNaNaNaNaNaNaNaNaNaNaa(lp2285
NaNaNaNaNaNaNaNaNaNaNaNaNaNaNaNaNaNaNaNaa(lp2286
NaNaNaNaNaNaNaNaNaNaNaNaNaNaNaNaNaNaNaNaa(lp2287
NaNaNaNaNaNaNaNaNaNaNaNaNaNaNaNaNaNaNaNaasS'90:72:40:f0:67:5a'
p2288
(lp2289
(lp2290
NaNaNaNaNaNaNaNaNaNaNaNaNaNaNaNaNaNaNaNaa(lp2291
NaNaNaNaNaNaNaNaNaNaNaNaNaNaNaNaNaNaNaNaa(lp2292
NaNaNaNaNaNaNaNaNaNaNaNaNaNaNaNaNaNaNaNaa(lp2293
NaNaNaNaNaNaNaNaNaNaNaNaNaNaNaNaNaNaNaNaa(lp2294
NaNaNaNaNaNaNaNaNaNaNaNaNaNaNaNaNaNaNaNaa(lp2295
NaNaNaNaNaNaNaNaNaNaNaNaNaNaNaNaNaNaNaNaa(lp2296
NaNaNaNaNaNaNaNaNaNaNaNaNaNaNaNaNaNaNaNaa(lp2297
NaNaNaNaNaNaNaNaNaNaNaNaNaNaNaNaNaNaNaNaa(lp2298
NaNaNaNaNaNaNaNaNaNaNaNaNaNaNaNaNaNaNaNaa(lp2299
NaNaNaNaNaNaNaNaNaNaNaNaNag13
(g17
S'\x00\x00\x00\x00\x00\x80V\xc0'
p2300
tp2301
Rp2302
aNaNaNaNaNaNaa(lp2303
NaNaNaNaNaNaNaNaNaNaNaNaNaNaNaNaNaNaNaNaa(lp2304
NaNaNaNaNaNaNaNaNaNaNaNaNaNaNaNaNaNaNaNaa(lp2305
NaNaNaNaNaNaNaNaNaNaNaNaNaNaNaNaNaNaNaNaa(lp2306
NaNaNaNaNaNaNaNaNaNaNaNaNaNaNaNaNaNaNaNaa(lp2307
NaNaNaNaNaNaNaNaNaNaNaNaNaNaNaNaNaNaNaNaa(lp2308
NaNaNaNaNaNaNaNaNaNaNaNaNaNaNaNaNaNaNaNaa(lp2309
NaNaNaNaNaNaNaNaNaNaNaNaNaNaNaNaNaNaNaNaa(lp2310
NaNaNaNaNaNaNaNaNaNaNaNaNaNaNaNaNaNaNaNaa(lp2311
NaNaNaNaNaNaNaNaNaNaNaNaNaNaNaNaNaNaNaNaa(lp2312
NaNaNaNaNaNaNaNaNaNaNaNaNaNaNaNaNaNaNaNaa(lp2313
NaNaNaNaNaNaNaNaNaNaNaNaNaNaNaNaNaNaNaNaa(lp2314
NaNaNaNaNaNaNaNaNaNaNaNaNaNaNaNaNaNaNaNaa(lp2315
NaNaNaNaNaNaNaNaNaNaNaNaNaNaNaNaNaNaNaNaa(lp2316
NaNaNaNaNaNaNaNaNaNaNaNaNaNaNaNaNaNaNaNaa(lp2317
NaNaNaNaNaNaNaNaNaNaNaNaNaNaNaNaNaNaNaNaa(lp2318
NaNaNaNaNaNaNaNaNaNaNaNaNaNaNaNaNaNaNaNaa(lp2319
NaNaNaNaNaNaNaNaNaNaNaNaNaNaNaNaNaNaNaNaasS'8c:3a:e3:96:d5:0e'
p2320
(lp2321
(lp2322
NaNaNaNaNaNaNaNaNaNaNaNaNaNaNaNaNaNaNaNaa(lp2323
NaNaNaNaNaNaNaNaNaNaNaNaNaNaNaNaNaNaNaNaa(lp2324
NaNaNaNaNaNaNaNaNaNaNaNaNaNaNaNaNaNaNaNaa(lp2325
NaNaNaNaNaNaNaNaNaNaNaNaNaNaNaNaNaNaNaNaa(lp2326
NaNaNaNaNaNaNaNaNaNaNaNaNaNaNaNaNaNaNaNaa(lp2327
NaNaNaNaNaNaNaNaNaNaNaNaNaNaNaNaNaNaNaNaa(lp2328
NaNaNaNaNaNaNaNaNaNaNaNaNaNaNaNaNaNaNaNaa(lp2329
NaNaNaNaNaNaNaNaNaNaNaNaNaNaNaNaNaNaNaNaa(lp2330
NaNaNaNaNaNaNaNaNaNaNaNaNaNaNaNaNaNaNaNaa(lp2331
NaNaNaNaNaNaNaNaNaNaNaNaNaNag13
(g17
S'\x00\x00\x00\x00\x00 V\xc0'
p2332
tp2333
Rp2334
aNaNaNaNaNaa(lp2335
NaNaNaNaNaNaNaNaNaNaNaNaNaNaNaNaNaNaNaNaa(lp2336
NaNaNaNaNaNaNaNaNaNaNaNaNaNaNaNaNaNaNaNaa(lp2337
NaNaNaNaNaNaNaNaNaNaNaNaNaNaNaNaNaNaNaNaa(lp2338
NaNaNaNaNaNaNaNaNaNaNaNaNaNaNaNaNaNaNaNaa(lp2339
NaNaNaNaNaNaNaNaNaNaNaNaNaNaNaNaNaNaNaNaa(lp2340
NaNaNaNaNaNaNaNaNaNaNaNaNaNaNaNaNaNaNaNaa(lp2341
NaNaNaNaNaNaNaNaNaNaNaNaNaNaNaNaNaNaNaNaa(lp2342
NaNaNaNaNaNaNaNaNaNaNaNaNaNaNaNaNaNaNaNaa(lp2343
NaNaNaNaNaNaNaNaNaNaNaNaNaNaNaNaNaNaNaNaa(lp2344
NaNaNaNaNaNaNaNaNaNaNaNaNaNaNaNaNaNaNaNaa(lp2345
NaNaNaNaNaNaNaNaNaNaNaNaNaNaNaNaNaNaNaNaa(lp2346
NaNaNaNaNaNaNaNaNaNaNaNaNaNaNaNaNaNaNaNaa(lp2347
NaNaNaNaNaNaNaNaNaNaNaNaNaNaNaNaNaNaNaNaa(lp2348
NaNaNaNaNaNaNaNaNaNaNaNaNaNaNaNaNaNaNaNaa(lp2349
NaNaNaNaNaNaNaNaNaNaNaNaNaNaNaNaNaNaNaNaa(lp2350
NaNaNaNaNaNaNaNaNaNaNaNaNaNaNaNaNaNaNaNaa(lp2351
NaNaNaNaNaNaNaNaNaNaNaNaNaNaNaNaNaNaNaNaasS'88:32:9b:8c:0c:eb'
p2352
(lp2353
(lp2354
NaNaNaNaNaNaNaNaNaNaNaNaNaNaNaNaNaNaNaNaa(lp2355
NaNaNaNaNaNaNaNaNaNaNaNaNaNaNaNaNaNaNaNaa(lp2356
NaNaNaNaNaNaNaNaNaNaNaNaNaNaNaNaNaNaNaNaa(lp2357
NaNaNaNaNaNaNaNaNaNaNaNaNaNaNaNaNaNaNaNaa(lp2358
NaNaNaNaNaNaNaNaNaNaNaNaNaNaNaNaNaNaNaNaa(lp2359
NaNaNaNaNaNaNaNaNaNaNaNaNaNaNaNaNaNaNaNaa(lp2360
NaNaNaNaNaNaNaNaNaNaNaNaNaNaNaNaNaNaNaNaa(lp2361
NaNaNaNaNaNaNaNaNaNaNaNaNaNaNaNaNaNaNaNaa(lp2362
NaNaNaNaNaNaNaNaNaNaNaNaNaNaNaNaNaNaNaNaa(lp2363
NaNaNaNaNaNaNaNaNaNaNaNaNaNaNaNaNaNaNaNaa(lp2364
NaNaNaNaNaNaNaNaNaNaNaNaNaNag13
(g17
S'\x00\x00\x00\x00\x00\x10V\xc0'
p2365
tp2366
Rp2367
aNaNaNaNaNaa(lp2368
NaNaNaNaNaNaNaNaNaNaNaNaNaNaNaNaNaNaNaNaa(lp2369
NaNaNaNaNaNaNaNaNaNaNaNaNaNaNaNaNaNaNaNaa(lp2370
NaNaNaNaNaNaNaNaNaNaNaNaNaNaNaNaNaNaNaNaa(lp2371
NaNaNaNaNaNaNaNaNaNaNaNaNaNaNaNaNaNaNaNaa(lp2372
NaNaNaNaNaNaNaNaNaNaNaNaNaNaNaNaNaNaNaNaa(lp2373
NaNaNaNaNaNaNaNaNaNaNaNaNaNaNaNaNaNaNaNaa(lp2374
NaNaNaNaNaNaNaNaNaNaNaNaNaNaNaNaNaNaNaNaa(lp2375
NaNaNaNaNaNaNaNaNaNaNaNaNaNaNaNaNaNaNaNaa(lp2376
NaNaNaNaNaNaNaNaNaNaNaNaNaNaNaNaNaNaNaNaa(lp2377
NaNaNaNaNaNaNaNaNaNaNaNaNaNaNaNaNaNaNaNaa(lp2378
NaNaNaNaNaNaNaNaNaNaNaNaNaNaNaNaNaNaNaNaa(lp2379
NaNaNaNaNaNaNaNaNaNaNaNaNaNaNaNaNaNaNaNaa(lp2380
NaNaNaNaNaNaNaNaNaNaNaNaNaNaNaNaNaNaNaNaa(lp2381
NaNaNaNaNaNaNaNaNaNaNaNaNaNaNaNaNaNaNaNaa(lp2382
NaNaNaNaNaNaNaNaNaNaNaNaNaNaNaNaNaNaNaNaa(lp2383
NaNaNaNaNaNaNaNaNaNaNaNaNaNaNaNaNaNaNaNaasS'28:cf:e9:59:73:d9'
p2384
(lp2385
(lp2386
NaNaNaNaNaNaNaNaNaNaNaNaNaNaNaNaNaNaNaNaa(lp2387
NaNaNaNaNaNaNaNaNaNaNaNaNaNaNaNaNaNaNaNaa(lp2388
NaNaNaNaNaNaNaNaNaNaNaNaNaNaNaNaNaNaNaNaa(lp2389
NaNaNaNaNaNaNaNaNaNaNaNaNaNaNaNaNaNaNaNaa(lp2390
NaNaNaNaNaNaNaNaNaNaNaNaNaNaNaNaNaNaNaNaa(lp2391
NaNaNaNaNaNaNaNaNaNaNaNaNaNaNaNaNaNaNaNaa(lp2392
NaNaNaNaNaNaNaNaNaNaNaNaNaNaNaNaNaNaNaNaa(lp2393
NaNaNaNaNaNaNaNaNaNaNaNaNaNaNaNaNaNaNaNaa(lp2394
NaNaNaNaNaNaNaNaNaNaNaNaNaNaNaNaNaNaNaNaa(lp2395
NaNaNaNaNaNaNaNaNaNaNaNaNaNag13
(g17
S'\x00\x00\x00\x00\x00\x80R\xc0'
p2396
tp2397
Rp2398
aNaNaNaNaNaa(lp2399
NaNaNaNaNaNaNaNaNaNaNaNaNaNaNag13
(g17
S'\x00\x00\x00\x00\x00\xc0Q\xc0'
p2400
tp2401
Rp2402
aNaNaNaNaa(lp2403
NaNaNaNaNaNaNaNaNaNaNaNaNaNaNaNaNaNaNaNaa(lp2404
NaNaNaNaNaNaNaNaNaNaNaNaNaNaNaNaNaNaNaNaa(lp2405
NaNaNaNaNaNaNaNaNaNaNaNaNaNaNaNaNaNaNaNaa(lp2406
NaNaNaNaNaNaNaNaNaNaNaNaNaNaNaNaNaNaNaNaa(lp2407
NaNaNaNaNaNaNaNaNaNaNaNaNaNaNaNaNaNaNaNaa(lp2408
NaNaNaNaNaNaNaNaNaNaNaNaNaNaNaNaNaNaNaNaa(lp2409
NaNaNaNaNaNaNaNaNaNaNaNaNaNaNaNaNaNaNaNaa(lp2410
NaNaNaNaNaNaNaNaNaNaNaNaNaNaNaNaNaNaNaNaa(lp2411
NaNaNaNaNaNaNaNaNaNaNaNaNaNaNaNaNaNaNaNaa(lp2412
NaNaNaNaNaNaNaNaNaNaNaNaNaNaNaNaNaNaNaNaa(lp2413
NaNaNaNaNaNaNaNaNaNaNaNaNaNaNaNaNaNaNaNaa(lp2414
NaNaNaNaNaNaNaNaNaNaNaNaNaNaNaNaNaNaNaNaa(lp2415
NaNaNaNaNaNaNaNaNaNaNaNaNaNaNaNaNaNaNaNaa(lp2416
NaNaNaNaNaNaNaNaNaNaNaNaNaNaNaNaNaNaNaNaa(lp2417
NaNaNaNaNaNaNaNaNaNaNaNaNaNaNaNaNaNaNaNaa(lp2418
NaNaNaNaNaNaNaNaNaNaNaNaNaNaNaNaNaNaNaNaasS'00:16:b6:b2:c0:8d'
p2419
(lp2420
(lp2421
NaNaNaNaNaNaNaNaNaNaNaNaNaNaNaNaNaNaNaNaa(lp2422
NaNaNaNaNaNaNaNaNaNaNaNaNaNaNaNaNaNaNaNaa(lp2423
NaNaNaNaNaNaNaNaNaNaNaNaNaNaNaNaNaNaNaNaa(lp2424
NaNaNaNaNaNaNaNaNaNaNaNaNaNaNaNaNaNaNaNaa(lp2425
NaNaNaNaNaNaNaNaNaNaNaNaNaNaNaNaNaNaNaNaa(lp2426
NaNaNaNaNaNaNaNaNaNaNaNaNaNaNaNaNaNaNaNaa(lp2427
NaNaNaNaNaNaNaNaNaNaNaNaNaNaNaNaNaNaNaNaa(lp2428
NaNaNaNaNaNaNaNaNaNaNaNaNaNaNaNaNaNaNaNaa(lp2429
NaNaNaNaNaNaNaNaNaNaNaNaNaNaNaNaNaNaNaNaa(lp2430
NaNaNaNaNaNaNaNaNaNaNaNaNag13
(g17
S'\x00\x00\x00\x00\x00 V\xc0'
p2431
tp2432
Rp2433
ag13
(g17
S'n\xdb\xb6m\xdb\xb6U\xc0'
p2434
tp2435
Rp2436
aNaNaNaNaNaa(lp2437
NaNaNaNaNaNaNaNaNaNaNaNaNaNag13
(g17
S'\x00\x00\x00\x00\x00\xa0V\xc0'
p2438
tp2439
Rp2440
ag13
(g17
S'\x00\x00\x00\x00\x00\xc0U\xc0'
p2441
tp2442
Rp2443
aNaNaNaNaa(lp2444
NaNaNaNaNaNaNaNaNaNaNaNaNaNaNaNaNaNaNaNaa(lp2445
NaNaNaNaNaNaNaNaNaNaNaNaNaNaNaNaNaNaNaNaa(lp2446
NaNaNaNaNaNaNaNaNaNaNaNaNaNaNaNaNaNaNaNaa(lp2447
NaNaNaNaNaNaNaNaNaNaNaNaNaNaNaNaNaNaNaNaa(lp2448
NaNaNaNaNaNaNaNaNaNaNaNaNaNaNaNaNaNaNaNaa(lp2449
NaNaNaNaNaNaNaNaNaNaNaNaNaNaNaNaNaNaNaNaa(lp2450
NaNaNaNaNaNaNaNaNaNaNaNaNaNaNaNaNaNaNaNaa(lp2451
NaNaNaNaNaNaNaNaNaNaNaNaNaNaNaNaNaNaNaNaa(lp2452
NaNaNaNaNaNaNaNaNaNaNaNaNaNaNaNaNaNaNaNaa(lp2453
NaNaNaNaNaNaNaNaNaNaNaNaNaNaNaNaNaNaNaNaa(lp2454
NaNaNaNaNaNaNaNaNaNaNaNaNaNaNaNaNaNaNaNaa(lp2455
NaNaNaNaNaNaNaNaNaNaNaNaNaNaNaNaNaNaNaNaa(lp2456
NaNaNaNaNaNaNaNaNaNaNaNaNaNaNaNaNaNaNaNaa(lp2457
NaNaNaNaNaNaNaNaNaNaNaNaNaNaNaNaNaNaNaNaa(lp2458
NaNaNaNaNaNaNaNaNaNaNaNaNaNaNaNaNaNaNaNaa(lp2459
NaNaNaNaNaNaNaNaNaNaNaNaNaNaNaNaNaNaNaNaasS'90:4c:e5:6f:f9:83'
p2460
(lp2461
(lp2462
NaNaNaNaNaNaNaNaNaNaNaNaNaNaNaNaNaNaNaNaa(lp2463
NaNaNaNaNaNaNaNaNaNaNaNaNaNaNaNaNaNaNaNaa(lp2464
NaNaNaNaNaNaNaNaNaNaNaNaNaNaNaNaNaNaNaNaa(lp2465
NaNaNaNaNaNaNaNaNaNaNaNaNaNaNaNaNaNaNaNaa(lp2466
NaNaNaNaNaNaNaNaNaNaNaNaNaNaNaNaNaNaNaNaa(lp2467
NaNaNaNaNaNaNaNaNaNaNaNaNaNaNaNaNaNaNaNaa(lp2468
NaNaNaNaNaNaNaNaNaNaNaNaNaNaNaNaNaNaNaNaa(lp2469
NaNaNaNaNaNaNaNaNaNaNaNaNaNaNaNaNaNaNaNaa(lp2470
NaNaNaNaNaNaNaNaNaNaNaNaNaNaNaNaNaNaNaNaa(lp2471
NaNaNaNaNaNaNaNaNaNaNaNaNaNag13
(g17
S'\x00\x00\x00\x00\x00\x00\x10@'
p2472
tp2473
Rp2474
aNaNaNaNaNaa(lp2475
NaNaNaNaNaNaNaNaNaNaNaNaNaNag13
(g17
S'/\xba\xe8\xa2\x8b.P\xc0'
p2476
tp2477
Rp2478
aNaNaNaNaNaa(lp2479
NaNaNaNaNaNaNaNaNaNaNaNaNaNaNaNaNaNaNaNaa(lp2480
NaNaNaNaNaNaNaNaNaNaNaNaNaNaNaNaNaNaNaNaa(lp2481
NaNaNaNaNaNaNaNaNaNaNaNaNaNaNaNaNaNaNaNaa(lp2482
NaNaNaNaNaNaNaNaNaNaNaNaNaNaNaNaNaNaNaNaa(lp2483
NaNaNaNaNaNaNaNaNaNaNaNaNaNaNaNaNaNaNaNaa(lp2484
NaNaNaNaNaNaNaNaNaNaNaNaNaNaNaNaNaNaNaNaa(lp2485
NaNaNaNaNaNaNaNaNaNaNaNaNaNaNaNaNaNaNaNaa(lp2486
NaNaNaNaNaNaNaNaNaNaNaNaNaNaNaNaNaNaNaNaa(lp2487
NaNaNaNaNaNaNaNaNaNaNaNaNaNaNaNaNaNaNaNaa(lp2488
NaNaNaNaNaNaNaNaNaNaNaNaNaNaNaNaNaNaNaNaa(lp2489
NaNaNaNaNaNaNaNaNaNaNaNaNaNaNaNaNaNaNaNaa(lp2490
NaNaNaNaNaNaNaNaNaNaNaNaNaNaNaNaNaNaNaNaa(lp2491
NaNaNaNaNaNaNaNaNaNaNaNaNaNaNaNaNaNaNaNaa(lp2492
NaNaNaNaNaNaNaNaNaNaNaNaNaNaNaNaNaNaNaNaa(lp2493
NaNaNaNaNaNaNaNaNaNaNaNaNaNaNaNaNaNaNaNaa(lp2494
NaNaNaNaNaNaNaNaNaNaNaNaNaNaNaNaNaNaNaNaasS'f0:25:b7:90:e8:13'
p2495
(lp2496
(lp2497
NaNaNaNaNaNaNaNaNaNaNaNaNaNaNaNaNaNaNaNaa(lp2498
NaNaNaNaNaNaNaNaNaNaNaNaNaNaNaNaNaNaNaNaa(lp2499
NaNaNaNaNaNaNaNaNaNaNaNaNaNaNaNaNaNaNaNaa(lp2500
NaNaNaNaNaNaNaNaNaNaNaNaNaNaNaNaNaNaNaNaa(lp2501
NaNaNaNaNaNaNaNaNaNaNaNaNaNaNaNaNaNaNaNaa(lp2502
NaNaNaNaNaNaNaNaNaNaNaNaNaNaNaNaNaNaNaNaa(lp2503
NaNaNaNaNaNaNaNaNaNaNaNaNaNaNaNaNaNaNaNaa(lp2504
NaNaNaNaNaNaNaNaNaNaNaNaNaNaNaNaNaNaNaNaa(lp2505
NaNaNaNaNaNaNaNaNaNaNaNaNaNaNaNaNaNaNaNaa(lp2506
NaNaNaNaNaNaNaNaNaNaNaNaNaNag13
(g17
S'\x00\x00\x00\x00\x00@S\xc0'
p2507
tp2508
Rp2509
aNaNaNaNaNaa(lp2510
NaNaNaNaNaNaNaNaNaNaNaNaNaNag13
(g17
S'UUUUU\xd5S\xc0'
p2511
tp2512
Rp2513
aNaNaNaNaNaa(lp2514
NaNaNaNaNaNaNaNaNaNaNaNaNaNaNaNaNaNaNaNaa(lp2515
NaNaNaNaNaNaNaNaNaNaNaNaNaNaNaNaNaNaNaNaa(lp2516
NaNaNaNaNaNaNaNaNaNaNaNaNaNaNaNaNaNaNaNaa(lp2517
NaNaNaNaNaNaNaNaNaNaNaNaNaNaNaNaNaNaNaNaa(lp2518
NaNaNaNaNaNaNaNaNaNaNaNaNaNaNaNaNaNaNaNaa(lp2519
NaNaNaNaNaNaNaNaNaNaNaNaNaNaNaNaNaNaNaNaa(lp2520
NaNaNaNaNaNaNaNaNaNaNaNaNaNaNaNaNaNaNaNaa(lp2521
NaNaNaNaNaNaNaNaNaNaNaNaNaNaNaNaNaNaNaNaa(lp2522
NaNaNaNaNaNaNaNaNaNaNaNaNaNaNaNaNaNaNaNaa(lp2523
NaNaNaNaNaNaNaNaNaNaNaNaNaNaNaNaNaNaNaNaa(lp2524
NaNaNaNaNaNaNaNaNaNaNaNaNaNaNaNaNaNaNaNaa(lp2525
NaNaNaNaNaNaNaNaNaNaNaNaNaNaNaNaNaNaNaNaa(lp2526
NaNaNaNaNaNaNaNaNaNaNaNaNaNaNaNaNaNaNaNaa(lp2527
NaNaNaNaNaNaNaNaNaNaNaNaNaNaNaNaNaNaNaNaa(lp2528
NaNaNaNaNaNaNaNaNaNaNaNaNaNaNaNaNaNaNaNaa(lp2529
NaNaNaNaNaNaNaNaNaNaNaNaNaNaNaNaNaNaNaNaasS'08:ed:b9:2f:a3:7f'
p2530
(lp2531
(lp2532
NaNaNaNaNaNaNaNaNaNaNaNaNaNaNaNaNaNaNaNaa(lp2533
NaNaNaNaNaNaNaNaNaNaNaNaNaNaNaNaNaNaNaNaa(lp2534
NaNaNaNaNaNaNaNaNaNaNaNaNaNaNaNaNaNaNaNaa(lp2535
NaNaNaNaNaNaNaNaNaNaNaNaNaNaNaNaNaNaNaNaa(lp2536
NaNaNaNaNaNaNaNaNaNaNaNaNaNaNaNaNaNaNaNaa(lp2537
NaNaNaNaNaNaNaNaNaNaNaNaNaNaNaNaNaNaNaNaa(lp2538
NaNaNaNaNaNaNaNaNaNaNaNaNaNaNaNaNaNaNaNaa(lp2539
NaNaNaNaNaNaNaNaNaNaNaNaNaNaNaNaNaNaNaNaa(lp2540
NaNaNaNaNaNaNaNaNaNaNaNaNaNaNaNaNaNaNaNaa(lp2541
NaNaNaNaNaNaNaNaNaNaNaNaNaNaNaNaNaNaNaNaa(lp2542
NaNaNaNaNaNaNaNaNaNaNaNaNaNaNag13
(g17
S'\x14;\xb1\x13;\xb1Q\xc0'
p2543
tp2544
Rp2545
aNaNaNaNaa(lp2546
NaNaNaNaNaNaNaNaNaNaNaNaNaNaNaNaNaNaNaNaa(lp2547
NaNaNaNaNaNaNaNaNaNaNaNaNaNaNaNaNaNaNaNaa(lp2548
NaNaNaNaNaNaNaNaNaNaNaNaNaNaNaNaNaNaNaNaa(lp2549
NaNaNaNaNaNaNaNaNaNaNaNaNaNaNaNaNaNaNaNaa(lp2550
NaNaNaNaNaNaNaNaNaNaNaNaNaNaNaNaNaNaNaNaa(lp2551
NaNaNaNaNaNaNaNaNaNaNaNaNaNaNaNaNaNaNaNaa(lp2552
NaNaNaNaNaNaNaNaNaNaNaNaNaNaNaNaNaNaNaNaa(lp2553
NaNaNaNaNaNaNaNaNaNaNaNaNaNaNaNaNaNaNaNaa(lp2554
NaNaNaNaNaNaNaNaNaNaNaNaNaNaNaNaNaNaNaNaa(lp2555
NaNaNaNaNaNaNaNaNaNaNaNaNaNaNaNaNaNaNaNaa(lp2556
NaNaNaNaNaNaNaNaNaNaNaNaNaNaNaNaNaNaNaNaa(lp2557
NaNaNaNaNaNaNaNaNaNaNaNaNaNaNaNaNaNaNaNaa(lp2558
NaNaNaNaNaNaNaNaNaNaNaNaNaNaNaNaNaNaNaNaa(lp2559
NaNaNaNaNaNaNaNaNaNaNaNaNaNaNaNaNaNaNaNaa(lp2560
NaNaNaNaNaNaNaNaNaNaNaNaNaNaNaNaNaNaNaNaa(lp2561
NaNaNaNaNaNaNaNaNaNaNaNaNaNaNaNaNaNaNaNaasS'ec:35:86:37:b8:3c'
p2562
(lp2563
(lp2564
NaNaNaNaNaNaNaNaNaNaNaNaNaNaNaNaNaNaNaNaa(lp2565
NaNaNaNaNaNaNaNaNaNaNaNaNaNaNaNaNaNaNaNaa(lp2566
NaNaNaNaNaNaNaNaNaNaNaNaNaNaNaNaNaNaNaNaa(lp2567
NaNaNaNaNaNaNaNaNaNaNaNaNaNaNaNaNaNaNaNaa(lp2568
NaNaNaNaNaNaNaNaNaNaNaNaNaNaNaNaNaNaNaNaa(lp2569
NaNaNaNaNaNaNaNaNaNaNaNaNaNaNaNaNaNaNaNaa(lp2570
NaNaNaNaNaNaNaNaNaNaNaNaNaNaNaNaNaNaNaNaa(lp2571
NaNaNaNaNaNaNaNaNaNaNaNaNaNaNaNaNaNaNaNaa(lp2572
NaNaNaNaNaNaNaNaNaNaNaNaNaNaNaNaNaNaNaNaa(lp2573
NaNaNaNaNaNaNaNaNaNaNaNaNaNag13
(g17
S'\x00\x00\x00\x00\x00@U\xc0'
p2574
tp2575
Rp2576
aNaNaNaNaNaa(lp2577
NaNaNaNaNaNaNaNaNaNaNaNaNaNag13
(g17
S'\xb7m\xdb\xb6m\x9bT\xc0'
p2578
tp2579
Rp2580
aNaNaNaNaNaa(lp2581
NaNaNaNaNaNaNaNaNaNaNaNaNaNaNaNaNaNaNaNaa(lp2582
NaNaNaNaNaNaNaNaNaNaNaNaNaNaNaNaNaNaNaNaa(lp2583
NaNaNaNaNaNaNaNaNaNaNaNaNaNaNaNaNaNaNaNaa(lp2584
NaNaNaNaNaNaNaNaNaNaNaNaNaNaNaNaNaNaNaNaa(lp2585
NaNaNaNaNaNaNaNaNaNaNaNaNaNaNaNaNaNaNaNaa(lp2586
NaNaNaNaNaNaNaNaNaNaNaNaNaNaNaNaNaNaNaNaa(lp2587
NaNaNaNaNaNaNaNaNaNaNaNaNaNaNaNaNaNaNaNaa(lp2588
NaNaNaNaNaNaNaNaNaNaNaNaNaNaNaNaNaNaNaNaa(lp2589
NaNaNaNaNaNaNaNaNaNaNaNaNaNaNaNaNaNaNaNaa(lp2590
NaNaNaNaNaNaNaNaNaNaNaNaNaNaNaNaNaNaNaNaa(lp2591
NaNaNaNaNaNaNaNaNaNaNaNaNaNaNaNaNaNaNaNaa(lp2592
NaNaNaNaNaNaNaNaNaNaNaNaNaNaNaNaNaNaNaNaa(lp2593
NaNaNaNaNaNaNaNaNaNaNaNaNaNaNaNaNaNaNaNaa(lp2594
NaNaNaNaNaNaNaNaNaNaNaNaNaNaNaNaNaNaNaNaa(lp2595
NaNaNaNaNaNaNaNaNaNaNaNaNaNaNaNaNaNaNaNaa(lp2596
NaNaNaNaNaNaNaNaNaNaNaNaNaNaNaNaNaNaNaNaasS'50:2e:5c:39:38:6b'
p2597
(lp2598
(lp2599
NaNaNaNaNaNaNaNaNaNaNaNaNaNaNaNaNaNaNaNaa(lp2600
NaNaNaNaNaNaNaNaNaNaNaNaNaNaNaNaNaNaNaNaa(lp2601
NaNaNaNaNaNaNaNaNaNaNaNaNaNaNaNaNaNaNaNaa(lp2602
NaNaNaNaNaNaNaNaNaNaNaNaNaNaNaNaNaNaNaNaa(lp2603
NaNaNaNaNaNaNaNaNaNaNaNaNaNaNaNaNaNaNaNaa(lp2604
NaNaNaNaNaNaNaNaNaNaNaNaNaNaNaNaNaNaNaNaa(lp2605
NaNaNaNaNaNaNaNaNaNaNaNaNaNaNaNaNaNaNaNaa(lp2606
NaNaNaNaNaNaNaNaNaNaNaNaNaNaNaNaNaNaNaNaa(lp2607
NaNaNaNaNaNaNaNaNaNaNaNaNaNaNaNaNaNaNaNaa(lp2608
NaNaNaNaNaNaNaNaNaNaNaNaNag13
(g17
S'\x00\x00\x00\x00\x00\x00P\xc0'
p2609
tp2610
Rp2611
aNaNaNaNaNaNaa(lp2612
NaNaNaNaNaNaNaNaNaNaNaNaNaNaNaNaNaNaNaNaa(lp2613
NaNaNaNaNaNaNaNaNaNaNaNaNaNaNaNaNaNaNaNaa(lp2614
NaNaNaNaNaNaNaNaNaNaNaNaNaNaNaNaNaNaNaNaa(lp2615
NaNaNaNaNaNaNaNaNaNaNaNaNaNaNaNaNaNaNaNaa(lp2616
NaNaNaNaNaNaNaNaNaNaNaNaNaNaNaNaNaNaNaNaa(lp2617
NaNaNaNaNaNaNaNaNaNaNaNaNaNaNaNaNaNaNaNaa(lp2618
NaNaNaNaNaNaNaNaNaNaNaNaNaNaNaNaNaNaNaNaa(lp2619
NaNaNaNaNaNaNaNaNaNaNaNaNaNaNaNaNaNaNaNaa(lp2620
NaNaNaNaNaNaNaNaNaNaNaNaNaNaNaNaNaNaNaNaa(lp2621
NaNaNaNaNaNaNaNaNaNaNaNaNaNaNaNaNaNaNaNaa(lp2622
NaNaNaNaNaNaNaNaNaNaNaNaNaNaNaNaNaNaNaNaa(lp2623
NaNaNaNaNaNaNaNaNaNaNaNaNaNaNaNaNaNaNaNaa(lp2624
NaNaNaNaNaNaNaNaNaNaNaNaNaNaNaNaNaNaNaNaa(lp2625
NaNaNaNaNaNaNaNaNaNaNaNaNaNaNaNaNaNaNaNaa(lp2626
NaNaNaNaNaNaNaNaNaNaNaNaNaNaNaNaNaNaNaNaa(lp2627
NaNaNaNaNaNaNaNaNaNaNaNaNaNaNaNaNaNaNaNaa(lp2628
NaNaNaNaNaNaNaNaNaNaNaNaNaNaNaNaNaNaNaNaasS'78:fd:94:1f:c1:37'
p2629
(lp2630
(lp2631
NaNaNaNaNaNaNaNaNaNaNaNaNaNaNaNaNaNaNaNaa(lp2632
NaNaNaNaNaNaNaNaNaNaNaNaNaNaNaNaNaNaNaNaa(lp2633
NaNaNaNaNaNaNaNaNaNaNaNaNaNaNaNaNaNaNaNaa(lp2634
NaNaNaNaNaNaNaNaNaNaNaNaNaNaNaNaNaNaNaNaa(lp2635
NaNaNaNaNaNaNaNaNaNaNaNaNaNaNaNaNaNaNaNaa(lp2636
NaNaNaNaNaNaNaNaNaNaNaNaNaNaNaNaNaNaNaNaa(lp2637
NaNaNaNaNaNaNaNaNaNaNaNaNaNaNaNaNaNaNaNaa(lp2638
NaNaNaNaNaNaNaNaNaNaNaNaNaNaNaNaNaNaNaNaa(lp2639
NaNaNaNaNaNaNaNaNaNaNaNaNaNaNaNaNaNaNaNaa(lp2640
NaNaNaNaNaNaNaNaNaNaNaNaNag13
(g17
S'\x00\x00\x00\x00\x00`P\xc0'
p2641
tp2642
Rp2643
aNaNaNaNaNaNaa(lp2644
NaNaNaNaNaNaNaNaNaNaNaNaNaNaNaNaNaNaNaNaa(lp2645
NaNaNaNaNaNaNaNaNaNaNaNaNaNaNaNaNaNaNaNaa(lp2646
NaNaNaNaNaNaNaNaNaNaNaNaNaNaNaNaNaNaNaNaa(lp2647
NaNaNaNaNaNaNaNaNaNaNaNaNaNaNaNaNaNaNaNaa(lp2648
NaNaNaNaNaNaNaNaNaNaNaNaNaNaNaNaNaNaNaNaa(lp2649
NaNaNaNaNaNaNaNaNaNaNaNaNaNaNaNaNaNaNaNaa(lp2650
NaNaNaNaNaNaNaNaNaNaNaNaNaNaNaNaNaNaNaNaa(lp2651
NaNaNaNaNaNaNaNaNaNaNaNaNaNaNaNaNaNaNaNaa(lp2652
NaNaNaNaNaNaNaNaNaNaNaNaNaNaNaNaNaNaNaNaa(lp2653
NaNaNaNaNaNaNaNaNaNaNaNaNaNaNaNaNaNaNaNaa(lp2654
NaNaNaNaNaNaNaNaNaNaNaNaNaNaNaNaNaNaNaNaa(lp2655
NaNaNaNaNaNaNaNaNaNaNaNaNaNaNaNaNaNaNaNaa(lp2656
NaNaNaNaNaNaNaNaNaNaNaNaNaNaNaNaNaNaNaNaa(lp2657
NaNaNaNaNaNaNaNaNaNaNaNaNaNaNaNaNaNaNaNaa(lp2658
NaNaNaNaNaNaNaNaNaNaNaNaNaNaNaNaNaNaNaNaa(lp2659
NaNaNaNaNaNaNaNaNaNaNaNaNaNaNaNaNaNaNaNaa(lp2660
NaNaNaNaNaNaNaNaNaNaNaNaNaNaNaNaNaNaNaNaasS'c4:85:08:e2:7c:91'
p2661
(lp2662
(lp2663
NaNaNaNaNaNaNaNaNaNaNaNaNaNaNaNaNaNaNaNaa(lp2664
NaNaNaNaNaNaNaNaNaNaNaNaNaNaNaNaNaNaNaNaa(lp2665
NaNaNaNaNaNaNaNaNaNaNaNaNaNaNaNaNaNaNaNaa(lp2666
NaNaNaNaNaNaNaNaNaNaNaNaNaNaNaNaNaNaNaNaa(lp2667
NaNaNaNaNaNaNaNaNaNaNaNaNaNaNaNaNaNaNaNaa(lp2668
NaNaNaNaNaNaNaNaNaNaNaNaNaNaNaNaNaNaNaNaa(lp2669
NaNaNaNaNaNaNaNaNaNaNaNaNaNaNaNaNaNaNaNaa(lp2670
NaNaNaNaNaNaNaNaNaNaNaNaNaNaNaNaNaNaNaNaa(lp2671
NaNaNaNaNaNaNaNaNaNaNaNaNaNaNaNaNaNaNaNaa(lp2672
NaNaNaNaNaNaNaNaNaNaNaNaNaNaNaNaNaNaNaNaa(lp2673
NaNaNaNaNaNaNaNaNaNaNaNaNaNag13
(g17
S'\x9e\xd8\x89\x9d\xd8\tO\xc0'
p2674
tp2675
Rp2676
aNaNaNaNaNaa(lp2677
NaNaNaNaNaNaNaNaNaNaNaNaNaNaNaNaNaNaNaNaa(lp2678
NaNaNaNaNaNaNaNaNaNaNaNaNaNaNaNaNaNaNaNaa(lp2679
NaNaNaNaNaNaNaNaNaNaNaNaNaNaNaNaNaNaNaNaa(lp2680
NaNaNaNaNaNaNaNaNaNaNaNaNaNaNaNaNaNaNaNaa(lp2681
NaNaNaNaNaNaNaNaNaNaNaNaNaNaNaNaNaNaNaNaa(lp2682
NaNaNaNaNaNaNaNaNaNaNaNaNaNaNaNaNaNaNaNaa(lp2683
NaNaNaNaNaNaNaNaNaNaNaNaNaNaNaNaNaNaNaNaa(lp2684
NaNaNaNaNaNaNaNaNaNaNaNaNaNaNaNaNaNaNaNaa(lp2685
NaNaNaNaNaNaNaNaNaNaNaNaNaNaNaNaNaNaNaNaa(lp2686
NaNaNaNaNaNaNaNaNaNaNaNaNaNaNaNaNaNaNaNaa(lp2687
NaNaNaNaNaNaNaNaNaNaNaNaNaNaNaNaNaNaNaNaa(lp2688
NaNaNaNaNaNaNaNaNaNaNaNaNaNaNaNaNaNaNaNaa(lp2689
NaNaNaNaNaNaNaNaNaNaNaNaNaNaNaNaNaNaNaNaa(lp2690
NaNaNaNaNaNaNaNaNaNaNaNaNaNaNaNaNaNaNaNaa(lp2691
NaNaNaNaNaNaNaNaNaNaNaNaNaNaNaNaNaNaNaNaa(lp2692
NaNaNaNaNaNaNaNaNaNaNaNaNaNaNaNaNaNaNaNaasS'f8:f1:b6:cf:49:fb'
p2693
(lp2694
(lp2695
NaNaNaNaNaNaNaNaNaNaNaNaNaNaNaNaNaNaNaNaa(lp2696
NaNaNaNaNaNaNaNaNaNaNaNaNaNaNaNaNaNaNaNaa(lp2697
NaNaNaNaNaNaNaNaNaNaNaNaNaNaNaNaNaNaNaNaa(lp2698
NaNaNaNaNaNaNaNaNaNaNaNaNaNaNaNaNaNaNaNaa(lp2699
NaNaNaNaNaNaNaNaNaNaNaNaNaNaNaNaNaNaNaNaa(lp2700
NaNaNaNaNaNaNaNaNaNaNaNaNaNaNaNaNaNaNaNaa(lp2701
NaNaNaNaNaNaNaNaNaNaNaNaNaNaNaNaNaNaNaNaa(lp2702
NaNaNaNaNaNaNaNaNaNaNaNaNaNaNaNaNaNaNaNaa(lp2703
NaNaNaNaNaNaNaNaNaNaNaNaNaNaNaNaNaNaNaNaa(lp2704
NaNaNaNaNaNaNaNaNaNaNaNaNaNag13
(g17
S'\xdb\xb6m\xdb\xb6\x8dU\xc0'
p2705
tp2706
Rp2707
aNaNaNaNaNaa(lp2708
NaNaNaNaNaNaNaNaNaNaNaNaNaNaNaNaNaNaNaNaa(lp2709
NaNaNaNaNaNaNaNaNaNaNaNaNaNaNaNaNaNaNaNaa(lp2710
NaNaNaNaNaNaNaNaNaNaNaNaNaNaNaNaNaNaNaNaa(lp2711
NaNaNaNaNaNaNaNaNaNaNaNaNaNaNaNaNaNaNaNaa(lp2712
NaNaNaNaNaNaNaNaNaNaNaNaNaNaNaNaNaNaNaNaa(lp2713
NaNaNaNaNaNaNaNaNaNaNaNaNaNaNaNaNaNaNaNaa(lp2714
NaNaNaNaNaNaNaNaNaNaNaNaNaNaNaNaNaNaNaNaa(lp2715
NaNaNaNaNaNaNaNaNaNaNaNaNaNaNaNaNaNaNaNaa(lp2716
NaNaNaNaNaNaNaNaNaNaNaNaNaNaNaNaNaNaNaNaa(lp2717
NaNaNaNaNaNaNaNaNaNaNaNaNaNaNaNaNaNaNaNaa(lp2718
NaNaNaNaNaNaNaNaNaNaNaNaNaNaNaNaNaNaNaNaa(lp2719
NaNaNaNaNaNaNaNaNaNaNaNaNaNaNaNaNaNaNaNaa(lp2720
NaNaNaNaNaNaNaNaNaNaNaNaNaNaNaNaNaNaNaNaa(lp2721
NaNaNaNaNaNaNaNaNaNaNaNaNaNaNaNaNaNaNaNaa(lp2722
NaNaNaNaNaNaNaNaNaNaNaNaNaNaNaNaNaNaNaNaa(lp2723
NaNaNaNaNaNaNaNaNaNaNaNaNaNaNaNaNaNaNaNaa(lp2724
NaNaNaNaNaNaNaNaNaNaNaNaNaNaNaNaNaNaNaNaasS'c8:85:50:76:78:ed'
p2725
(lp2726
(lp2727
NaNaNaNaNaNaNaNaNaNaNaNaNaNaNaNaNaNaNaNaa(lp2728
NaNaNaNaNaNaNaNaNaNaNaNaNaNaNaNaNaNaNaNaa(lp2729
NaNaNaNaNaNaNaNaNaNaNaNaNaNaNaNaNaNaNaNaa(lp2730
NaNaNaNaNaNaNaNaNaNaNaNaNaNaNaNaNaNaNaNaa(lp2731
NaNaNaNaNaNaNaNaNaNaNaNaNaNaNaNaNaNaNaNaa(lp2732
NaNaNaNaNaNaNaNaNaNaNaNaNaNaNaNaNaNaNaNaa(lp2733
NaNaNaNaNaNaNaNaNaNaNaNaNaNaNaNaNaNaNaNaa(lp2734
NaNaNaNaNaNaNaNaNaNaNaNaNaNaNaNaNaNaNaNaa(lp2735
NaNaNaNaNaNaNaNaNaNaNaNaNaNaNaNaNaNaNaNaa(lp2736
NaNaNaNaNaNaNaNaNaNaNaNaNaNag13
(g17
S'\x00\x00\x00\x00\x00\x80K\xc0'
p2737
tp2738
Rp2739
aNaNaNaNaNaa(lp2740
NaNaNaNaNaNaNaNaNaNaNaNaNaNaNaNaNaNaNaNaa(lp2741
NaNaNaNaNaNaNaNaNaNaNaNaNaNaNaNaNaNaNaNaa(lp2742
NaNaNaNaNaNaNaNaNaNaNaNaNaNaNaNaNaNaNaNaa(lp2743
NaNaNaNaNaNaNaNaNaNaNaNaNaNaNaNaNaNaNaNaa(lp2744
NaNaNaNaNaNaNaNaNaNaNaNaNaNaNaNaNaNaNaNaa(lp2745
NaNaNaNaNaNaNaNaNaNaNaNaNaNaNaNaNaNaNaNaa(lp2746
NaNaNaNaNaNaNaNaNaNaNaNaNaNaNaNaNaNaNaNaa(lp2747
NaNaNaNaNaNaNaNaNaNaNaNaNaNaNaNaNaNaNaNaa(lp2748
NaNaNaNaNaNaNaNaNaNaNaNaNaNaNaNaNaNaNaNaa(lp2749
NaNaNaNaNaNaNaNaNaNaNaNaNaNaNaNaNaNaNaNaa(lp2750
NaNaNaNaNaNaNaNaNaNaNaNaNaNaNaNaNaNaNaNaa(lp2751
NaNaNaNaNaNaNaNaNaNaNaNaNaNaNaNaNaNaNaNaa(lp2752
NaNaNaNaNaNaNaNaNaNaNaNaNaNaNaNaNaNaNaNaa(lp2753
NaNaNaNaNaNaNaNaNaNaNaNaNaNaNaNaNaNaNaNaa(lp2754
NaNaNaNaNaNaNaNaNaNaNaNaNaNaNaNaNaNaNaNaa(lp2755
NaNaNaNaNaNaNaNaNaNaNaNaNaNaNaNaNaNaNaNaa(lp2756
NaNaNaNaNaNaNaNaNaNaNaNaNaNaNaNaNaNaNaNaasS'd4:9a:20:66:b5:43'
p2757
(lp2758
(lp2759
NaNaNaNaNaNaNaNaNaNaNaNaNaNaNaNaNaNaNaNaa(lp2760
NaNaNaNaNaNaNaNaNaNaNaNaNaNaNaNaNaNaNaNaa(lp2761
NaNaNaNaNaNaNaNaNaNaNaNaNaNaNaNaNaNaNaNaa(lp2762
NaNaNaNaNaNaNaNaNaNaNaNaNaNaNaNaNaNaNaNaa(lp2763
NaNaNaNaNaNaNaNaNaNaNaNaNaNaNaNaNaNaNaNaa(lp2764
NaNaNaNaNaNaNaNaNaNaNaNaNaNaNaNaNaNaNaNaa(lp2765
NaNaNaNaNaNaNaNaNaNaNaNaNaNaNaNaNaNaNaNaa(lp2766
NaNaNaNaNaNaNaNaNaNaNaNaNaNaNaNaNaNaNaNaa(lp2767
NaNaNaNaNaNaNaNaNaNaNaNaNaNaNaNaNaNaNaNaa(lp2768
NaNaNaNaNaNaNaNaNaNaNaNaNag13
(g17
S'\x9a\x99\x99\x99\x99\x99M\xc0'
p2769
tp2770
Rp2771
aNaNaNaNaNaNaa(lp2772
NaNaNaNaNaNaNaNaNaNaNaNaNaNaNaNaNaNaNaNaa(lp2773
NaNaNaNaNaNaNaNaNaNaNaNaNaNaNaNaNaNaNaNaa(lp2774
NaNaNaNaNaNaNaNaNaNaNaNaNaNaNaNaNaNaNaNaa(lp2775
NaNaNaNaNaNaNaNaNaNaNaNaNaNaNaNaNaNaNaNaa(lp2776
NaNaNaNaNaNaNaNaNaNaNaNaNaNaNaNaNaNaNaNaa(lp2777
NaNaNaNaNaNaNaNaNaNaNaNaNaNaNaNaNaNaNaNaa(lp2778
NaNaNaNaNaNaNaNaNaNaNaNaNaNaNaNaNaNaNaNaa(lp2779
NaNaNaNaNaNaNaNaNaNaNaNaNaNaNaNaNaNaNaNaa(lp2780
NaNaNaNaNaNaNaNaNaNaNaNaNaNaNaNaNaNaNaNaa(lp2781
NaNaNaNaNaNaNaNaNaNaNaNaNaNaNaNaNaNaNaNaa(lp2782
NaNaNaNaNaNaNaNaNaNaNaNaNaNaNaNaNaNaNaNaa(lp2783
NaNaNaNaNaNaNaNaNaNaNaNaNaNaNaNaNaNaNaNaa(lp2784
NaNaNaNaNaNaNaNaNaNaNaNaNaNaNaNaNaNaNaNaa(lp2785
NaNaNaNaNaNaNaNaNaNaNaNaNaNaNaNaNaNaNaNaa(lp2786
NaNaNaNaNaNaNaNaNaNaNaNaNaNaNaNaNaNaNaNaa(lp2787
NaNaNaNaNaNaNaNaNaNaNaNaNaNaNaNaNaNaNaNaa(lp2788
NaNaNaNaNaNaNaNaNaNaNaNaNaNaNaNaNaNaNaNaasS'8c:2d:aa:56:1d:3b'
p2789
(lp2790
(lp2791
NaNaNaNaNaNaNaNaNaNaNaNaNaNaNaNaNaNaNaNaa(lp2792
NaNaNaNaNaNaNaNaNaNaNaNaNaNaNaNaNaNaNaNaa(lp2793
NaNaNaNaNaNaNaNaNaNaNaNaNaNaNaNaNaNaNaNaa(lp2794
NaNaNaNaNaNaNaNaNaNaNaNaNaNaNaNaNaNaNaNaa(lp2795
NaNaNaNaNaNaNaNaNaNaNaNaNaNaNaNaNaNaNaNaa(lp2796
NaNaNaNaNaNaNaNaNaNaNaNaNaNaNaNaNaNaNaNaa(lp2797
NaNaNaNaNaNaNaNaNaNaNaNaNaNaNaNaNaNaNaNaa(lp2798
NaNaNaNaNaNaNaNaNaNaNaNaNaNaNaNaNaNaNaNaa(lp2799
NaNaNaNaNaNaNaNaNaNaNaNaNaNaNaNaNaNaNaNaa(lp2800
NaNaNaNaNaNaNaNaNaNaNaNaNag13
(g17
S'\x00\x00\x00\x00\x00\xa0T\xc0'
p2801
tp2802
Rp2803
aNaNaNaNaNaNaa(lp2804
NaNaNaNaNaNaNaNaNaNaNaNaNaNaNaNaNaNaNaNaa(lp2805
NaNaNaNaNaNaNaNaNaNaNaNaNaNaNaNaNaNaNaNaa(lp2806
NaNaNaNaNaNaNaNaNaNaNaNaNaNaNaNaNaNaNaNaa(lp2807
NaNaNaNaNaNaNaNaNaNaNaNaNaNaNaNaNaNaNaNaa(lp2808
NaNaNaNaNaNaNaNaNaNaNaNaNaNaNaNaNaNaNaNaa(lp2809
NaNaNaNaNaNaNaNaNaNaNaNaNaNaNaNaNaNaNaNaa(lp2810
NaNaNaNaNaNaNaNaNaNaNaNaNaNaNaNaNaNaNaNaa(lp2811
NaNaNaNaNaNaNaNaNaNaNaNaNaNaNaNaNaNaNaNaa(lp2812
NaNaNaNaNaNaNaNaNaNaNaNaNaNaNaNaNaNaNaNaa(lp2813
NaNaNaNaNaNaNaNaNaNaNaNaNaNaNaNaNaNaNaNaa(lp2814
NaNaNaNaNaNaNaNaNaNaNaNaNaNaNaNaNaNaNaNaa(lp2815
NaNaNaNaNaNaNaNaNaNaNaNaNaNaNaNaNaNaNaNaa(lp2816
NaNaNaNaNaNaNaNaNaNaNaNaNaNaNaNaNaNaNaNaa(lp2817
NaNaNaNaNaNaNaNaNaNaNaNaNaNaNaNaNaNaNaNaa(lp2818
NaNaNaNaNaNaNaNaNaNaNaNaNaNaNaNaNaNaNaNaa(lp2819
NaNaNaNaNaNaNaNaNaNaNaNaNaNaNaNaNaNaNaNaa(lp2820
NaNaNaNaNaNaNaNaNaNaNaNaNaNaNaNaNaNaNaNaasS'78:6c:1c:29:9b:94'
p2821
(lp2822
(lp2823
NaNaNaNaNaNaNaNaNaNaNaNaNaNaNaNaNaNaNaNaa(lp2824
NaNaNaNaNaNaNaNaNaNaNaNaNaNaNaNaNaNaNaNaa(lp2825
NaNaNaNaNaNaNaNaNaNaNaNaNaNaNaNaNaNaNaNaa(lp2826
NaNaNaNaNaNaNaNaNaNaNaNaNaNaNaNaNaNaNaNaa(lp2827
NaNaNaNaNaNaNaNaNaNaNaNaNaNaNaNaNaNaNaNaa(lp2828
NaNaNaNaNaNaNaNaNaNaNaNaNaNaNaNaNaNaNaNaa(lp2829
NaNaNaNaNaNaNaNaNaNaNaNaNaNaNaNaNaNaNaNaa(lp2830
NaNaNaNaNaNaNaNaNaNaNaNaNaNaNaNaNaNaNaNaa(lp2831
NaNaNaNaNaNaNaNaNaNaNaNaNaNaNaNaNaNaNaNaa(lp2832
NaNaNaNaNaNaNaNaNaNaNaNaNag13
(g17
S'\x00\x00\x00\x00\x00@T\xc0'
p2833
tp2834
Rp2835
ag13
(g17
S'6\xea;\x1b\xf5\x1dS\xc0'
p2836
tp2837
Rp2838
aNaNaNaNaNaa(lp2839
NaNaNaNaNaNaNaNaNaNaNaNaNaNag13
(g17
S'\x00\x00\x00\x00\x00\xe0Q\xc0'
p2840
tp2841
Rp2842
aNaNaNaNaNaa(lp2843
NaNaNaNaNaNaNaNaNaNaNaNaNaNaNaNaNaNaNaNaa(lp2844
NaNaNaNaNaNaNaNaNaNaNaNaNaNaNaNaNaNaNaNaa(lp2845
NaNaNaNaNaNaNaNaNaNaNaNaNaNaNaNaNaNaNaNaa(lp2846
NaNaNaNaNaNaNaNaNaNaNaNaNaNaNaNaNaNaNaNaa(lp2847
NaNaNaNaNaNaNaNaNaNaNaNaNaNaNaNaNaNaNaNaa(lp2848
NaNaNaNaNaNaNaNaNaNaNaNaNaNaNaNaNaNaNaNaa(lp2849
NaNaNaNaNaNaNaNaNaNaNaNaNaNaNaNaNaNaNaNaa(lp2850
NaNaNaNaNaNaNaNaNaNaNaNaNaNaNaNaNaNaNaNaa(lp2851
NaNaNaNaNaNaNaNaNaNaNaNaNaNaNaNaNaNaNaNaa(lp2852
NaNaNaNaNaNaNaNaNaNaNaNaNaNaNaNaNaNaNaNaa(lp2853
NaNaNaNaNaNaNaNaNaNaNaNaNaNaNaNaNaNaNaNaa(lp2854
NaNaNaNaNaNaNaNaNaNaNaNaNaNaNaNaNaNaNaNaa(lp2855
NaNaNaNaNaNaNaNaNaNaNaNaNaNaNaNaNaNaNaNaa(lp2856
NaNaNaNaNaNaNaNaNaNaNaNaNaNaNaNaNaNaNaNaa(lp2857
NaNaNaNaNaNaNaNaNaNaNaNaNaNaNaNaNaNaNaNaa(lp2858
NaNaNaNaNaNaNaNaNaNaNaNaNaNaNaNaNaNaNaNaasS'4c:7c:5f:8f:ac:29'
p2859
(lp2860
(lp2861
NaNaNaNaNaNaNaNaNaNaNaNaNaNaNaNaNaNaNaNaa(lp2862
NaNaNaNaNaNaNaNaNaNaNaNaNaNaNaNaNaNaNaNaa(lp2863
NaNaNaNaNaNaNaNaNaNaNaNaNaNaNaNaNaNaNaNaa(lp2864
NaNaNaNaNaNaNaNaNaNaNaNaNaNaNaNaNaNaNaNaa(lp2865
NaNaNaNaNaNaNaNaNaNaNaNaNaNaNaNaNaNaNaNaa(lp2866
NaNaNaNaNaNaNaNaNaNaNaNaNaNaNaNaNaNaNaNaa(lp2867
NaNaNaNaNaNaNaNaNaNaNaNaNaNaNaNaNaNaNaNaa(lp2868
NaNaNaNaNaNaNaNaNaNaNaNaNaNaNaNaNaNaNaNaa(lp2869
NaNaNaNaNaNaNaNaNaNaNaNaNaNaNaNaNaNaNaNaa(lp2870
NaNaNaNaNaNaNaNaNaNaNaNaNaNag13
(g17
S'\x00\x00\x00\x00\x00@U\xc0'
p2871
tp2872
Rp2873
aNaNaNaNaNaa(lp2874
NaNaNaNaNaNaNaNaNaNaNaNaNaNaNaNaNaNaNaNaa(lp2875
NaNaNaNaNaNaNaNaNaNaNaNaNaNaNaNaNaNaNaNaa(lp2876
NaNaNaNaNaNaNaNaNaNaNaNaNaNaNaNaNaNaNaNaa(lp2877
NaNaNaNaNaNaNaNaNaNaNaNaNaNaNaNaNaNaNaNaa(lp2878
NaNaNaNaNaNaNaNaNaNaNaNaNaNaNaNaNaNaNaNaa(lp2879
NaNaNaNaNaNaNaNaNaNaNaNaNaNaNaNaNaNaNaNaa(lp2880
NaNaNaNaNaNaNaNaNaNaNaNaNaNaNaNaNaNaNaNaa(lp2881
NaNaNaNaNaNaNaNaNaNaNaNaNaNaNaNaNaNaNaNaa(lp2882
NaNaNaNaNaNaNaNaNaNaNaNaNaNaNaNaNaNaNaNaa(lp2883
NaNaNaNaNaNaNaNaNaNaNaNaNaNaNaNaNaNaNaNaa(lp2884
NaNaNaNaNaNaNaNaNaNaNaNaNaNaNaNaNaNaNaNaa(lp2885
NaNaNaNaNaNaNaNaNaNaNaNaNaNaNaNaNaNaNaNaa(lp2886
NaNaNaNaNaNaNaNaNaNaNaNaNaNaNaNaNaNaNaNaa(lp2887
NaNaNaNaNaNaNaNaNaNaNaNaNaNaNaNaNaNaNaNaa(lp2888
NaNaNaNaNaNaNaNaNaNaNaNaNaNaNaNaNaNaNaNaa(lp2889
NaNaNaNaNaNaNaNaNaNaNaNaNaNaNaNaNaNaNaNaa(lp2890
NaNaNaNaNaNaNaNaNaNaNaNaNaNaNaNaNaNaNaNaasS'18:f6:43:57:ce:10'
p2891
(lp2892
(lp2893
NaNaNaNaNaNaNaNaNaNaNaNaNaNaNaNaNaNaNaNaa(lp2894
NaNaNaNaNaNaNaNaNaNaNaNaNaNaNaNaNaNaNaNaa(lp2895
NaNaNaNaNaNaNaNaNaNaNaNaNaNaNaNaNaNaNaNaa(lp2896
NaNaNaNaNaNaNaNaNaNaNaNaNaNaNaNaNaNaNaNaa(lp2897
NaNaNaNaNaNaNaNaNaNaNaNaNaNaNaNaNaNaNaNaa(lp2898
NaNaNaNaNaNaNaNaNaNaNaNaNaNaNaNaNaNaNaNaa(lp2899
NaNaNaNaNaNaNaNaNaNaNaNaNaNaNaNaNaNaNaNaa(lp2900
NaNaNaNaNaNaNaNaNaNaNaNaNaNaNaNaNaNaNaNaa(lp2901
NaNaNaNaNaNaNaNaNaNaNaNaNaNaNaNaNaNaNaNaa(lp2902
NaNaNaNaNaNaNaNaNaNaNaNaNaNag13
(g17
S'UUUUU\xf5P\xc0'
p2903
tp2904
Rp2905
aNaNaNaNaNaa(lp2906
NaNaNaNaNaNaNaNaNaNaNaNaNaNaNaNaNaNaNaNaa(lp2907
NaNaNaNaNaNaNaNaNaNaNaNaNaNaNaNaNaNaNaNaa(lp2908
NaNaNaNaNaNaNaNaNaNaNaNaNaNaNaNaNaNaNaNaa(lp2909
NaNaNaNaNaNaNaNaNaNaNaNaNaNaNaNaNaNaNaNaa(lp2910
NaNaNaNaNaNaNaNaNaNaNaNaNaNaNaNaNaNaNaNaa(lp2911
NaNaNaNaNaNaNaNaNaNaNaNaNaNaNaNaNaNaNaNaa(lp2912
NaNaNaNaNaNaNaNaNaNaNaNaNaNaNaNaNaNaNaNaa(lp2913
NaNaNaNaNaNaNaNaNaNaNaNaNaNaNaNaNaNaNaNaa(lp2914
NaNaNaNaNaNaNaNaNaNaNaNaNaNaNaNaNaNaNaNaa(lp2915
NaNaNaNaNaNaNaNaNaNaNaNaNaNaNaNaNaNaNaNaa(lp2916
NaNaNaNaNaNaNaNaNaNaNaNaNaNaNaNaNaNaNaNaa(lp2917
NaNaNaNaNaNaNaNaNaNaNaNaNaNaNaNaNaNaNaNaa(lp2918
NaNaNaNaNaNaNaNaNaNaNaNaNaNaNaNaNaNaNaNaa(lp2919
NaNaNaNaNaNaNaNaNaNaNaNaNaNaNaNaNaNaNaNaa(lp2920
NaNaNaNaNaNaNaNaNaNaNaNaNaNaNaNaNaNaNaNaa(lp2921
NaNaNaNaNaNaNaNaNaNaNaNaNaNaNaNaNaNaNaNaa(lp2922
NaNaNaNaNaNaNaNaNaNaNaNaNaNaNaNaNaNaNaNaasS'00:0c:0b:47:08:f8'
p2923
(lp2924
(lp2925
NaNaNaNaNaNaNaNaNaNaNaNaNaNaNaNaNaNaNaNaa(lp2926
NaNaNaNaNaNaNaNaNaNaNaNaNaNaNaNaNaNaNaNaa(lp2927
NaNaNaNaNaNaNaNaNaNaNaNaNaNaNaNaNaNaNaNaa(lp2928
NaNaNaNaNaNaNaNaNaNaNaNaNaNaNaNaNaNaNaNaa(lp2929
NaNaNaNaNaNaNaNaNaNaNaNaNaNaNaNaNaNaNaNaa(lp2930
NaNaNaNaNaNaNaNaNaNaNaNaNaNaNaNaNaNaNaNaa(lp2931
NaNaNaNaNaNaNaNaNaNaNaNaNaNaNaNaNaNaNaNaa(lp2932
NaNaNaNaNaNaNaNaNaNaNaNaNaNaNaNaNaNaNaNaa(lp2933
NaNaNaNaNaNaNaNaNaNaNaNaNaNaNaNaNaNaNaNaa(lp2934
NaNaNaNaNaNaNaNaNaNaNaNaNaNag13
(g17
S'\x00\x00\x00\x00\x00\x00:\xc0'
p2935
tp2936
Rp2937
aNaNaNaNaNaa(lp2938
NaNaNaNaNaNaNaNaNaNaNaNaNaNaNaNaNaNaNaNaa(lp2939
NaNaNaNaNaNaNaNaNaNaNaNaNaNaNaNaNaNaNaNaa(lp2940
NaNaNaNaNaNaNaNaNaNaNaNaNaNaNaNaNaNaNaNaa(lp2941
NaNaNaNaNaNaNaNaNaNaNaNaNaNaNaNaNaNaNaNaa(lp2942
NaNaNaNaNaNaNaNaNaNaNaNaNaNaNaNaNaNaNaNaa(lp2943
NaNaNaNaNaNaNaNaNaNaNaNaNaNaNaNaNaNaNaNaa(lp2944
NaNaNaNaNaNaNaNaNaNaNaNaNaNaNaNaNaNaNaNaa(lp2945
NaNaNaNaNaNaNaNaNaNaNaNaNaNaNaNaNaNaNaNaa(lp2946
NaNaNaNaNaNaNaNaNaNaNaNaNaNaNaNaNaNaNaNaa(lp2947
NaNaNaNaNaNaNaNaNaNaNaNaNaNaNaNaNaNaNaNaa(lp2948
NaNaNaNaNaNaNaNaNaNaNaNaNaNaNaNaNaNaNaNaa(lp2949
NaNaNaNaNaNaNaNaNaNaNaNaNaNaNaNaNaNaNaNaa(lp2950
NaNaNaNaNaNaNaNaNaNaNaNaNaNaNaNaNaNaNaNaa(lp2951
NaNaNaNaNaNaNaNaNaNaNaNaNaNaNaNaNaNaNaNaa(lp2952
NaNaNaNaNaNaNaNaNaNaNaNaNaNaNaNaNaNaNaNaa(lp2953
NaNaNaNaNaNaNaNaNaNaNaNaNaNaNaNaNaNaNaNaa(lp2954
NaNaNaNaNaNaNaNaNaNaNaNaNaNaNaNaNaNaNaNaasS'10:30:47:36:f9:83'
p2955
(lp2956
(lp2957
NaNaNaNaNaNaNaNaNaNaNaNaNaNaNaNaNaNaNaNaa(lp2958
NaNaNaNaNaNaNaNaNaNaNaNaNaNaNaNaNaNaNaNaa(lp2959
NaNaNaNaNaNaNaNaNaNaNaNaNaNaNaNaNaNaNaNaa(lp2960
NaNaNaNaNaNaNaNaNaNaNaNaNaNaNaNaNaNaNaNaa(lp2961
NaNaNaNaNaNaNaNaNaNaNaNaNaNaNaNaNaNaNaNaa(lp2962
NaNaNaNaNaNaNaNaNaNaNaNaNaNaNaNaNaNaNaNaa(lp2963
NaNaNaNaNaNaNaNaNaNaNaNaNaNaNaNaNaNaNaNaa(lp2964
NaNaNaNaNaNaNaNaNaNaNaNaNaNaNaNaNaNaNaNaa(lp2965
NaNaNaNaNaNaNaNaNaNaNaNaNaNaNaNaNaNaNaNaa(lp2966
NaNaNaNaNaNaNaNaNaNaNaNaNaNaNaNaNaNaNaNaa(lp2967
NaNaNaNaNaNaNaNaNaNaNaNaNaNaNag13
(g17
S'UUUUU\xf5U\xc0'
p2968
tp2969
Rp2970
aNaNaNaNaa(lp2971
NaNaNaNaNaNaNaNaNaNaNaNaNaNaNaNaNaNaNaNaa(lp2972
NaNaNaNaNaNaNaNaNaNaNaNaNaNaNaNaNaNaNaNaa(lp2973
NaNaNaNaNaNaNaNaNaNaNaNaNaNaNaNaNaNaNaNaa(lp2974
NaNaNaNaNaNaNaNaNaNaNaNaNaNaNaNaNaNaNaNaa(lp2975
NaNaNaNaNaNaNaNaNaNaNaNaNaNaNaNaNaNaNaNaa(lp2976
NaNaNaNaNaNaNaNaNaNaNaNaNaNaNaNaNaNaNaNaa(lp2977
NaNaNaNaNaNaNaNaNaNaNaNaNaNaNaNaNaNaNaNaa(lp2978
NaNaNaNaNaNaNaNaNaNaNaNaNaNaNaNaNaNaNaNaa(lp2979
NaNaNaNaNaNaNaNaNaNaNaNaNaNaNaNaNaNaNaNaa(lp2980
NaNaNaNaNaNaNaNaNaNaNaNaNaNaNaNaNaNaNaNaa(lp2981
NaNaNaNaNaNaNaNaNaNaNaNaNaNaNaNaNaNaNaNaa(lp2982
NaNaNaNaNaNaNaNaNaNaNaNaNaNaNaNaNaNaNaNaa(lp2983
NaNaNaNaNaNaNaNaNaNaNaNaNaNaNaNaNaNaNaNaa(lp2984
NaNaNaNaNaNaNaNaNaNaNaNaNaNaNaNaNaNaNaNaa(lp2985
NaNaNaNaNaNaNaNaNaNaNaNaNaNaNaNaNaNaNaNaa(lp2986
NaNaNaNaNaNaNaNaNaNaNaNaNaNaNaNaNaNaNaNaasS'04:f7:e4:01:50:4b'
p2987
(lp2988
(lp2989
NaNaNaNaNaNaNaNaNaNaNaNaNaNaNaNaNaNaNaNaa(lp2990
NaNaNaNaNaNaNaNaNaNaNaNaNaNaNaNaNaNaNaNaa(lp2991
NaNaNaNaNaNaNaNaNaNaNaNaNaNaNaNaNaNaNaNaa(lp2992
NaNaNaNaNaNaNaNaNaNaNaNaNaNaNaNaNaNaNaNaa(lp2993
NaNaNaNaNaNaNaNaNaNaNaNaNaNaNaNaNaNaNaNaa(lp2994
NaNaNaNaNaNaNaNaNaNaNaNaNaNaNaNaNaNaNaNaa(lp2995
NaNaNaNaNaNaNaNaNaNaNaNaNaNaNaNaNaNaNaNaa(lp2996
NaNaNaNaNaNaNaNaNaNaNaNaNaNaNaNaNaNaNaNaa(lp2997
NaNaNaNaNaNaNaNaNaNaNaNaNaNaNaNaNaNaNaNaa(lp2998
NaNaNaNaNaNaNaNaNaNaNaNaNag13
(g17
S'\x00\x00\x00\x00\x00@V\xc0'
p2999
tp3000
Rp3001
aNaNaNaNaNaNaa(lp3002
NaNaNaNaNaNaNaNaNaNaNaNaNaNaNaNaNaNaNaNaa(lp3003
NaNaNaNaNaNaNaNaNaNaNaNaNaNaNaNaNaNaNaNaa(lp3004
NaNaNaNaNaNaNaNaNaNaNaNaNaNaNaNaNaNaNaNaa(lp3005
NaNaNaNaNaNaNaNaNaNaNaNaNaNaNaNaNaNaNaNaa(lp3006
NaNaNaNaNaNaNaNaNaNaNaNaNaNaNaNaNaNaNaNaa(lp3007
NaNaNaNaNaNaNaNaNaNaNaNaNaNaNaNaNaNaNaNaa(lp3008
NaNaNaNaNaNaNaNaNaNaNaNaNaNaNaNaNaNaNaNaa(lp3009
NaNaNaNaNaNaNaNaNaNaNaNaNaNaNaNaNaNaNaNaa(lp3010
NaNaNaNaNaNaNaNaNaNaNaNaNaNaNaNaNaNaNaNaa(lp3011
NaNaNaNaNaNaNaNaNaNaNaNaNaNaNaNaNaNaNaNaa(lp3012
NaNaNaNaNaNaNaNaNaNaNaNaNaNaNaNaNaNaNaNaa(lp3013
NaNaNaNaNaNaNaNaNaNaNaNaNaNaNaNaNaNaNaNaa(lp3014
NaNaNaNaNaNaNaNaNaNaNaNaNaNaNaNaNaNaNaNaa(lp3015
NaNaNaNaNaNaNaNaNaNaNaNaNaNaNaNaNaNaNaNaa(lp3016
NaNaNaNaNaNaNaNaNaNaNaNaNaNaNaNaNaNaNaNaa(lp3017
NaNaNaNaNaNaNaNaNaNaNaNaNaNaNaNaNaNaNaNaa(lp3018
NaNaNaNaNaNaNaNaNaNaNaNaNaNaNaNaNaNaNaNaasS'5c:95:ae:37:ff:cb'
p3019
(lp3020
(lp3021
NaNaNaNaNaNaNaNaNaNaNaNaNaNaNaNaNaNaNaNaa(lp3022
NaNaNaNaNaNaNaNaNaNaNaNaNaNaNaNaNaNaNaNaa(lp3023
NaNaNaNaNaNaNaNaNaNaNaNaNaNaNaNaNaNaNaNaa(lp3024
NaNaNaNaNaNaNaNaNaNaNaNaNaNaNaNaNaNaNaNaa(lp3025
NaNaNaNaNaNaNaNaNaNaNaNaNaNaNaNaNaNaNaNaa(lp3026
NaNaNaNaNaNaNaNaNaNaNaNaNaNaNaNaNaNaNaNaa(lp3027
NaNaNaNaNaNaNaNaNaNaNaNaNaNaNaNaNaNaNaNaa(lp3028
NaNaNaNaNaNaNaNaNaNaNaNaNaNaNaNaNaNaNaNaa(lp3029
NaNaNaNaNaNaNaNaNaNaNaNaNaNaNaNaNaNaNaNaa(lp3030
NaNaNaNaNaNaNaNaNaNaNaNaNag13
(g17
S'\x00\x00\x00\x00\x00\xa0S\xc0'
p3031
tp3032
Rp3033
ag13
(g17
S'\x00\x00\x00\x00\x00\x00S\xc0'
p3034
tp3035
Rp3036
aNaNaNaNaNaa(lp3037
NaNaNaNaNaNaNaNaNaNaNaNaNaNaNaNaNaNaNaNaa(lp3038
NaNaNaNaNaNaNaNaNaNaNaNaNaNaNaNaNaNaNaNaa(lp3039
NaNaNaNaNaNaNaNaNaNaNaNaNaNaNaNaNaNaNaNaa(lp3040
NaNaNaNaNaNaNaNaNaNaNaNaNaNaNaNaNaNaNaNaa(lp3041
NaNaNaNaNaNaNaNaNaNaNaNaNaNaNaNaNaNaNaNaa(lp3042
NaNaNaNaNaNaNaNaNaNaNaNaNaNaNaNaNaNaNaNaa(lp3043
NaNaNaNaNaNaNaNaNaNaNaNaNaNaNaNaNaNaNaNaa(lp3044
NaNaNaNaNaNaNaNaNaNaNaNaNaNaNaNaNaNaNaNaa(lp3045
NaNaNaNaNaNaNaNaNaNaNaNaNaNaNaNaNaNaNaNaa(lp3046
NaNaNaNaNaNaNaNaNaNaNaNaNaNaNaNaNaNaNaNaa(lp3047
NaNaNaNaNaNaNaNaNaNaNaNaNaNaNaNaNaNaNaNaa(lp3048
NaNaNaNaNaNaNaNaNaNaNaNaNaNaNaNaNaNaNaNaa(lp3049
NaNaNaNaNaNaNaNaNaNaNaNaNaNaNaNaNaNaNaNaa(lp3050
NaNaNaNaNaNaNaNaNaNaNaNaNaNaNaNaNaNaNaNaa(lp3051
NaNaNaNaNaNaNaNaNaNaNaNaNaNaNaNaNaNaNaNaa(lp3052
NaNaNaNaNaNaNaNaNaNaNaNaNaNaNaNaNaNaNaNaa(lp3053
NaNaNaNaNaNaNaNaNaNaNaNaNaNaNaNaNaNaNaNaasS'60:d8:19:c7:bd:78'
p3054
(lp3055
(lp3056
NaNaNaNaNaNaNaNaNaNaNaNaNaNaNaNaNaNaNaNaa(lp3057
NaNaNaNaNaNaNaNaNaNaNaNaNaNaNaNaNaNaNaNaa(lp3058
NaNaNaNaNaNaNaNaNaNaNaNaNaNaNaNaNaNaNaNaa(lp3059
NaNaNaNaNaNaNaNaNaNaNaNaNaNaNaNaNaNaNaNaa(lp3060
NaNaNaNaNaNaNaNaNaNaNaNaNaNaNaNaNaNaNaNaa(lp3061
NaNaNaNaNaNaNaNaNaNaNaNaNaNaNaNaNaNaNaNaa(lp3062
NaNaNaNaNaNaNaNaNaNaNaNaNaNaNaNaNaNaNaNaa(lp3063
NaNaNaNaNaNaNaNaNaNaNaNaNaNaNaNaNaNaNaNaa(lp3064
NaNaNaNaNaNaNaNaNaNaNaNaNaNaNaNaNaNaNaNaa(lp3065
NaNaNaNaNaNaNaNaNaNaNaNaNaNag13
(g17
S'\x00\x00\x00\x00\x00\x00\x10@'
p3066
tp3067
Rp3068
aNaNaNaNaNaa(lp3069
NaNaNaNaNaNaNaNaNaNaNaNaNaNaNaNaNaNaNaNaa(lp3070
NaNaNaNaNaNaNaNaNaNaNaNaNaNaNaNaNaNaNaNaa(lp3071
NaNaNaNaNaNaNaNaNaNaNaNaNaNaNaNaNaNaNaNaa(lp3072
NaNaNaNaNaNaNaNaNaNaNaNaNaNaNaNaNaNaNaNaa(lp3073
NaNaNaNaNaNaNaNaNaNaNaNaNaNaNaNaNaNaNaNaa(lp3074
NaNaNaNaNaNaNaNaNaNaNaNaNaNaNaNaNaNaNaNaa(lp3075
NaNaNaNaNaNaNaNaNaNaNaNaNaNaNaNaNaNaNaNaa(lp3076
NaNaNaNaNaNaNaNaNaNaNaNaNaNaNaNaNaNaNaNaa(lp3077
NaNaNaNaNaNaNaNaNaNaNaNaNaNaNaNaNaNaNaNaa(lp3078
NaNaNaNaNaNaNaNaNaNaNaNaNaNaNaNaNaNaNaNaa(lp3079
NaNaNaNaNaNaNaNaNaNaNaNaNaNaNaNaNaNaNaNaa(lp3080
NaNaNaNaNaNaNaNaNaNaNaNaNaNaNaNaNaNaNaNaa(lp3081
NaNaNaNaNaNaNaNaNaNaNaNaNaNaNaNaNaNaNaNaa(lp3082
NaNaNaNaNaNaNaNaNaNaNaNaNaNaNaNaNaNaNaNaa(lp3083
NaNaNaNaNaNaNaNaNaNaNaNaNaNaNaNaNaNaNaNaa(lp3084
NaNaNaNaNaNaNaNaNaNaNaNaNaNaNaNaNaNaNaNaa(lp3085
NaNaNaNaNaNaNaNaNaNaNaNaNaNaNaNaNaNaNaNaasS'e4:ce:8f:78:0a:c4'
p3086
(lp3087
(lp3088
NaNaNaNaNaNaNaNaNaNaNaNaNaNaNaNaNaNaNaNaa(lp3089
NaNaNaNaNaNaNaNaNaNaNaNaNaNaNaNaNaNaNaNaa(lp3090
NaNaNaNaNaNaNaNaNaNaNaNaNaNaNaNaNaNaNaNaa(lp3091
NaNaNaNaNaNaNaNaNaNaNaNaNaNaNaNaNaNaNaNaa(lp3092
NaNaNaNaNaNaNaNaNaNaNaNaNaNaNaNaNaNaNaNaa(lp3093
NaNaNaNaNaNaNaNaNaNaNaNaNaNaNaNaNaNaNaNaa(lp3094
NaNaNaNaNaNaNaNaNaNaNaNaNaNaNaNaNaNaNaNaa(lp3095
NaNaNaNaNaNaNaNaNaNaNaNaNaNaNaNaNaNaNaNaa(lp3096
NaNaNaNaNaNaNaNaNaNaNaNaNaNaNaNaNaNaNaNaa(lp3097
NaNaNaNaNaNaNaNaNaNaNaNaNaNag13
(g17
S'\xec\xc4N\xec\xc4NU\xc0'
p3098
tp3099
Rp3100
aNaNaNaNaNaa(lp3101
NaNaNaNaNaNaNaNaNaNaNaNaNaNag13
(g17
S'\x00\x00\x00\x00\x00\x00U\xc0'
p3102
tp3103
Rp3104
aNaNaNaNaNaa(lp3105
NaNaNaNaNaNaNaNaNaNaNaNaNaNaNaNaNaNaNaNaa(lp3106
NaNaNaNaNaNaNaNaNaNaNaNaNaNaNaNaNaNaNaNaa(lp3107
NaNaNaNaNaNaNaNaNaNaNaNaNaNaNaNaNaNaNaNaa(lp3108
NaNaNaNaNaNaNaNaNaNaNaNaNaNaNaNaNaNaNaNaa(lp3109
NaNaNaNaNaNaNaNaNaNaNaNaNaNaNaNaNaNaNaNaa(lp3110
NaNaNaNaNaNaNaNaNaNaNaNaNaNaNaNaNaNaNaNaa(lp3111
NaNaNaNaNaNaNaNaNaNaNaNaNaNaNaNaNaNaNaNaa(lp3112
NaNaNaNaNaNaNaNaNaNaNaNaNaNaNaNaNaNaNaNaa(lp3113
NaNaNaNaNaNaNaNaNaNaNaNaNaNaNaNaNaNaNaNaa(lp3114
NaNaNaNaNaNaNaNaNaNaNaNaNaNaNaNaNaNaNaNaa(lp3115
NaNaNaNaNaNaNaNaNaNaNaNaNaNaNaNaNaNaNaNaa(lp3116
NaNaNaNaNaNaNaNaNaNaNaNaNaNaNaNaNaNaNaNaa(lp3117
NaNaNaNaNaNaNaNaNaNaNaNaNaNaNaNaNaNaNaNaa(lp3118
NaNaNaNaNaNaNaNaNaNaNaNaNaNaNaNaNaNaNaNaa(lp3119
NaNaNaNaNaNaNaNaNaNaNaNaNaNaNaNaNaNaNaNaa(lp3120
NaNaNaNaNaNaNaNaNaNaNaNaNaNaNaNaNaNaNaNaasS'c4:43:8f:f4:80:8d'
p3121
(lp3122
(lp3123
NaNaNaNaNaNaNaNaNaNaNaNaNaNaNaNaNaNaNaNaa(lp3124
NaNaNaNaNaNaNaNaNaNaNaNaNaNaNaNaNaNaNaNaa(lp3125
NaNaNaNaNaNaNaNaNaNaNaNaNaNaNaNaNaNaNaNaa(lp3126
NaNaNaNaNaNaNaNaNaNaNaNaNaNaNaNaNaNaNaNaa(lp3127
NaNaNaNaNaNaNaNaNaNaNaNaNaNaNaNaNaNaNaNaa(lp3128
NaNaNaNaNaNaNaNaNaNaNaNaNaNaNaNaNaNaNaNaa(lp3129
NaNaNaNaNaNaNaNaNaNaNaNaNaNaNaNaNaNaNaNaa(lp3130
NaNaNaNaNaNaNaNaNaNaNaNaNaNaNaNaNaNaNaNaa(lp3131
NaNaNaNaNaNaNaNaNaNaNaNaNaNaNaNaNaNaNaNaa(lp3132
NaNaNaNaNaNaNaNaNaNaNaNaNaNag13
(g17
S'UUUUU%Q\xc0'
p3133
tp3134
Rp3135
aNaNaNaNaNaa(lp3136
NaNaNaNaNaNaNaNaNaNaNaNaNaNag13
(g17
S'\x00\x00\x00\x00\x00\xbcT\xc0'
p3137
tp3138
Rp3139
ag13
(g17
S'L\xae &W\xd0Q\xc0'
p3140
tp3141
Rp3142
aNaNaNaNaa(lp3143
NaNaNaNaNaNaNaNaNaNaNaNaNaNaNaNaNaNaNaNaa(lp3144
NaNaNaNaNaNaNaNaNaNaNaNaNaNaNaNaNaNaNaNaa(lp3145
NaNaNaNaNaNaNaNaNaNaNaNaNaNaNaNaNaNaNaNaa(lp3146
NaNaNaNaNaNaNaNaNaNaNaNaNaNaNaNaNaNaNaNaa(lp3147
NaNaNaNaNaNaNaNaNaNaNaNaNaNaNaNaNaNaNaNaa(lp3148
NaNaNaNaNaNaNaNaNaNaNaNaNaNaNaNaNaNaNaNaa(lp3149
NaNaNaNaNaNaNaNaNaNaNaNaNaNaNaNaNaNaNaNaa(lp3150
NaNaNaNaNaNaNaNaNaNaNaNaNaNaNaNaNaNaNaNaa(lp3151
NaNaNaNaNaNaNaNaNaNaNaNaNaNaNaNaNaNaNaNaa(lp3152
NaNaNaNaNaNaNaNaNaNaNaNaNaNaNaNaNaNaNaNaa(lp3153
NaNaNaNaNaNaNaNaNaNaNaNaNaNaNaNaNaNaNaNaa(lp3154
NaNaNaNaNaNaNaNaNaNaNaNaNaNaNaNaNaNaNaNaa(lp3155
NaNaNaNaNaNaNaNaNaNaNaNaNaNaNaNaNaNaNaNaa(lp3156
NaNaNaNaNaNaNaNaNaNaNaNaNaNaNaNaNaNaNaNaa(lp3157
NaNaNaNaNaNaNaNaNaNaNaNaNaNaNaNaNaNaNaNaa(lp3158
NaNaNaNaNaNaNaNaNaNaNaNaNaNaNaNaNaNaNaNaasS'00:14:d1:9f:6e:18'
p3159
(lp3160
(lp3161
NaNaNaNaNaNaNaNaNaNaNaNaNaNaNaNaNaNaNaNaa(lp3162
NaNaNaNaNaNaNaNaNaNaNaNaNaNaNaNaNaNaNaNaa(lp3163
NaNaNaNaNaNaNaNaNaNaNaNaNaNaNaNaNaNaNaNaa(lp3164
NaNaNaNaNaNaNaNaNaNaNaNaNaNaNaNaNaNaNaNaa(lp3165
NaNaNaNaNaNaNaNaNaNaNaNaNaNaNaNaNaNaNaNaa(lp3166
NaNaNaNaNaNaNaNaNaNaNaNaNaNaNaNaNaNaNaNaa(lp3167
NaNaNaNaNaNaNaNaNaNaNaNaNaNaNaNaNaNaNaNaa(lp3168
NaNaNaNaNaNaNaNaNaNaNaNaNaNaNaNaNaNaNaNaa(lp3169
NaNaNaNaNaNaNaNaNaNaNaNaNaNaNaNaNaNaNaNaa(lp3170
NaNaNaNaNaNaNaNaNaNaNaNaNag13
(g17
S'%I\x92$IRU\xc0'
p3171
tp3172
Rp3173
ag13
(g17
S'n\xdb\xb6m\xdb\xb6U\xc0'
p3174
tp3175
Rp3176
aNaNaNaNaNaa(lp3177
NaNaNaNaNaNaNaNaNaNaNaNaNaNag13
(g17
S'\xe2\xe1\xe1\xe1\xe1\xa1U\xc0'
p3178
tp3179
Rp3180
ag13
(g17
S'\xd1E\x17]t\xd1U\xc0'
p3181
tp3182
Rp3183
aNaNaNaNaa(lp3184
NaNaNaNaNaNaNaNaNaNaNaNaNaNaNaNaNaNaNaNaa(lp3185
NaNaNaNaNaNaNaNaNaNaNaNaNaNaNaNaNaNaNaNaa(lp3186
NaNaNaNaNaNaNaNaNaNaNaNaNaNaNaNaNaNaNaNaa(lp3187
NaNaNaNaNaNaNaNaNaNaNaNaNaNaNaNaNaNaNaNaa(lp3188
NaNaNaNaNaNaNaNaNaNaNaNaNaNaNaNaNaNaNaNaa(lp3189
NaNaNaNaNaNaNaNaNaNaNaNaNaNaNaNaNaNaNaNaa(lp3190
NaNaNaNaNaNaNaNaNaNaNaNaNaNaNaNaNaNaNaNaa(lp3191
NaNaNaNaNaNaNaNaNaNaNaNaNaNaNaNaNaNaNaNaa(lp3192
NaNaNaNaNaNaNaNaNaNaNaNaNaNaNaNaNaNaNaNaa(lp3193
NaNaNaNaNaNaNaNaNaNaNaNaNaNaNaNaNaNaNaNaa(lp3194
NaNaNaNaNaNaNaNaNaNaNaNaNaNaNaNaNaNaNaNaa(lp3195
NaNaNaNaNaNaNaNaNaNaNaNaNaNaNaNaNaNaNaNaa(lp3196
NaNaNaNaNaNaNaNaNaNaNaNaNaNaNaNaNaNaNaNaa(lp3197
NaNaNaNaNaNaNaNaNaNaNaNaNaNaNaNaNaNaNaNaa(lp3198
NaNaNaNaNaNaNaNaNaNaNaNaNaNaNaNaNaNaNaNaa(lp3199
NaNaNaNaNaNaNaNaNaNaNaNaNaNaNaNaNaNaNaNaasS'e8:80:2e:ca:0b:15'
p3200
(lp3201
(lp3202
NaNaNaNaNaNaNaNaNaNaNaNaNaNaNaNaNaNaNaNaa(lp3203
NaNaNaNaNaNaNaNaNaNaNaNaNaNaNaNaNaNaNaNaa(lp3204
NaNaNaNaNaNaNaNaNaNaNaNaNaNaNaNaNaNaNaNaa(lp3205
NaNaNaNaNaNaNaNaNaNaNaNaNaNaNaNaNaNaNaNaa(lp3206
NaNaNaNaNaNaNaNaNaNaNaNaNaNaNaNaNaNaNaNaa(lp3207
NaNaNaNaNaNaNaNaNaNaNaNaNaNaNaNaNaNaNaNaa(lp3208
NaNaNaNaNaNaNaNaNaNaNaNaNaNaNaNaNaNaNaNaa(lp3209
NaNaNaNaNaNaNaNaNaNaNaNaNaNaNaNaNaNaNaNaa(lp3210
NaNaNaNaNaNaNaNaNaNaNaNaNaNaNaNaNaNaNaNaa(lp3211
NaNaNaNaNaNaNaNaNaNaNaNaNaNaNaNaNaNaNaNaa(lp3212
NaNaNaNaNaNaNaNaNaNaNaNaNaNag13
(g17
S'UUUUU5V\xc0'
p3213
tp3214
Rp3215
aNaNaNaNaNaa(lp3216
NaNaNaNaNaNaNaNaNaNaNaNaNaNaNaNaNaNaNaNaa(lp3217
NaNaNaNaNaNaNaNaNaNaNaNaNaNaNaNaNaNaNaNaa(lp3218
NaNaNaNaNaNaNaNaNaNaNaNaNaNaNaNaNaNaNaNaa(lp3219
NaNaNaNaNaNaNaNaNaNaNaNaNaNaNaNaNaNaNaNaa(lp3220
NaNaNaNaNaNaNaNaNaNaNaNaNaNaNaNaNaNaNaNaa(lp3221
NaNaNaNaNaNaNaNaNaNaNaNaNaNaNaNaNaNaNaNaa(lp3222
NaNaNaNaNaNaNaNaNaNaNaNaNaNaNaNaNaNaNaNaa(lp3223
NaNaNaNaNaNaNaNaNaNaNaNaNaNaNaNaNaNaNaNaa(lp3224
NaNaNaNaNaNaNaNaNaNaNaNaNaNaNaNaNaNaNaNaa(lp3225
NaNaNaNaNaNaNaNaNaNaNaNaNaNaNaNaNaNaNaNaa(lp3226
NaNaNaNaNaNaNaNaNaNaNaNaNaNaNaNaNaNaNaNaa(lp3227
NaNaNaNaNaNaNaNaNaNaNaNaNaNaNaNaNaNaNaNaa(lp3228
NaNaNaNaNaNaNaNaNaNaNaNaNaNaNaNaNaNaNaNaa(lp3229
NaNaNaNaNaNaNaNaNaNaNaNaNaNaNaNaNaNaNaNaa(lp3230
NaNaNaNaNaNaNaNaNaNaNaNaNaNaNaNaNaNaNaNaa(lp3231
NaNaNaNaNaNaNaNaNaNaNaNaNaNaNaNaNaNaNaNaasS'e8:99:c4:bc:89:51'
p3232
(lp3233
(lp3234
NaNaNaNaNaNaNaNaNaNaNaNaNaNaNaNaNaNaNaNaa(lp3235
NaNaNaNaNaNaNaNaNaNaNaNaNaNaNaNaNaNaNaNaa(lp3236
NaNaNaNaNaNaNaNaNaNaNaNaNaNaNaNaNaNaNaNaa(lp3237
NaNaNaNaNaNaNaNaNaNaNaNaNaNaNaNaNaNaNaNaa(lp3238
NaNaNaNaNaNaNaNaNaNaNaNaNaNaNaNaNaNaNaNaa(lp3239
NaNaNaNaNaNaNaNaNaNaNaNaNaNaNaNaNaNaNaNaa(lp3240
NaNaNaNaNaNaNaNaNaNaNaNaNaNaNaNaNaNaNaNaa(lp3241
NaNaNaNaNaNaNaNaNaNaNaNaNaNaNaNaNaNaNaNaa(lp3242
NaNaNaNaNaNaNaNaNaNaNaNaNaNaNaNaNaNaNaNaa(lp3243
NaNaNaNaNaNaNaNaNaNaNaNaNag13
(g17
S'\x00\x00\x00\x00\x00\x00V\xc0'
p3244
tp3245
Rp3246
aNaNaNaNaNaNaa(lp3247
NaNaNaNaNaNaNaNaNaNaNaNaNaNaNaNaNaNaNaNaa(lp3248
NaNaNaNaNaNaNaNaNaNaNaNaNaNaNaNaNaNaNaNaa(lp3249
NaNaNaNaNaNaNaNaNaNaNaNaNaNaNaNaNaNaNaNaa(lp3250
NaNaNaNaNaNaNaNaNaNaNaNaNaNaNaNaNaNaNaNaa(lp3251
NaNaNaNaNaNaNaNaNaNaNaNaNaNaNaNaNaNaNaNaa(lp3252
NaNaNaNaNaNaNaNaNaNaNaNaNaNaNaNaNaNaNaNaa(lp3253
NaNaNaNaNaNaNaNaNaNaNaNaNaNaNaNaNaNaNaNaa(lp3254
NaNaNaNaNaNaNaNaNaNaNaNaNaNaNaNaNaNaNaNaa(lp3255
NaNaNaNaNaNaNaNaNaNaNaNaNaNaNaNaNaNaNaNaa(lp3256
NaNaNaNaNaNaNaNaNaNaNaNaNaNaNaNaNaNaNaNaa(lp3257
NaNaNaNaNaNaNaNaNaNaNaNaNaNaNaNaNaNaNaNaa(lp3258
NaNaNaNaNaNaNaNaNaNaNaNaNaNaNaNaNaNaNaNaa(lp3259
NaNaNaNaNaNaNaNaNaNaNaNaNaNaNaNaNaNaNaNaa(lp3260
NaNaNaNaNaNaNaNaNaNaNaNaNaNaNaNaNaNaNaNaa(lp3261
NaNaNaNaNaNaNaNaNaNaNaNaNaNaNaNaNaNaNaNaa(lp3262
NaNaNaNaNaNaNaNaNaNaNaNaNaNaNaNaNaNaNaNaa(lp3263
NaNaNaNaNaNaNaNaNaNaNaNaNaNaNaNaNaNaNaNaasS'0c:8b:fd:36:f1:3c'
p3264
(lp3265
(lp3266
NaNaNaNaNaNaNaNaNaNaNaNaNaNaNaNaNaNaNaNaa(lp3267
NaNaNaNaNaNaNaNaNaNaNaNaNaNaNaNaNaNaNaNaa(lp3268
NaNaNaNaNaNaNaNaNaNaNaNaNaNaNaNaNaNaNaNaa(lp3269
NaNaNaNaNaNaNaNaNaNaNaNaNaNaNaNaNaNaNaNaa(lp3270
NaNaNaNaNaNaNaNaNaNaNaNaNaNaNaNaNaNaNaNaa(lp3271
NaNaNaNaNaNaNaNaNaNaNaNaNaNaNaNaNaNaNaNaa(lp3272
NaNaNaNaNaNaNaNaNaNaNaNaNaNaNaNaNaNaNaNaa(lp3273
NaNaNaNaNaNaNaNaNaNaNaNaNaNaNaNaNaNaNaNaa(lp3274
NaNaNaNaNaNaNaNaNaNaNaNaNaNaNaNaNaNaNaNaa(lp3275
NaNaNaNaNaNaNaNaNaNaNaNaNaNag13
(g17
S'\x00\x00\x00\x00\x00\xc0T\xc0'
p3276
tp3277
Rp3278
aNaNaNaNaNaa(lp3279
NaNaNaNaNaNaNaNaNaNaNaNaNaNaNaNaNaNaNaNaa(lp3280
NaNaNaNaNaNaNaNaNaNaNaNaNaNaNaNaNaNaNaNaa(lp3281
NaNaNaNaNaNaNaNaNaNaNaNaNaNaNaNaNaNaNaNaa(lp3282
NaNaNaNaNaNaNaNaNaNaNaNaNaNaNaNaNaNaNaNaa(lp3283
NaNaNaNaNaNaNaNaNaNaNaNaNaNaNaNaNaNaNaNaa(lp3284
NaNaNaNaNaNaNaNaNaNaNaNaNaNaNaNaNaNaNaNaa(lp3285
NaNaNaNaNaNaNaNaNaNaNaNaNaNaNaNaNaNaNaNaa(lp3286
NaNaNaNaNaNaNaNaNaNaNaNaNaNaNaNaNaNaNaNaa(lp3287
NaNaNaNaNaNaNaNaNaNaNaNaNaNaNaNaNaNaNaNaa(lp3288
NaNaNaNaNaNaNaNaNaNaNaNaNaNaNaNaNaNaNaNaa(lp3289
NaNaNaNaNaNaNaNaNaNaNaNaNaNaNaNaNaNaNaNaa(lp3290
NaNaNaNaNaNaNaNaNaNaNaNaNaNaNaNaNaNaNaNaa(lp3291
NaNaNaNaNaNaNaNaNaNaNaNaNaNaNaNaNaNaNaNaa(lp3292
NaNaNaNaNaNaNaNaNaNaNaNaNaNaNaNaNaNaNaNaa(lp3293
NaNaNaNaNaNaNaNaNaNaNaNaNaNaNaNaNaNaNaNaa(lp3294
NaNaNaNaNaNaNaNaNaNaNaNaNaNaNaNaNaNaNaNaa(lp3295
NaNaNaNaNaNaNaNaNaNaNaNaNaNaNaNaNaNaNaNaasS'f8:a9:d0:01:c2:dd'
p3296
(lp3297
(lp3298
NaNaNaNaNaNaNaNaNaNaNaNaNaNaNaNaNaNaNaNaa(lp3299
NaNaNaNaNaNaNaNaNaNaNaNaNaNaNaNaNaNaNaNaa(lp3300
NaNaNaNaNaNaNaNaNaNaNaNaNaNaNaNaNaNaNaNaa(lp3301
NaNaNaNaNaNaNaNaNaNaNaNaNaNaNaNaNaNaNaNaa(lp3302
NaNaNaNaNaNaNaNaNaNaNaNaNaNaNaNaNaNaNaNaa(lp3303
NaNaNaNaNaNaNaNaNaNaNaNaNaNaNaNaNaNaNaNaa(lp3304
NaNaNaNaNaNaNaNaNaNaNaNaNaNaNaNaNaNaNaNaa(lp3305
NaNaNaNaNaNaNaNaNaNaNaNaNaNaNaNaNaNaNaNaa(lp3306
NaNaNaNaNaNaNaNaNaNaNaNaNaNaNaNaNaNaNaNaa(lp3307
NaNaNaNaNaNaNaNaNaNaNaNaNag13
(g17
S'\x00\x00\x00\x00\x00\x80S\xc0'
p3308
tp3309
Rp3310
aNaNaNaNaNaNaa(lp3311
NaNaNaNaNaNaNaNaNaNaNaNaNaNaNag13
(g17
S'\x00\x00\x00\x00\x00 V\xc0'
p3312
tp3313
Rp3314
aNaNaNaNaa(lp3315
NaNaNaNaNaNaNaNaNaNaNaNaNaNaNaNaNaNaNaNaa(lp3316
NaNaNaNaNaNaNaNaNaNaNaNaNaNaNaNaNaNaNaNaa(lp3317
NaNaNaNaNaNaNaNaNaNaNaNaNaNaNaNaNaNaNaNaa(lp3318
NaNaNaNaNaNaNaNaNaNaNaNaNaNaNaNaNaNaNaNaa(lp3319
NaNaNaNaNaNaNaNaNaNaNaNaNaNaNaNaNaNaNaNaa(lp3320
NaNaNaNaNaNaNaNaNaNaNaNaNaNaNaNaNaNaNaNaa(lp3321
NaNaNaNaNaNaNaNaNaNaNaNaNaNaNaNaNaNaNaNaa(lp3322
NaNaNaNaNaNaNaNaNaNaNaNaNaNaNaNaNaNaNaNaa(lp3323
NaNaNaNaNaNaNaNaNaNaNaNaNaNaNaNaNaNaNaNaa(lp3324
NaNaNaNaNaNaNaNaNaNaNaNaNaNaNaNaNaNaNaNaa(lp3325
NaNaNaNaNaNaNaNaNaNaNaNaNaNaNaNaNaNaNaNaa(lp3326
NaNaNaNaNaNaNaNaNaNaNaNaNaNaNaNaNaNaNaNaa(lp3327
NaNaNaNaNaNaNaNaNaNaNaNaNaNaNaNaNaNaNaNaa(lp3328
NaNaNaNaNaNaNaNaNaNaNaNaNaNaNaNaNaNaNaNaa(lp3329
NaNaNaNaNaNaNaNaNaNaNaNaNaNaNaNaNaNaNaNaa(lp3330
NaNaNaNaNaNaNaNaNaNaNaNaNaNaNaNaNaNaNaNaasS'1c:99:4c:ba:67:20'
p3331
(lp3332
(lp3333
NaNaNaNaNaNaNaNaNaNaNaNaNaNaNaNaNaNaNaNaa(lp3334
NaNaNaNaNaNaNaNaNaNaNaNaNaNaNaNaNaNaNaNaa(lp3335
NaNaNaNaNaNaNaNaNaNaNaNaNaNaNaNaNaNaNaNaa(lp3336
NaNaNaNaNaNaNaNaNaNaNaNaNaNaNaNaNaNaNaNaa(lp3337
NaNaNaNaNaNaNaNaNaNaNaNaNaNaNaNaNaNaNaNaa(lp3338
NaNaNaNaNaNaNaNaNaNaNaNaNaNaNaNaNaNaNaNaa(lp3339
NaNaNaNaNaNaNaNaNaNaNaNaNaNaNaNaNaNaNaNaa(lp3340
NaNaNaNaNaNaNaNaNaNaNaNaNaNaNaNaNaNaNaNaa(lp3341
NaNaNaNaNaNaNaNaNaNaNaNaNaNaNaNaNaNaNaNaa(lp3342
NaNaNaNaNaNaNaNaNaNaNaNaNag13
(g17
S'\x00\x00\x00\x00\x00@U\xc0'
p3343
tp3344
Rp3345
aNaNaNaNaNaNaa(lp3346
NaNaNaNaNaNaNaNaNaNaNaNaNaNaNaNaNaNaNaNaa(lp3347
NaNaNaNaNaNaNaNaNaNaNaNaNaNaNaNaNaNaNaNaa(lp3348
NaNaNaNaNaNaNaNaNaNaNaNaNaNaNaNaNaNaNaNaa(lp3349
NaNaNaNaNaNaNaNaNaNaNaNaNaNaNaNaNaNaNaNaa(lp3350
NaNaNaNaNaNaNaNaNaNaNaNaNaNaNaNaNaNaNaNaa(lp3351
NaNaNaNaNaNaNaNaNaNaNaNaNaNaNaNaNaNaNaNaa(lp3352
NaNaNaNaNaNaNaNaNaNaNaNaNaNaNaNaNaNaNaNaa(lp3353
NaNaNaNaNaNaNaNaNaNaNaNaNaNaNaNaNaNaNaNaa(lp3354
NaNaNaNaNaNaNaNaNaNaNaNaNaNaNaNaNaNaNaNaa(lp3355
NaNaNaNaNaNaNaNaNaNaNaNaNaNaNaNaNaNaNaNaa(lp3356
NaNaNaNaNaNaNaNaNaNaNaNaNaNaNaNaNaNaNaNaa(lp3357
NaNaNaNaNaNaNaNaNaNaNaNaNaNaNaNaNaNaNaNaa(lp3358
NaNaNaNaNaNaNaNaNaNaNaNaNaNaNaNaNaNaNaNaa(lp3359
NaNaNaNaNaNaNaNaNaNaNaNaNaNaNaNaNaNaNaNaa(lp3360
NaNaNaNaNaNaNaNaNaNaNaNaNaNaNaNaNaNaNaNaa(lp3361
NaNaNaNaNaNaNaNaNaNaNaNaNaNaNaNaNaNaNaNaa(lp3362
NaNaNaNaNaNaNaNaNaNaNaNaNaNaNaNaNaNaNaNaasS'28:cf:e9:5a:09:09'
p3363
(lp3364
(lp3365
NaNaNaNaNaNaNaNaNaNaNaNaNaNaNaNaNaNaNaNaa(lp3366
NaNaNaNaNaNaNaNaNaNaNaNaNaNaNaNaNaNaNaNaa(lp3367
NaNaNaNaNaNaNaNaNaNaNaNaNaNaNaNaNaNaNaNaa(lp3368
NaNaNaNaNaNaNaNaNaNaNaNaNaNaNaNaNaNaNaNaa(lp3369
NaNaNaNaNaNaNaNaNaNaNaNaNaNaNaNaNaNaNaNaa(lp3370
NaNaNaNaNaNaNaNaNaNaNaNaNaNaNaNaNaNaNaNaa(lp3371
NaNaNaNaNaNaNaNaNaNaNaNaNaNaNaNaNaNaNaNaa(lp3372
NaNaNaNaNaNaNaNaNaNaNaNaNaNaNaNaNaNaNaNaa(lp3373
NaNaNaNaNaNaNaNaNaNaNaNaNaNaNaNaNaNaNaNaa(lp3374
NaNaNaNaNaNaNaNaNaNaNaNaNaNag13
(g17
S'\x00\x00\x00\x00\x00\xe0R\xc0'
p3375
tp3376
Rp3377
aNaNaNaNaNaa(lp3378
NaNaNaNaNaNaNaNaNaNaNaNaNaNaNag13
(g17
S'\x00\x00\x00\x00\x00\xe0R\xc0'
p3379
tp3380
Rp3381
aNaNaNaNaa(lp3382
NaNaNaNaNaNaNaNaNaNaNaNaNaNaNaNaNaNaNaNaa(lp3383
NaNaNaNaNaNaNaNaNaNaNaNaNaNaNaNaNaNaNaNaa(lp3384
NaNaNaNaNaNaNaNaNaNaNaNaNaNaNaNaNaNaNaNaa(lp3385
NaNaNaNaNaNaNaNaNaNaNaNaNaNaNaNaNaNaNaNaa(lp3386
NaNaNaNaNaNaNaNaNaNaNaNaNaNaNaNaNaNaNaNaa(lp3387
NaNaNaNaNaNaNaNaNaNaNaNaNaNaNaNaNaNaNaNaa(lp3388
NaNaNaNaNaNaNaNaNaNaNaNaNaNaNaNaNaNaNaNaa(lp3389
NaNaNaNaNaNaNaNaNaNaNaNaNaNaNaNaNaNaNaNaa(lp3390
NaNaNaNaNaNaNaNaNaNaNaNaNaNaNaNaNaNaNaNaa(lp3391
NaNaNaNaNaNaNaNaNaNaNaNaNaNaNaNaNaNaNaNaa(lp3392
NaNaNaNaNaNaNaNaNaNaNaNaNaNaNaNaNaNaNaNaa(lp3393
NaNaNaNaNaNaNaNaNaNaNaNaNaNaNaNaNaNaNaNaa(lp3394
NaNaNaNaNaNaNaNaNaNaNaNaNaNaNaNaNaNaNaNaa(lp3395
NaNaNaNaNaNaNaNaNaNaNaNaNaNaNaNaNaNaNaNaa(lp3396
NaNaNaNaNaNaNaNaNaNaNaNaNaNaNaNaNaNaNaNaa(lp3397
NaNaNaNaNaNaNaNaNaNaNaNaNaNaNaNaNaNaNaNaasS'00:24:6c:a9:e3:40'
p3398
(lp3399
(lp3400
NaNaNaNaNaNaNaNaNaNaNaNaNaNaNaNaNaNaNaNaa(lp3401
NaNaNaNaNaNaNaNaNaNaNaNaNaNaNaNaNaNaNaNaa(lp3402
NaNaNaNaNaNaNaNaNaNaNaNaNaNaNaNaNaNaNaNaa(lp3403
NaNaNaNaNaNaNaNaNaNaNaNaNaNaNaNaNaNaNaNaa(lp3404
NaNaNaNaNaNaNaNaNaNaNaNaNaNaNaNaNaNaNaNaa(lp3405
NaNaNaNaNaNaNaNaNaNaNaNaNaNaNaNaNaNaNaNaa(lp3406
NaNaNaNaNaNaNaNaNaNaNaNaNaNaNaNaNaNaNaNaa(lp3407
NaNaNaNaNaNaNaNaNaNaNaNaNaNaNaNaNaNaNaNaa(lp3408
NaNaNaNaNaNaNaNaNaNaNaNaNaNaNaNaNaNaNaNaa(lp3409
NaNaNaNaNaNaNaNaNaNaNaNaNag13
(g17
S'\x00\x00\x00\x00\x00@U\xc0'
p3410
tp3411
Rp3412
aNaNaNaNaNaNaa(lp3413
NaNaNaNaNaNaNaNaNaNaNaNaNaNaNaNaNaNaNaNaa(lp3414
NaNaNaNaNaNaNaNaNaNaNaNaNaNaNaNaNaNaNaNaa(lp3415
NaNaNaNaNaNaNaNaNaNaNaNaNaNaNaNaNaNaNaNaa(lp3416
NaNaNaNaNaNaNaNaNaNaNaNaNaNaNaNaNaNaNaNaa(lp3417
NaNaNaNaNaNaNaNaNaNaNaNaNaNaNaNaNaNaNaNaa(lp3418
NaNaNaNaNaNaNaNaNaNaNaNaNaNaNaNaNaNaNaNaa(lp3419
NaNaNaNaNaNaNaNaNaNaNaNaNaNaNaNaNaNaNaNaa(lp3420
NaNaNaNaNaNaNaNaNaNaNaNaNaNaNaNaNaNaNaNaa(lp3421
NaNaNaNaNaNaNaNaNaNaNaNaNaNaNaNaNaNaNaNaa(lp3422
NaNaNaNaNaNaNaNaNaNaNaNaNaNaNaNaNaNaNaNaa(lp3423
NaNaNaNaNaNaNaNaNaNaNaNaNaNaNaNaNaNaNaNaa(lp3424
NaNaNaNaNaNaNaNaNaNaNaNaNaNaNaNaNaNaNaNaa(lp3425
NaNaNaNaNaNaNaNaNaNaNaNaNaNaNaNaNaNaNaNaa(lp3426
NaNaNaNaNaNaNaNaNaNaNaNaNaNaNaNaNaNaNaNaa(lp3427
NaNaNaNaNaNaNaNaNaNaNaNaNaNaNaNaNaNaNaNaa(lp3428
NaNaNaNaNaNaNaNaNaNaNaNaNaNaNaNaNaNaNaNaa(lp3429
NaNaNaNaNaNaNaNaNaNaNaNaNaNaNaNaNaNaNaNaasS'82:3a:c5:35:3e:64'
p3430
(lp3431
(lp3432
NaNaNaNaNaNaNaNaNaNaNaNaNaNaNaNaNaNaNaNaa(lp3433
NaNaNaNaNaNaNaNaNaNaNaNaNaNaNaNaNaNaNaNaa(lp3434
NaNaNaNaNaNaNaNaNaNaNaNaNaNaNaNaNaNaNaNaa(lp3435
NaNaNaNaNaNaNaNaNaNaNaNaNaNaNaNaNaNaNaNaa(lp3436
NaNaNaNaNaNaNaNaNaNaNaNaNaNaNaNaNaNaNaNaa(lp3437
NaNaNaNaNaNaNaNaNaNaNaNaNaNaNaNaNaNaNaNaa(lp3438
NaNaNaNaNaNaNaNaNaNaNaNaNaNaNaNaNaNaNaNaa(lp3439
NaNaNaNaNaNaNaNaNaNaNaNaNaNaNaNaNaNaNaNaa(lp3440
NaNaNaNaNaNaNaNaNaNaNaNaNaNaNaNaNaNaNaNaa(lp3441
NaNaNaNaNaNaNaNaNaNaNaNaNag13
(g17
S'\x00\x00\x00\x00\x00\x00U\xc0'
p3442
tp3443
Rp3444
aNaNaNaNaNaNaa(lp3445
NaNaNaNaNaNaNaNaNaNaNaNaNaNaNaNaNaNaNaNaa(lp3446
NaNaNaNaNaNaNaNaNaNaNaNaNaNaNaNaNaNaNaNaa(lp3447
NaNaNaNaNaNaNaNaNaNaNaNaNaNaNaNaNaNaNaNaa(lp3448
NaNaNaNaNaNaNaNaNaNaNaNaNaNaNaNaNaNaNaNaa(lp3449
NaNaNaNaNaNaNaNaNaNaNaNaNaNaNaNaNaNaNaNaa(lp3450
NaNaNaNaNaNaNaNaNaNaNaNaNaNaNaNaNaNaNaNaa(lp3451
NaNaNaNaNaNaNaNaNaNaNaNaNaNaNaNaNaNaNaNaa(lp3452
NaNaNaNaNaNaNaNaNaNaNaNaNaNaNaNaNaNaNaNaa(lp3453
NaNaNaNaNaNaNaNaNaNaNaNaNaNaNaNaNaNaNaNaa(lp3454
NaNaNaNaNaNaNaNaNaNaNaNaNaNaNaNaNaNaNaNaa(lp3455
NaNaNaNaNaNaNaNaNaNaNaNaNaNaNaNaNaNaNaNaa(lp3456
NaNaNaNaNaNaNaNaNaNaNaNaNaNaNaNaNaNaNaNaa(lp3457
NaNaNaNaNaNaNaNaNaNaNaNaNaNaNaNaNaNaNaNaa(lp3458
NaNaNaNaNaNaNaNaNaNaNaNaNaNaNaNaNaNaNaNaa(lp3459
NaNaNaNaNaNaNaNaNaNaNaNaNaNaNaNaNaNaNaNaa(lp3460
NaNaNaNaNaNaNaNaNaNaNaNaNaNaNaNaNaNaNaNaa(lp3461
NaNaNaNaNaNaNaNaNaNaNaNaNaNaNaNaNaNaNaNaasS'84:7a:88:13:dc:84'
p3462
(lp3463
(lp3464
NaNaNaNaNaNaNaNaNaNaNaNaNaNaNaNaNaNaNaNaa(lp3465
NaNaNaNaNaNaNaNaNaNaNaNaNaNaNaNaNaNaNaNaa(lp3466
NaNaNaNaNaNaNaNaNaNaNaNaNaNaNaNaNaNaNaNaa(lp3467
NaNaNaNaNaNaNaNaNaNaNaNaNaNaNaNaNaNaNaNaa(lp3468
NaNaNaNaNaNaNaNaNaNaNaNaNaNaNaNaNaNaNaNaa(lp3469
NaNaNaNaNaNaNaNaNaNaNaNaNaNaNaNaNaNaNaNaa(lp3470
NaNaNaNaNaNaNaNaNaNaNaNaNaNaNaNaNaNaNaNaa(lp3471
NaNaNaNaNaNaNaNaNaNaNaNaNaNaNaNaNaNaNaNaa(lp3472
NaNaNaNaNaNaNaNaNaNaNaNaNaNaNaNaNaNaNaNaa(lp3473
NaNaNaNaNaNaNaNaNaNaNaNaNaNag13
(g17
S'\x00\x00\x00\x00\x00PT\xc0'
p3474
tp3475
Rp3476
aNaNaNaNaNaa(lp3477
NaNaNaNaNaNaNaNaNaNaNaNaNaNaNaNaNaNaNaNaa(lp3478
NaNaNaNaNaNaNaNaNaNaNaNaNaNaNaNaNaNaNaNaa(lp3479
NaNaNaNaNaNaNaNaNaNaNaNaNaNaNaNaNaNaNaNaa(lp3480
NaNaNaNaNaNaNaNaNaNaNaNaNaNaNaNaNaNaNaNaa(lp3481
NaNaNaNaNaNaNaNaNaNaNaNaNaNaNaNaNaNaNaNaa(lp3482
NaNaNaNaNaNaNaNaNaNaNaNaNaNaNaNaNaNaNaNaa(lp3483
NaNaNaNaNaNaNaNaNaNaNaNaNaNaNaNaNaNaNaNaa(lp3484
NaNaNaNaNaNaNaNaNaNaNaNaNaNaNaNaNaNaNaNaa(lp3485
NaNaNaNaNaNaNaNaNaNaNaNaNaNaNaNaNaNaNaNaa(lp3486
NaNaNaNaNaNaNaNaNaNaNaNaNaNaNaNaNaNaNaNaa(lp3487
NaNaNaNaNaNaNaNaNaNaNaNaNaNaNaNaNaNaNaNaa(lp3488
NaNaNaNaNaNaNaNaNaNaNaNaNaNaNaNaNaNaNaNaa(lp3489
NaNaNaNaNaNaNaNaNaNaNaNaNaNaNaNaNaNaNaNaa(lp3490
NaNaNaNaNaNaNaNaNaNaNaNaNaNaNaNaNaNaNaNaa(lp3491
NaNaNaNaNaNaNaNaNaNaNaNaNaNaNaNaNaNaNaNaa(lp3492
NaNaNaNaNaNaNaNaNaNaNaNaNaNaNaNaNaNaNaNaa(lp3493
NaNaNaNaNaNaNaNaNaNaNaNaNaNaNaNaNaNaNaNaasS'50:2e:5c:3a:3c:e4'
p3494
(lp3495
(lp3496
NaNaNaNaNaNaNaNaNaNaNaNaNaNaNaNaNaNaNaNaa(lp3497
NaNaNaNaNaNaNaNaNaNaNaNaNaNaNaNaNaNaNaNaa(lp3498
NaNaNaNaNaNaNaNaNaNaNaNaNaNaNaNaNaNaNaNaa(lp3499
NaNaNaNaNaNaNaNaNaNaNaNaNaNaNaNaNaNaNaNaa(lp3500
NaNaNaNaNaNaNaNaNaNaNaNaNaNaNaNaNaNaNaNaa(lp3501
NaNaNaNaNaNaNaNaNaNaNaNaNaNaNaNaNaNaNaNaa(lp3502
NaNaNaNaNaNaNaNaNaNaNaNaNaNaNaNaNaNaNaNaa(lp3503
NaNaNaNaNaNaNaNaNaNaNaNaNaNaNaNaNaNaNaNaa(lp3504
NaNaNaNaNaNaNaNaNaNaNaNaNaNaNaNaNaNaNaNaa(lp3505
NaNaNaNaNaNaNaNaNaNaNaNaNag13
(g17
S'\xbc\xbb\xbb\xbb\xbb{T\xc0'
p3506
tp3507
Rp3508
aNaNaNaNaNaNaa(lp3509
NaNaNaNaNaNaNaNaNaNaNaNaNaNaNaNaNaNaNaNaa(lp3510
NaNaNaNaNaNaNaNaNaNaNaNaNaNaNaNaNaNaNaNaa(lp3511
NaNaNaNaNaNaNaNaNaNaNaNaNaNaNaNaNaNaNaNaa(lp3512
NaNaNaNaNaNaNaNaNaNaNaNaNaNaNaNaNaNaNaNaa(lp3513
NaNaNaNaNaNaNaNaNaNaNaNaNaNaNaNaNaNaNaNaa(lp3514
NaNaNaNaNaNaNaNaNaNaNaNaNaNaNaNaNaNaNaNaa(lp3515
NaNaNaNaNaNaNaNaNaNaNaNaNaNaNaNaNaNaNaNaa(lp3516
NaNaNaNaNaNaNaNaNaNaNaNaNaNaNaNaNaNaNaNaa(lp3517
NaNaNaNaNaNaNaNaNaNaNaNaNaNaNaNaNaNaNaNaa(lp3518
NaNaNaNaNaNaNaNaNaNaNaNaNaNaNaNaNaNaNaNaa(lp3519
NaNaNaNaNaNaNaNaNaNaNaNaNaNaNaNaNaNaNaNaa(lp3520
NaNaNaNaNaNaNaNaNaNaNaNaNaNaNaNaNaNaNaNaa(lp3521
NaNaNaNaNaNaNaNaNaNaNaNaNaNaNaNaNaNaNaNaa(lp3522
NaNaNaNaNaNaNaNaNaNaNaNaNaNaNaNaNaNaNaNaa(lp3523
NaNaNaNaNaNaNaNaNaNaNaNaNaNaNaNaNaNaNaNaa(lp3524
NaNaNaNaNaNaNaNaNaNaNaNaNaNaNaNaNaNaNaNaa(lp3525
NaNaNaNaNaNaNaNaNaNaNaNaNaNaNaNaNaNaNaNaasS'80:96:b1:35:a2:36'
p3526
(lp3527
(lp3528
NaNaNaNaNaNaNaNaNaNaNaNaNaNaNaNaNaNaNaNaa(lp3529
NaNaNaNaNaNaNaNaNaNaNaNaNaNaNaNaNaNaNaNaa(lp3530
NaNaNaNaNaNaNaNaNaNaNaNaNaNaNaNaNaNaNaNaa(lp3531
NaNaNaNaNaNaNaNaNaNaNaNaNaNaNaNaNaNaNaNaa(lp3532
NaNaNaNaNaNaNaNaNaNaNaNaNaNaNaNaNaNaNaNaa(lp3533
NaNaNaNaNaNaNaNaNaNaNaNaNaNaNaNaNaNaNaNaa(lp3534
NaNaNaNaNaNaNaNaNaNaNaNaNaNaNaNaNaNaNaNaa(lp3535
NaNaNaNaNaNaNaNaNaNaNaNaNaNaNaNaNaNaNaNaa(lp3536
NaNaNaNaNaNaNaNaNaNaNaNaNaNaNaNaNaNaNaNaa(lp3537
NaNaNaNaNaNaNaNaNaNaNaNaNag13
(g17
S'%I\x92$I\x92N\xc0'
p3538
tp3539
Rp3540
ag13
(g17
S'\xb7m\xdb\xb6m\xdbO\xc0'
p3541
tp3542
Rp3543
aNaNaNaNaNaa(lp3544
NaNaNaNaNaNaNaNaNaNaNaNaNaNag13
(g17
S'\x00\x00\x00\x00\x00\xd0P\xc0'
p3545
tp3546
Rp3547
aNaNaNaNaNaa(lp3548
NaNaNaNaNaNaNaNaNaNaNaNaNaNaNaNaNaNaNaNaa(lp3549
NaNaNaNaNaNaNaNaNaNaNaNaNaNaNaNaNaNaNaNaa(lp3550
NaNaNaNaNaNaNaNaNaNaNaNaNaNaNaNaNaNaNaNaa(lp3551
NaNaNaNaNaNaNaNaNaNaNaNaNaNaNaNaNaNaNaNaa(lp3552
NaNaNaNaNaNaNaNaNaNaNaNaNaNaNaNaNaNaNaNaa(lp3553
NaNaNaNaNaNaNaNaNaNaNaNaNaNaNaNaNaNaNaNaa(lp3554
NaNaNaNaNaNaNaNaNaNaNaNaNaNaNaNaNaNaNaNaa(lp3555
NaNaNaNaNaNaNaNaNaNaNaNaNaNaNaNaNaNaNaNaa(lp3556
NaNaNaNaNaNaNaNaNaNaNaNaNaNaNaNaNaNaNaNaa(lp3557
NaNaNaNaNaNaNaNaNaNaNaNaNaNaNaNaNaNaNaNaa(lp3558
NaNaNaNaNaNaNaNaNaNaNaNaNaNaNaNaNaNaNaNaa(lp3559
NaNaNaNaNaNaNaNaNaNaNaNaNaNaNaNaNaNaNaNaa(lp3560
NaNaNaNaNaNaNaNaNaNaNaNaNaNaNaNaNaNaNaNaa(lp3561
NaNaNaNaNaNaNaNaNaNaNaNaNaNaNaNaNaNaNaNaa(lp3562
NaNaNaNaNaNaNaNaNaNaNaNaNaNaNaNaNaNaNaNaa(lp3563
NaNaNaNaNaNaNaNaNaNaNaNaNaNaNaNaNaNaNaNaasS'40:25:c2:49:64:14'
p3564
(lp3565
(lp3566
NaNaNaNaNaNaNaNaNaNaNaNaNaNaNaNaNaNaNaNaa(lp3567
NaNaNaNaNaNaNaNaNaNaNaNaNaNaNaNaNaNaNaNaa(lp3568
NaNaNaNaNaNaNaNaNaNaNaNaNaNaNaNaNaNaNaNaa(lp3569
NaNaNaNaNaNaNaNaNaNaNaNaNaNaNaNaNaNaNaNaa(lp3570
NaNaNaNaNaNaNaNaNaNaNaNaNaNaNaNaNaNaNaNaa(lp3571
NaNaNaNaNaNaNaNaNaNaNaNaNaNaNaNaNaNaNaNaa(lp3572
NaNaNaNaNaNaNaNaNaNaNaNaNaNaNaNaNaNaNaNaa(lp3573
NaNaNaNaNaNaNaNaNaNaNaNaNaNaNaNaNaNaNaNaa(lp3574
NaNaNaNaNaNaNaNaNaNaNaNaNaNaNaNaNaNaNaNaa(lp3575
NaNaNaNaNaNaNaNaNaNaNaNaNaNag13
(g17
S')\xa5\x94RJ\xe9U\xc0'
p3576
tp3577
Rp3578
aNaNaNaNaNaa(lp3579
NaNaNaNaNaNaNaNaNaNaNaNaNaNag13
(g17
S'\x00\x00\x00\x00\x00\xc0U\xc0'
p3580
tp3581
Rp3582
aNaNaNaNaNaa(lp3583
NaNaNaNaNaNaNaNaNaNaNaNaNaNaNaNaNaNaNaNaa(lp3584
NaNaNaNaNaNaNaNaNaNaNaNaNaNaNaNaNaNaNaNaa(lp3585
NaNaNaNaNaNaNaNaNaNaNaNaNaNaNaNaNaNaNaNaa(lp3586
NaNaNaNaNaNaNaNaNaNaNaNaNaNaNaNaNaNaNaNaa(lp3587
NaNaNaNaNaNaNaNaNaNaNaNaNaNaNaNaNaNaNaNaa(lp3588
NaNaNaNaNaNaNaNaNaNaNaNaNaNaNaNaNaNaNaNaa(lp3589
NaNaNaNaNaNaNaNaNaNaNaNaNaNaNaNaNaNaNaNaa(lp3590
NaNaNaNaNaNaNaNaNaNaNaNaNaNaNaNaNaNaNaNaa(lp3591
NaNaNaNaNaNaNaNaNaNaNaNaNaNaNaNaNaNaNaNaa(lp3592
NaNaNaNaNaNaNaNaNaNaNaNaNaNaNaNaNaNaNaNaa(lp3593
NaNaNaNaNaNaNaNaNaNaNaNaNaNaNaNaNaNaNaNaa(lp3594
NaNaNaNaNaNaNaNaNaNaNaNaNaNaNaNaNaNaNaNaa(lp3595
NaNaNaNaNaNaNaNaNaNaNaNaNaNaNaNaNaNaNaNaa(lp3596
NaNaNaNaNaNaNaNaNaNaNaNaNaNaNaNaNaNaNaNaa(lp3597
NaNaNaNaNaNaNaNaNaNaNaNaNaNaNaNaNaNaNaNaa(lp3598
NaNaNaNaNaNaNaNaNaNaNaNaNaNaNaNaNaNaNaNaasS'00:00:48:22:bf:eb'
p3599
(lp3600
(lp3601
NaNaNaNaNaNaNaNaNaNaNaNaNaNaNaNaNaNaNaNaa(lp3602
NaNaNaNaNaNaNaNaNaNaNaNaNaNaNaNaNaNaNaNaa(lp3603
NaNaNaNaNaNaNaNaNaNaNaNaNaNaNaNaNaNaNaNaa(lp3604
NaNaNaNaNaNaNaNaNaNaNaNaNaNaNaNaNaNaNaNaa(lp3605
NaNaNaNaNaNaNaNaNaNaNaNaNaNaNaNaNaNaNaNaa(lp3606
NaNaNaNaNaNaNaNaNaNaNaNaNaNaNaNaNaNaNaNaa(lp3607
NaNaNaNaNaNaNaNaNaNaNaNaNaNaNaNaNaNaNaNaa(lp3608
NaNaNaNaNaNaNaNaNaNaNaNaNaNaNaNaNaNaNaNaa(lp3609
NaNaNaNaNaNaNaNaNaNaNaNaNaNaNaNaNaNaNaNaa(lp3610
NaNaNaNaNaNaNaNaNaNaNaNaNag13
(g17
S'fffff&T\xc0'
p3611
tp3612
Rp3613
ag13
(g17
S'\xab\xaa\xaa\xaa\xaajT\xc0'
p3614
tp3615
Rp3616
aNaNaNaNaNaa(lp3617
NaNaNaNaNaNaNaNaNaNaNaNaNaNag13
(g17
S'F\x17]t\xd1\x85T\xc0'
p3618
tp3619
Rp3620
ag13
(g17
S'\x88\x87\x87\x87\x87GT\xc0'
p3621
tp3622
Rp3623
aNaNaNaNaa(lp3624
NaNaNaNaNaNaNaNaNaNaNaNaNaNaNaNaNaNaNaNaa(lp3625
NaNaNaNaNaNaNaNaNaNaNaNaNaNaNaNaNaNaNaNaa(lp3626
NaNaNaNaNaNaNaNaNaNaNaNaNaNaNaNaNaNaNaNaa(lp3627
NaNaNaNaNaNaNaNaNaNaNaNaNaNaNaNaNaNaNaNaa(lp3628
NaNaNaNaNaNaNaNaNaNaNaNaNaNaNaNaNaNaNaNaa(lp3629
NaNaNaNaNaNaNaNaNaNaNaNaNaNaNaNaNaNaNaNaa(lp3630
NaNaNaNaNaNaNaNaNaNaNaNaNaNaNaNaNaNaNaNaa(lp3631
NaNaNaNaNaNaNaNaNaNaNaNaNaNaNaNaNaNaNaNaa(lp3632
NaNaNaNaNaNaNaNaNaNaNaNaNaNaNaNaNaNaNaNaa(lp3633
NaNaNaNaNaNaNaNaNaNaNaNaNaNaNaNaNaNaNaNaa(lp3634
NaNaNaNaNaNaNaNaNaNaNaNaNaNaNaNaNaNaNaNaa(lp3635
NaNaNaNaNaNaNaNaNaNaNaNaNaNaNaNaNaNaNaNaa(lp3636
NaNaNaNaNaNaNaNaNaNaNaNaNaNaNaNaNaNaNaNaa(lp3637
NaNaNaNaNaNaNaNaNaNaNaNaNaNaNaNaNaNaNaNaa(lp3638
NaNaNaNaNaNaNaNaNaNaNaNaNaNaNaNaNaNaNaNaa(lp3639
NaNaNaNaNaNaNaNaNaNaNaNaNaNaNaNaNaNaNaNaasS'7a:c5:9f:63:41:cd'
p3640
(lp3641
(lp3642
NaNaNaNaNaNaNaNaNaNaNaNaNaNaNaNaNaNaNaNaa(lp3643
NaNaNaNaNaNaNaNaNaNaNaNaNaNaNaNaNaNaNaNaa(lp3644
NaNaNaNaNaNaNaNaNaNaNaNaNaNaNaNaNaNaNaNaa(lp3645
NaNaNaNaNaNaNaNaNaNaNaNaNaNaNaNaNaNaNaNaa(lp3646
NaNaNaNaNaNaNaNaNaNaNaNaNaNaNaNaNaNaNaNaa(lp3647
NaNaNaNaNaNaNaNaNaNaNaNaNaNaNaNaNaNaNaNaa(lp3648
NaNaNaNaNaNaNaNaNaNaNaNaNaNaNaNaNaNaNaNaa(lp3649
NaNaNaNaNaNaNaNaNaNaNaNaNaNaNaNaNaNaNaNaa(lp3650
NaNaNaNaNaNaNaNaNaNaNaNaNaNaNaNaNaNaNaNaa(lp3651
NaNaNaNaNaNaNaNaNaNaNaNaNaNag13
(g17
S'\x00\x00\x00\x00\x00\x80V\xc0'
p3652
tp3653
Rp3654
aNaNaNaNaNaa(lp3655
NaNaNaNaNaNaNaNaNaNaNaNaNaNaNaNaNaNaNaNaa(lp3656
NaNaNaNaNaNaNaNaNaNaNaNaNaNaNaNaNaNaNaNaa(lp3657
NaNaNaNaNaNaNaNaNaNaNaNaNaNaNaNaNaNaNaNaa(lp3658
NaNaNaNaNaNaNaNaNaNaNaNaNaNaNaNaNaNaNaNaa(lp3659
NaNaNaNaNaNaNaNaNaNaNaNaNaNaNaNaNaNaNaNaa(lp3660
NaNaNaNaNaNaNaNaNaNaNaNaNaNaNaNaNaNaNaNaa(lp3661
NaNaNaNaNaNaNaNaNaNaNaNaNaNaNaNaNaNaNaNaa(lp3662
NaNaNaNaNaNaNaNaNaNaNaNaNaNaNaNaNaNaNaNaa(lp3663
NaNaNaNaNaNaNaNaNaNaNaNaNaNaNaNaNaNaNaNaa(lp3664
NaNaNaNaNaNaNaNaNaNaNaNaNaNaNaNaNaNaNaNaa(lp3665
NaNaNaNaNaNaNaNaNaNaNaNaNaNaNaNaNaNaNaNaa(lp3666
NaNaNaNaNaNaNaNaNaNaNaNaNaNaNaNaNaNaNaNaa(lp3667
NaNaNaNaNaNaNaNaNaNaNaNaNaNaNaNaNaNaNaNaa(lp3668
NaNaNaNaNaNaNaNaNaNaNaNaNaNaNaNaNaNaNaNaa(lp3669
NaNaNaNaNaNaNaNaNaNaNaNaNaNaNaNaNaNaNaNaa(lp3670
NaNaNaNaNaNaNaNaNaNaNaNaNaNaNaNaNaNaNaNaa(lp3671
NaNaNaNaNaNaNaNaNaNaNaNaNaNaNaNaNaNaNaNaasS'd8:30:62:4e:d6:fe'
p3672
(lp3673
(lp3674
NaNaNaNaNaNaNaNaNaNaNaNaNaNaNaNaNaNaNaNaa(lp3675
NaNaNaNaNaNaNaNaNaNaNaNaNaNaNaNaNaNaNaNaa(lp3676
NaNaNaNaNaNaNaNaNaNaNaNaNaNaNaNaNaNaNaNaa(lp3677
NaNaNaNaNaNaNaNaNaNaNaNaNaNaNaNaNaNaNaNaa(lp3678
NaNaNaNaNaNaNaNaNaNaNaNaNaNaNaNaNaNaNaNaa(lp3679
NaNaNaNaNaNaNaNaNaNaNaNaNaNaNaNaNaNaNaNaa(lp3680
NaNaNaNaNaNaNaNaNaNaNaNaNaNaNaNaNaNaNaNaa(lp3681
NaNaNaNaNaNaNaNaNaNaNaNaNaNaNaNaNaNaNaNaa(lp3682
NaNaNaNaNaNaNaNaNaNaNaNaNaNaNaNaNaNaNaNaa(lp3683
NaNaNaNaNaNaNaNaNaNaNaNaNaNag13
(g17
S'\x00\x00\x00\x00\x00\x80T\xc0'
p3684
tp3685
Rp3686
aNaNaNaNaNaa(lp3687
NaNaNaNaNaNaNaNaNaNaNaNaNaNaNaNaNaNaNaNaa(lp3688
NaNaNaNaNaNaNaNaNaNaNaNaNaNaNaNaNaNaNaNaa(lp3689
NaNaNaNaNaNaNaNaNaNaNaNaNaNaNaNaNaNaNaNaa(lp3690
NaNaNaNaNaNaNaNaNaNaNaNaNaNaNaNaNaNaNaNaa(lp3691
NaNaNaNaNaNaNaNaNaNaNaNaNaNaNaNaNaNaNaNaa(lp3692
NaNaNaNaNaNaNaNaNaNaNaNaNaNaNaNaNaNaNaNaa(lp3693
NaNaNaNaNaNaNaNaNaNaNaNaNaNaNaNaNaNaNaNaa(lp3694
NaNaNaNaNaNaNaNaNaNaNaNaNaNaNaNaNaNaNaNaa(lp3695
NaNaNaNaNaNaNaNaNaNaNaNaNaNaNaNaNaNaNaNaa(lp3696
NaNaNaNaNaNaNaNaNaNaNaNaNaNaNaNaNaNaNaNaa(lp3697
NaNaNaNaNaNaNaNaNaNaNaNaNaNaNaNaNaNaNaNaa(lp3698
NaNaNaNaNaNaNaNaNaNaNaNaNaNaNaNaNaNaNaNaa(lp3699
NaNaNaNaNaNaNaNaNaNaNaNaNaNaNaNaNaNaNaNaa(lp3700
NaNaNaNaNaNaNaNaNaNaNaNaNaNaNaNaNaNaNaNaa(lp3701
NaNaNaNaNaNaNaNaNaNaNaNaNaNaNaNaNaNaNaNaa(lp3702
NaNaNaNaNaNaNaNaNaNaNaNaNaNaNaNaNaNaNaNaa(lp3703
NaNaNaNaNaNaNaNaNaNaNaNaNaNaNaNaNaNaNaNaasS'00:24:6c:c5:45:c1'
p3704
(lp3705
(lp3706
NaNaNaNaNaNaNaNaNaNaNaNaNaNaNaNaNaNaNaNaa(lp3707
NaNaNaNaNaNaNaNaNaNaNaNaNaNaNaNaNaNaNaNaa(lp3708
NaNaNaNaNaNaNaNaNaNaNaNaNaNaNaNaNaNaNaNaa(lp3709
NaNaNaNaNaNaNaNaNaNaNaNaNaNaNaNaNaNaNaNaa(lp3710
NaNaNaNaNaNaNaNaNaNaNaNaNaNaNaNaNaNaNaNaa(lp3711
NaNaNaNaNaNaNaNaNaNaNaNaNaNaNaNaNaNaNaNaa(lp3712
NaNaNaNaNaNaNaNaNaNaNaNaNaNaNaNaNaNaNaNaa(lp3713
NaNaNaNaNaNaNaNaNaNaNaNaNaNaNaNaNaNaNaNaa(lp3714
NaNaNaNaNaNaNaNaNaNaNaNaNaNaNaNaNaNaNaNaa(lp3715
NaNaNaNaNaNaNaNaNaNaNaNaNag13
(g17
S'\xb1\x13;\xb1\x13{T\xc0'
p3716
tp3717
Rp3718
ag13
(g17
S'\xb1\x13;\xb1\x13\xbbT\xc0'
p3719
tp3720
Rp3721
aNaNaNaNaNaa(lp3722
NaNaNaNaNaNaNaNaNaNaNaNaNaNag13
(g17
S'\xab\xaa\xaa\xaa\xaa*U\xc0'
p3723
tp3724
Rp3725
ag13
(g17
S'\xcd\xcc\xcc\xcc\xcc\x0cU\xc0'
p3726
tp3727
Rp3728
aNaNaNaNaa(lp3729
NaNaNaNaNaNaNaNaNaNaNaNaNaNaNaNaNaNaNaNaa(lp3730
NaNaNaNaNaNaNaNaNaNaNaNaNaNaNaNaNaNaNaNaa(lp3731
NaNaNaNaNaNaNaNaNaNaNaNaNaNaNaNaNaNaNaNaa(lp3732
NaNaNaNaNaNaNaNaNaNaNaNaNaNaNaNaNaNaNaNaa(lp3733
NaNaNaNaNaNaNaNaNaNaNaNaNaNaNaNaNaNaNaNaa(lp3734
NaNaNaNaNaNaNaNaNaNaNaNaNaNaNaNaNaNaNaNaa(lp3735
NaNaNaNaNaNaNaNaNaNaNaNaNaNaNaNaNaNaNaNaa(lp3736
NaNaNaNaNaNaNaNaNaNaNaNaNaNaNaNaNaNaNaNaa(lp3737
NaNaNaNaNaNaNaNaNaNaNaNaNaNaNaNaNaNaNaNaa(lp3738
NaNaNaNaNaNaNaNaNaNaNaNaNaNaNaNaNaNaNaNaa(lp3739
NaNaNaNaNaNaNaNaNaNaNaNaNaNaNaNaNaNaNaNaa(lp3740
NaNaNaNaNaNaNaNaNaNaNaNaNaNaNaNaNaNaNaNaa(lp3741
NaNaNaNaNaNaNaNaNaNaNaNaNaNaNaNaNaNaNaNaa(lp3742
NaNaNaNaNaNaNaNaNaNaNaNaNaNaNaNaNaNaNaNaa(lp3743
NaNaNaNaNaNaNaNaNaNaNaNaNaNaNaNaNaNaNaNaa(lp3744
NaNaNaNaNaNaNaNaNaNaNaNaNaNaNaNaNaNaNaNaasS'00:24:6c:c5:45:c2'
p3745
(lp3746
(lp3747
NaNaNaNaNaNaNaNaNaNaNaNaNaNaNaNaNaNaNaNaa(lp3748
NaNaNaNaNaNaNaNaNaNaNaNaNaNaNaNaNaNaNaNaa(lp3749
NaNaNaNaNaNaNaNaNaNaNaNaNaNaNaNaNaNaNaNaa(lp3750
NaNaNaNaNaNaNaNaNaNaNaNaNaNaNaNaNaNaNaNaa(lp3751
NaNaNaNaNaNaNaNaNaNaNaNaNaNaNaNaNaNaNaNaa(lp3752
NaNaNaNaNaNaNaNaNaNaNaNaNaNaNaNaNaNaNaNaa(lp3753
NaNaNaNaNaNaNaNaNaNaNaNaNaNaNaNaNaNaNaNaa(lp3754
NaNaNaNaNaNaNaNaNaNaNaNaNaNaNaNaNaNaNaNaa(lp3755
NaNaNaNaNaNaNaNaNaNaNaNaNaNaNaNaNaNaNaNaa(lp3756
NaNaNaNaNaNaNaNaNaNaNaNaNag13
(g17
S'r\x1c\xc7q\x1c\xe7S\xc0'
p3757
tp3758
Rp3759
ag13
(g17
S'\xdd\xd3\x08\xcb=\x8dT\xc0'
p3760
tp3761
Rp3762
aNaNaNaNaNaa(lp3763
NaNaNaNaNaNaNaNaNaNaNaNaNaNag13
(g17
S'\xcf\xf3<\xcf\xf3|T\xc0'
p3764
tp3765
Rp3766
ag13
(g17
S'UUUUU\x15T\xc0'
p3767
tp3768
Rp3769
aNaNaNaNaa(lp3770
NaNaNaNaNaNaNaNaNaNaNaNaNaNaNaNaNaNaNaNaa(lp3771
NaNaNaNaNaNaNaNaNaNaNaNaNaNaNaNaNaNaNaNaa(lp3772
NaNaNaNaNaNaNaNaNaNaNaNaNaNaNaNaNaNaNaNaa(lp3773
NaNaNaNaNaNaNaNaNaNaNaNaNaNaNaNaNaNaNaNaa(lp3774
NaNaNaNaNaNaNaNaNaNaNaNaNaNaNaNaNaNaNaNaa(lp3775
NaNaNaNaNaNaNaNaNaNaNaNaNaNaNaNaNaNaNaNaa(lp3776
NaNaNaNaNaNaNaNaNaNaNaNaNaNaNaNaNaNaNaNaa(lp3777
NaNaNaNaNaNaNaNaNaNaNaNaNaNaNaNaNaNaNaNaa(lp3778
NaNaNaNaNaNaNaNaNaNaNaNaNaNaNaNaNaNaNaNaa(lp3779
NaNaNaNaNaNaNaNaNaNaNaNaNaNaNaNaNaNaNaNaa(lp3780
NaNaNaNaNaNaNaNaNaNaNaNaNaNaNaNaNaNaNaNaa(lp3781
NaNaNaNaNaNaNaNaNaNaNaNaNaNaNaNaNaNaNaNaa(lp3782
NaNaNaNaNaNaNaNaNaNaNaNaNaNaNaNaNaNaNaNaa(lp3783
NaNaNaNaNaNaNaNaNaNaNaNaNaNaNaNaNaNaNaNaa(lp3784
NaNaNaNaNaNaNaNaNaNaNaNaNaNaNaNaNaNaNaNaa(lp3785
NaNaNaNaNaNaNaNaNaNaNaNaNaNaNaNaNaNaNaNaasS'2c:54:cf:d4:07:c6'
p3786
(lp3787
(lp3788
NaNaNaNaNaNaNaNaNaNaNaNaNaNaNaNaNaNaNaNaa(lp3789
NaNaNaNaNaNaNaNaNaNaNaNaNaNaNaNaNaNaNaNaa(lp3790
NaNaNaNaNaNaNaNaNaNaNaNaNaNaNaNaNaNaNaNaa(lp3791
NaNaNaNaNaNaNaNaNaNaNaNaNaNaNaNaNaNaNaNaa(lp3792
NaNaNaNaNaNaNaNaNaNaNaNaNaNaNaNaNaNaNaNaa(lp3793
NaNaNaNaNaNaNaNaNaNaNaNaNaNaNaNaNaNaNaNaa(lp3794
NaNaNaNaNaNaNaNaNaNaNaNaNaNaNaNaNaNaNaNaa(lp3795
NaNaNaNaNaNaNaNaNaNaNaNaNaNaNaNaNaNaNaNaa(lp3796
NaNaNaNaNaNaNaNaNaNaNaNaNaNaNaNaNaNaNaNaa(lp3797
NaNaNaNaNaNaNaNaNaNaNaNaNag13
(g17
S'\x00\x00\x00\x00\x00\x80K\xc0'
p3798
tp3799
Rp3800
aNaNaNaNaNaNaa(lp3801
NaNaNaNaNaNaNaNaNaNaNaNaNaNaNag13
(g17
S'\x00\x00\x00\x00\x00\x00L\xc0'
p3802
tp3803
Rp3804
aNaNaNaNaa(lp3805
NaNaNaNaNaNaNaNaNaNaNaNaNaNaNaNaNaNaNaNaa(lp3806
NaNaNaNaNaNaNaNaNaNaNaNaNaNaNaNaNaNaNaNaa(lp3807
NaNaNaNaNaNaNaNaNaNaNaNaNaNaNaNaNaNaNaNaa(lp3808
NaNaNaNaNaNaNaNaNaNaNaNaNaNaNaNaNaNaNaNaa(lp3809
NaNaNaNaNaNaNaNaNaNaNaNaNaNaNaNaNaNaNaNaa(lp3810
NaNaNaNaNaNaNaNaNaNaNaNaNaNaNaNaNaNaNaNaa(lp3811
NaNaNaNaNaNaNaNaNaNaNaNaNaNaNaNaNaNaNaNaa(lp3812
NaNaNaNaNaNaNaNaNaNaNaNaNaNaNaNaNaNaNaNaa(lp3813
NaNaNaNaNaNaNaNaNaNaNaNaNaNaNaNaNaNaNaNaa(lp3814
NaNaNaNaNaNaNaNaNaNaNaNaNaNaNaNaNaNaNaNaa(lp3815
NaNaNaNaNaNaNaNaNaNaNaNaNaNaNaNaNaNaNaNaa(lp3816
NaNaNaNaNaNaNaNaNaNaNaNaNaNaNaNaNaNaNaNaa(lp3817
NaNaNaNaNaNaNaNaNaNaNaNaNaNaNaNaNaNaNaNaa(lp3818
NaNaNaNaNaNaNaNaNaNaNaNaNaNaNaNaNaNaNaNaa(lp3819
NaNaNaNaNaNaNaNaNaNaNaNaNaNaNaNaNaNaNaNaa(lp3820
NaNaNaNaNaNaNaNaNaNaNaNaNaNaNaNaNaNaNaNaasS'8c:2d:aa:55:fc:e5'
p3821
(lp3822
(lp3823
NaNaNaNaNaNaNaNaNaNaNaNaNaNaNaNaNaNaNaNaa(lp3824
NaNaNaNaNaNaNaNaNaNaNaNaNaNaNaNaNaNaNaNaa(lp3825
NaNaNaNaNaNaNaNaNaNaNaNaNaNaNaNaNaNaNaNaa(lp3826
NaNaNaNaNaNaNaNaNaNaNaNaNaNaNaNaNaNaNaNaa(lp3827
NaNaNaNaNaNaNaNaNaNaNaNaNaNaNaNaNaNaNaNaa(lp3828
NaNaNaNaNaNaNaNaNaNaNaNaNaNaNaNaNaNaNaNaa(lp3829
NaNaNaNaNaNaNaNaNaNaNaNaNaNaNaNaNaNaNaNaa(lp3830
NaNaNaNaNaNaNaNaNaNaNaNaNaNaNaNaNaNaNaNaa(lp3831
NaNaNaNaNaNaNaNaNaNaNaNaNaNaNaNaNaNaNaNaa(lp3832
NaNaNaNaNaNaNaNaNaNaNaNaNaNag13
(g17
S'\x00\x00\x00\x00\x00@U\xc0'
p3833
tp3834
Rp3835
aNaNaNaNaNaa(lp3836
NaNaNaNaNaNaNaNaNaNaNaNaNaNaNaNaNaNaNaNaa(lp3837
NaNaNaNaNaNaNaNaNaNaNaNaNaNaNaNaNaNaNaNaa(lp3838
NaNaNaNaNaNaNaNaNaNaNaNaNaNaNaNaNaNaNaNaa(lp3839
NaNaNaNaNaNaNaNaNaNaNaNaNaNaNaNaNaNaNaNaa(lp3840
NaNaNaNaNaNaNaNaNaNaNaNaNaNaNaNaNaNaNaNaa(lp3841
NaNaNaNaNaNaNaNaNaNaNaNaNaNaNaNaNaNaNaNaa(lp3842
NaNaNaNaNaNaNaNaNaNaNaNaNaNaNaNaNaNaNaNaa(lp3843
NaNaNaNaNaNaNaNaNaNaNaNaNaNaNaNaNaNaNaNaa(lp3844
NaNaNaNaNaNaNaNaNaNaNaNaNaNaNaNaNaNaNaNaa(lp3845
NaNaNaNaNaNaNaNaNaNaNaNaNaNaNaNaNaNaNaNaa(lp3846
NaNaNaNaNaNaNaNaNaNaNaNaNaNaNaNaNaNaNaNaa(lp3847
NaNaNaNaNaNaNaNaNaNaNaNaNaNaNaNaNaNaNaNaa(lp3848
NaNaNaNaNaNaNaNaNaNaNaNaNaNaNaNaNaNaNaNaa(lp3849
NaNaNaNaNaNaNaNaNaNaNaNaNaNaNaNaNaNaNaNaa(lp3850
NaNaNaNaNaNaNaNaNaNaNaNaNaNaNaNaNaNaNaNaa(lp3851
NaNaNaNaNaNaNaNaNaNaNaNaNaNaNaNaNaNaNaNaa(lp3852
NaNaNaNaNaNaNaNaNaNaNaNaNaNaNaNaNaNaNaNaasS'b8:ee:65:e4:58:ce'
p3853
(lp3854
(lp3855
NaNaNaNaNaNaNaNaNaNaNaNaNaNaNaNaNaNaNaNaa(lp3856
NaNaNaNaNaNaNaNaNaNaNaNaNaNaNaNaNaNaNaNaa(lp3857
NaNaNaNaNaNaNaNaNaNaNaNaNaNaNaNaNaNaNaNaa(lp3858
NaNaNaNaNaNaNaNaNaNaNaNaNaNaNaNaNaNaNaNaa(lp3859
NaNaNaNaNaNaNaNaNaNaNaNaNaNaNaNaNaNaNaNaa(lp3860
NaNaNaNaNaNaNaNaNaNaNaNaNaNaNaNaNaNaNaNaa(lp3861
NaNaNaNaNaNaNaNaNaNaNaNaNaNaNaNaNaNaNaNaa(lp3862
NaNaNaNaNaNaNaNaNaNaNaNaNaNaNaNaNaNaNaNaa(lp3863
NaNaNaNaNaNaNaNaNaNaNaNaNaNaNaNaNaNaNaNaa(lp3864
NaNaNaNaNaNaNaNaNaNaNaNaNaNag13
(g17
S'\x00\x00\x00\x00\x00`U\xc0'
p3865
tp3866
Rp3867
aNaNaNaNaNaa(lp3868
NaNaNaNaNaNaNaNaNaNaNaNaNaNaNaNaNaNaNaNaa(lp3869
NaNaNaNaNaNaNaNaNaNaNaNaNaNaNaNaNaNaNaNaa(lp3870
NaNaNaNaNaNaNaNaNaNaNaNaNaNaNaNaNaNaNaNaa(lp3871
NaNaNaNaNaNaNaNaNaNaNaNaNaNaNaNaNaNaNaNaa(lp3872
NaNaNaNaNaNaNaNaNaNaNaNaNaNaNaNaNaNaNaNaa(lp3873
NaNaNaNaNaNaNaNaNaNaNaNaNaNaNaNaNaNaNaNaa(lp3874
NaNaNaNaNaNaNaNaNaNaNaNaNaNaNaNaNaNaNaNaa(lp3875
NaNaNaNaNaNaNaNaNaNaNaNaNaNaNaNaNaNaNaNaa(lp3876
NaNaNaNaNaNaNaNaNaNaNaNaNaNaNaNaNaNaNaNaa(lp3877
NaNaNaNaNaNaNaNaNaNaNaNaNaNaNaNaNaNaNaNaa(lp3878
NaNaNaNaNaNaNaNaNaNaNaNaNaNaNaNaNaNaNaNaa(lp3879
NaNaNaNaNaNaNaNaNaNaNaNaNaNaNaNaNaNaNaNaa(lp3880
NaNaNaNaNaNaNaNaNaNaNaNaNaNaNaNaNaNaNaNaa(lp3881
NaNaNaNaNaNaNaNaNaNaNaNaNaNaNaNaNaNaNaNaa(lp3882
NaNaNaNaNaNaNaNaNaNaNaNaNaNaNaNaNaNaNaNaa(lp3883
NaNaNaNaNaNaNaNaNaNaNaNaNaNaNaNaNaNaNaNaa(lp3884
NaNaNaNaNaNaNaNaNaNaNaNaNaNaNaNaNaNaNaNaasS'c8:3a:35:cf:d0:b6'
p3885
(lp3886
(lp3887
NaNaNaNaNaNaNaNaNaNaNaNaNaNaNaNaNaNaNaNaa(lp3888
NaNaNaNaNaNaNaNaNaNaNaNaNaNaNaNaNaNaNaNaa(lp3889
NaNaNaNaNaNaNaNaNaNaNaNaNaNaNaNaNaNaNaNaa(lp3890
NaNaNaNaNaNaNaNaNaNaNaNaNaNaNaNaNaNaNaNaa(lp3891
NaNaNaNaNaNaNaNaNaNaNaNaNaNaNaNaNaNaNaNaa(lp3892
NaNaNaNaNaNaNaNaNaNaNaNaNaNaNaNaNaNaNaNaa(lp3893
NaNaNaNaNaNaNaNaNaNaNaNaNaNaNaNaNaNaNaNaa(lp3894
NaNaNaNaNaNaNaNaNaNaNaNaNaNaNaNaNaNaNaNaa(lp3895
NaNaNaNaNaNaNaNaNaNaNaNaNaNaNaNaNaNaNaNaa(lp3896
NaNaNaNaNaNaNaNaNaNaNaNaNaNag13
(g17
S'\x00\x00\x00\x00\x00\x80I\xc0'
p3897
tp3898
Rp3899
aNaNaNaNaNaa(lp3900
NaNaNaNaNaNaNaNaNaNaNaNaNaNaNaNaNaNaNaNaa(lp3901
NaNaNaNaNaNaNaNaNaNaNaNaNaNaNaNaNaNaNaNaa(lp3902
NaNaNaNaNaNaNaNaNaNaNaNaNaNaNaNaNaNaNaNaa(lp3903
NaNaNaNaNaNaNaNaNaNaNaNaNaNaNaNaNaNaNaNaa(lp3904
NaNaNaNaNaNaNaNaNaNaNaNaNaNaNaNaNaNaNaNaa(lp3905
NaNaNaNaNaNaNaNaNaNaNaNaNaNaNaNaNaNaNaNaa(lp3906
NaNaNaNaNaNaNaNaNaNaNaNaNaNaNaNaNaNaNaNaa(lp3907
NaNaNaNaNaNaNaNaNaNaNaNaNaNaNaNaNaNaNaNaa(lp3908
NaNaNaNaNaNaNaNaNaNaNaNaNaNaNaNaNaNaNaNaa(lp3909
NaNaNaNaNaNaNaNaNaNaNaNaNaNaNaNaNaNaNaNaa(lp3910
NaNaNaNaNaNaNaNaNaNaNaNaNaNaNaNaNaNaNaNaa(lp3911
NaNaNaNaNaNaNaNaNaNaNaNaNaNaNaNaNaNaNaNaa(lp3912
NaNaNaNaNaNaNaNaNaNaNaNaNaNaNaNaNaNaNaNaa(lp3913
NaNaNaNaNaNaNaNaNaNaNaNaNaNaNaNaNaNaNaNaa(lp3914
NaNaNaNaNaNaNaNaNaNaNaNaNaNaNaNaNaNaNaNaa(lp3915
NaNaNaNaNaNaNaNaNaNaNaNaNaNaNaNaNaNaNaNaa(lp3916
NaNaNaNaNaNaNaNaNaNaNaNaNaNaNaNaNaNaNaNaasS'cc:fa:00:aa:99:67'
p3917
(lp3918
(lp3919
NaNaNaNaNaNaNaNaNaNaNaNaNaNaNaNaNaNaNaNaa(lp3920
NaNaNaNaNaNaNaNaNaNaNaNaNaNaNaNaNaNaNaNaa(lp3921
NaNaNaNaNaNaNaNaNaNaNaNaNaNaNaNaNaNaNaNaa(lp3922
NaNaNaNaNaNaNaNaNaNaNaNaNaNaNaNaNaNaNaNaa(lp3923
NaNaNaNaNaNaNaNaNaNaNaNaNaNaNaNaNaNaNaNaa(lp3924
NaNaNaNaNaNaNaNaNaNaNaNaNaNaNaNaNaNaNaNaa(lp3925
NaNaNaNaNaNaNaNaNaNaNaNaNaNaNaNaNaNaNaNaa(lp3926
NaNaNaNaNaNaNaNaNaNaNaNaNaNaNaNaNaNaNaNaa(lp3927
NaNaNaNaNaNaNaNaNaNaNaNaNaNaNaNaNaNaNaNaa(lp3928
NaNaNaNaNaNaNaNaNaNaNaNaNaNaNaNaNaNaNaNaa(lp3929
NaNaNaNaNaNaNaNaNaNaNaNaNaNaNag13
(g17
S'\x00\x00\x00\x00\x00\x10R\xc0'
p3930
tp3931
Rp3932
aNaNaNaNaa(lp3933
NaNaNaNaNaNaNaNaNaNaNaNaNaNaNaNaNaNaNaNaa(lp3934
NaNaNaNaNaNaNaNaNaNaNaNaNaNaNaNaNaNaNaNaa(lp3935
NaNaNaNaNaNaNaNaNaNaNaNaNaNaNaNaNaNaNaNaa(lp3936
NaNaNaNaNaNaNaNaNaNaNaNaNaNaNaNaNaNaNaNaa(lp3937
NaNaNaNaNaNaNaNaNaNaNaNaNaNaNaNaNaNaNaNaa(lp3938
NaNaNaNaNaNaNaNaNaNaNaNaNaNaNaNaNaNaNaNaa(lp3939
NaNaNaNaNaNaNaNaNaNaNaNaNaNaNaNaNaNaNaNaa(lp3940
NaNaNaNaNaNaNaNaNaNaNaNaNaNaNaNaNaNaNaNaa(lp3941
NaNaNaNaNaNaNaNaNaNaNaNaNaNaNaNaNaNaNaNaa(lp3942
NaNaNaNaNaNaNaNaNaNaNaNaNaNaNaNaNaNaNaNaa(lp3943
NaNaNaNaNaNaNaNaNaNaNaNaNaNaNaNaNaNaNaNaa(lp3944
NaNaNaNaNaNaNaNaNaNaNaNaNaNaNaNaNaNaNaNaa(lp3945
NaNaNaNaNaNaNaNaNaNaNaNaNaNaNaNaNaNaNaNaa(lp3946
NaNaNaNaNaNaNaNaNaNaNaNaNaNaNaNaNaNaNaNaa(lp3947
NaNaNaNaNaNaNaNaNaNaNaNaNaNaNaNaNaNaNaNaa(lp3948
NaNaNaNaNaNaNaNaNaNaNaNaNaNaNaNaNaNaNaNaasS'8c:fa:ba:b0:cc:74'
p3949
(lp3950
(lp3951
NaNaNaNaNaNaNaNaNaNaNaNaNaNaNaNaNaNaNaNaa(lp3952
NaNaNaNaNaNaNaNaNaNaNaNaNaNaNaNaNaNaNaNaa(lp3953
NaNaNaNaNaNaNaNaNaNaNaNaNaNaNaNaNaNaNaNaa(lp3954
NaNaNaNaNaNaNaNaNaNaNaNaNaNaNaNaNaNaNaNaa(lp3955
NaNaNaNaNaNaNaNaNaNaNaNaNaNaNaNaNaNaNaNaa(lp3956
NaNaNaNaNaNaNaNaNaNaNaNaNaNaNaNaNaNaNaNaa(lp3957
NaNaNaNaNaNaNaNaNaNaNaNaNaNaNaNaNaNaNaNaa(lp3958
NaNaNaNaNaNaNaNaNaNaNaNaNaNaNaNaNaNaNaNaa(lp3959
NaNaNaNaNaNaNaNaNaNaNaNaNaNaNaNaNaNaNaNaa(lp3960
NaNaNaNaNaNaNaNaNaNaNaNaNag13
(g17
S'\x00\x00\x00\x00\x00\x00U\xc0'
p3961
tp3962
Rp3963
aNaNaNaNaNaNaa(lp3964
NaNaNaNaNaNaNaNaNaNaNaNaNaNaNaNaNaNaNaNaa(lp3965
NaNaNaNaNaNaNaNaNaNaNaNaNaNaNaNaNaNaNaNaa(lp3966
NaNaNaNaNaNaNaNaNaNaNaNaNaNaNaNaNaNaNaNaa(lp3967
NaNaNaNaNaNaNaNaNaNaNaNaNaNaNaNaNaNaNaNaa(lp3968
NaNaNaNaNaNaNaNaNaNaNaNaNaNaNaNaNaNaNaNaa(lp3969
NaNaNaNaNaNaNaNaNaNaNaNaNaNaNaNaNaNaNaNaa(lp3970
NaNaNaNaNaNaNaNaNaNaNaNaNaNaNaNaNaNaNaNaa(lp3971
NaNaNaNaNaNaNaNaNaNaNaNaNaNaNaNaNaNaNaNaa(lp3972
NaNaNaNaNaNaNaNaNaNaNaNaNaNaNaNaNaNaNaNaa(lp3973
NaNaNaNaNaNaNaNaNaNaNaNaNaNaNaNaNaNaNaNaa(lp3974
NaNaNaNaNaNaNaNaNaNaNaNaNaNaNaNaNaNaNaNaa(lp3975
NaNaNaNaNaNaNaNaNaNaNaNaNaNaNaNaNaNaNaNaa(lp3976
NaNaNaNaNaNaNaNaNaNaNaNaNaNaNaNaNaNaNaNaa(lp3977
NaNaNaNaNaNaNaNaNaNaNaNaNaNaNaNaNaNaNaNaa(lp3978
NaNaNaNaNaNaNaNaNaNaNaNaNaNaNaNaNaNaNaNaa(lp3979
NaNaNaNaNaNaNaNaNaNaNaNaNaNaNaNaNaNaNaNaa(lp3980
NaNaNaNaNaNaNaNaNaNaNaNaNaNaNaNaNaNaNaNaasS'00:24:6c:c5:43:42'
p3981
(lp3982
(lp3983
NaNaNaNaNaNaNaNaNaNaNaNaNaNaNaNaNaNaNaNaa(lp3984
NaNaNaNaNaNaNaNaNaNaNaNaNaNaNaNaNaNaNaNaa(lp3985
NaNaNaNaNaNaNaNaNaNaNaNaNaNaNaNaNaNaNaNaa(lp3986
NaNaNaNaNaNaNaNaNaNaNaNaNaNaNaNaNaNaNaNaa(lp3987
NaNaNaNaNaNaNaNaNaNaNaNaNaNaNaNaNaNaNaNaa(lp3988
NaNaNaNaNaNaNaNaNaNaNaNaNaNaNaNaNaNaNaNaa(lp3989
NaNaNaNaNaNaNaNaNaNaNaNaNaNaNaNaNaNaNaNaa(lp3990
NaNaNaNaNaNaNaNaNaNaNaNaNaNaNaNaNaNaNaNaa(lp3991
NaNaNaNaNaNaNaNaNaNaNaNaNaNaNaNaNaNaNaNaa(lp3992
NaNaNaNaNaNaNaNaNaNaNaNaNag13
(g17
S'6\x94\xd7P^CT\xc0'
p3993
tp3994
Rp3995
ag13
(g17
S'\xc8\xe0|\x0c\xce\x87T\xc0'
p3996
tp3997
Rp3998
aNaNaNaNaNaa(lp3999
NaNaNaNaNaNaNaNaNaNaNaNaNaNag13
(g17
S'\x8e\xe38\x8e\xe3HT\xc0'
p4000
tp4001
Rp4002
ag13
(g17
S'\x00\x00\x00\x00\x00\xc0S\xc0'
p4003
tp4004
Rp4005
aNaNaNaNaa(lp4006
NaNaNaNaNaNaNaNaNaNaNaNaNaNaNaNaNaNaNaNaa(lp4007
NaNaNaNaNaNaNaNaNaNaNaNaNaNaNaNaNaNaNaNaa(lp4008
NaNaNaNaNaNaNaNaNaNaNaNaNaNaNaNaNaNaNaNaa(lp4009
NaNaNaNaNaNaNaNaNaNaNaNaNaNaNaNaNaNaNaNaa(lp4010
NaNaNaNaNaNaNaNaNaNaNaNaNaNaNaNaNaNaNaNaa(lp4011
NaNaNaNaNaNaNaNaNaNaNaNaNaNaNaNaNaNaNaNaa(lp4012
NaNaNaNaNaNaNaNaNaNaNaNaNaNaNaNaNaNaNaNaa(lp4013
NaNaNaNaNaNaNaNaNaNaNaNaNaNaNaNaNaNaNaNaa(lp4014
NaNaNaNaNaNaNaNaNaNaNaNaNaNaNaNaNaNaNaNaa(lp4015
NaNaNaNaNaNaNaNaNaNaNaNaNaNaNaNaNaNaNaNaa(lp4016
NaNaNaNaNaNaNaNaNaNaNaNaNaNaNaNaNaNaNaNaa(lp4017
NaNaNaNaNaNaNaNaNaNaNaNaNaNaNaNaNaNaNaNaa(lp4018
NaNaNaNaNaNaNaNaNaNaNaNaNaNaNaNaNaNaNaNaa(lp4019
NaNaNaNaNaNaNaNaNaNaNaNaNaNaNaNaNaNaNaNaa(lp4020
NaNaNaNaNaNaNaNaNaNaNaNaNaNaNaNaNaNaNaNaa(lp4021
NaNaNaNaNaNaNaNaNaNaNaNaNaNaNaNaNaNaNaNaasS'00:24:6c:c5:43:41'
p4022
(lp4023
(lp4024
NaNaNaNaNaNaNaNaNaNaNaNaNaNaNaNaNaNaNaNaa(lp4025
NaNaNaNaNaNaNaNaNaNaNaNaNaNaNaNaNaNaNaNaa(lp4026
NaNaNaNaNaNaNaNaNaNaNaNaNaNaNaNaNaNaNaNaa(lp4027
NaNaNaNaNaNaNaNaNaNaNaNaNaNaNaNaNaNaNaNaa(lp4028
NaNaNaNaNaNaNaNaNaNaNaNaNaNaNaNaNaNaNaNaa(lp4029
NaNaNaNaNaNaNaNaNaNaNaNaNaNaNaNaNaNaNaNaa(lp4030
NaNaNaNaNaNaNaNaNaNaNaNaNaNaNaNaNaNaNaNaa(lp4031
NaNaNaNaNaNaNaNaNaNaNaNaNaNaNaNaNaNaNaNaa(lp4032
NaNaNaNaNaNaNaNaNaNaNaNaNaNaNaNaNaNaNaNaa(lp4033
NaNaNaNaNaNaNaNaNaNaNaNaNag13
(g17
S'\x8c.\xba\xe8\xa2\x8bT\xc0'
p4034
tp4035
Rp4036
ag13
(g17
S'\x00\x00\x00\x00\x00\xc0T\xc0'
p4037
tp4038
Rp4039
aNaNaNaNaNaa(lp4040
NaNaNaNaNaNaNaNaNaNaNaNaNaNag13
(g17
S'\x00\x00\x00\x00\x00\xc8T\xc0'
p4041
tp4042
Rp4043
ag13
(g17
S'\xba\xe8\xa2\x8b.zT\xc0'
p4044
tp4045
Rp4046
aNaNaNaNaa(lp4047
NaNaNaNaNaNaNaNaNaNaNaNaNaNaNaNaNaNaNaNaa(lp4048
NaNaNaNaNaNaNaNaNaNaNaNaNaNaNaNaNaNaNaNaa(lp4049
NaNaNaNaNaNaNaNaNaNaNaNaNaNaNaNaNaNaNaNaa(lp4050
NaNaNaNaNaNaNaNaNaNaNaNaNaNaNaNaNaNaNaNaa(lp4051
NaNaNaNaNaNaNaNaNaNaNaNaNaNaNaNaNaNaNaNaa(lp4052
NaNaNaNaNaNaNaNaNaNaNaNaNaNaNaNaNaNaNaNaa(lp4053
NaNaNaNaNaNaNaNaNaNaNaNaNaNaNaNaNaNaNaNaa(lp4054
NaNaNaNaNaNaNaNaNaNaNaNaNaNaNaNaNaNaNaNaa(lp4055
NaNaNaNaNaNaNaNaNaNaNaNaNaNaNaNaNaNaNaNaa(lp4056
NaNaNaNaNaNaNaNaNaNaNaNaNaNaNaNaNaNaNaNaa(lp4057
NaNaNaNaNaNaNaNaNaNaNaNaNaNaNaNaNaNaNaNaa(lp4058
NaNaNaNaNaNaNaNaNaNaNaNaNaNaNaNaNaNaNaNaa(lp4059
NaNaNaNaNaNaNaNaNaNaNaNaNaNaNaNaNaNaNaNaa(lp4060
NaNaNaNaNaNaNaNaNaNaNaNaNaNaNaNaNaNaNaNaa(lp4061
NaNaNaNaNaNaNaNaNaNaNaNaNaNaNaNaNaNaNaNaa(lp4062
NaNaNaNaNaNaNaNaNaNaNaNaNaNaNaNaNaNaNaNaasS'90:8d:6c:8e:57:a2'
p4063
(lp4064
(lp4065
NaNaNaNaNaNaNaNaNaNaNaNaNaNaNaNaNaNaNaNaa(lp4066
NaNaNaNaNaNaNaNaNaNaNaNaNaNaNaNaNaNaNaNaa(lp4067
NaNaNaNaNaNaNaNaNaNaNaNaNaNaNaNaNaNaNaNaa(lp4068
NaNaNaNaNaNaNaNaNaNaNaNaNaNaNaNaNaNaNaNaa(lp4069
NaNaNaNaNaNaNaNaNaNaNaNaNaNaNaNaNaNaNaNaa(lp4070
NaNaNaNaNaNaNaNaNaNaNaNaNaNaNaNaNaNaNaNaa(lp4071
NaNaNaNaNaNaNaNaNaNaNaNaNaNaNaNaNaNaNaNaa(lp4072
NaNaNaNaNaNaNaNaNaNaNaNaNaNaNaNaNaNaNaNaa(lp4073
NaNaNaNaNaNaNaNaNaNaNaNaNaNaNaNaNaNaNaNaa(lp4074
NaNaNaNaNaNaNaNaNaNaNaNaNag13
(g17
S'fffff\x06V\xc0'
p4075
tp4076
Rp4077
aNaNaNaNaNaNaa(lp4078
NaNaNaNaNaNaNaNaNaNaNaNaNaNaNag13
(g17
S'UUUUUuU\xc0'
p4079
tp4080
Rp4081
aNaNaNaNaa(lp4082
NaNaNaNaNaNaNaNaNaNaNaNaNaNaNaNaNaNaNaNaa(lp4083
NaNaNaNaNaNaNaNaNaNaNaNaNaNaNaNaNaNaNaNaa(lp4084
NaNaNaNaNaNaNaNaNaNaNaNaNaNaNaNaNaNaNaNaa(lp4085
NaNaNaNaNaNaNaNaNaNaNaNaNaNaNaNaNaNaNaNaa(lp4086
NaNaNaNaNaNaNaNaNaNaNaNaNaNaNaNaNaNaNaNaa(lp4087
NaNaNaNaNaNaNaNaNaNaNaNaNaNaNaNaNaNaNaNaa(lp4088
NaNaNaNaNaNaNaNaNaNaNaNaNaNaNaNaNaNaNaNaa(lp4089
NaNaNaNaNaNaNaNaNaNaNaNaNaNaNaNaNaNaNaNaa(lp4090
NaNaNaNaNaNaNaNaNaNaNaNaNaNaNaNaNaNaNaNaa(lp4091
NaNaNaNaNaNaNaNaNaNaNaNaNaNaNaNaNaNaNaNaa(lp4092
NaNaNaNaNaNaNaNaNaNaNaNaNaNaNaNaNaNaNaNaa(lp4093
NaNaNaNaNaNaNaNaNaNaNaNaNaNaNaNaNaNaNaNaa(lp4094
NaNaNaNaNaNaNaNaNaNaNaNaNaNaNaNaNaNaNaNaa(lp4095
NaNaNaNaNaNaNaNaNaNaNaNaNaNaNaNaNaNaNaNaa(lp4096
NaNaNaNaNaNaNaNaNaNaNaNaNaNaNaNaNaNaNaNaa(lp4097
NaNaNaNaNaNaNaNaNaNaNaNaNaNaNaNaNaNaNaNaasS'90:72:40:1a:22:7a'
p4098
(lp4099
(lp4100
NaNaNaNaNaNaNaNaNaNaNaNaNaNaNaNaNaNaNaNaa(lp4101
NaNaNaNaNaNaNaNaNaNaNaNaNaNaNaNaNaNaNaNaa(lp4102
NaNaNaNaNaNaNaNaNaNaNaNaNaNaNaNaNaNaNaNaa(lp4103
NaNaNaNaNaNaNaNaNaNaNaNaNaNaNaNaNaNaNaNaa(lp4104
NaNaNaNaNaNaNaNaNaNaNaNaNaNaNaNaNaNaNaNaa(lp4105
NaNaNaNaNaNaNaNaNaNaNaNaNaNaNaNaNaNaNaNaa(lp4106
NaNaNaNaNaNaNaNaNaNaNaNaNaNaNaNaNaNaNaNaa(lp4107
NaNaNaNaNaNaNaNaNaNaNaNaNaNaNaNaNaNaNaNaa(lp4108
NaNaNaNaNaNaNaNaNaNaNaNaNaNaNaNaNaNaNaNaa(lp4109
NaNaNaNaNaNaNaNaNaNaNaNaNaNag13
(g17
S'\x00\x00\x00\x00\x00@V\xc0'
p4110
tp4111
Rp4112
aNaNaNaNaNaa(lp4113
NaNaNaNaNaNaNaNaNaNaNaNaNaNaNaNaNaNaNaNaa(lp4114
NaNaNaNaNaNaNaNaNaNaNaNaNaNaNaNaNaNaNaNaa(lp4115
NaNaNaNaNaNaNaNaNaNaNaNaNaNaNaNaNaNaNaNaa(lp4116
NaNaNaNaNaNaNaNaNaNaNaNaNaNaNaNaNaNaNaNaa(lp4117
NaNaNaNaNaNaNaNaNaNaNaNaNaNaNaNaNaNaNaNaa(lp4118
NaNaNaNaNaNaNaNaNaNaNaNaNaNaNaNaNaNaNaNaa(lp4119
NaNaNaNaNaNaNaNaNaNaNaNaNaNaNaNaNaNaNaNaa(lp4120
NaNaNaNaNaNaNaNaNaNaNaNaNaNaNaNaNaNaNaNaa(lp4121
NaNaNaNaNaNaNaNaNaNaNaNaNaNaNaNaNaNaNaNaa(lp4122
NaNaNaNaNaNaNaNaNaNaNaNaNaNaNaNaNaNaNaNaa(lp4123
NaNaNaNaNaNaNaNaNaNaNaNaNaNaNaNaNaNaNaNaa(lp4124
NaNaNaNaNaNaNaNaNaNaNaNaNaNaNaNaNaNaNaNaa(lp4125
NaNaNaNaNaNaNaNaNaNaNaNaNaNaNaNaNaNaNaNaa(lp4126
NaNaNaNaNaNaNaNaNaNaNaNaNaNaNaNaNaNaNaNaa(lp4127
NaNaNaNaNaNaNaNaNaNaNaNaNaNaNaNaNaNaNaNaa(lp4128
NaNaNaNaNaNaNaNaNaNaNaNaNaNaNaNaNaNaNaNaa(lp4129
NaNaNaNaNaNaNaNaNaNaNaNaNaNaNaNaNaNaNaNaasS'ac:cf:5c:70:14:ec'
p4130
(lp4131
(lp4132
NaNaNaNaNaNaNaNaNaNaNaNaNaNaNaNaNaNaNaNaa(lp4133
NaNaNaNaNaNaNaNaNaNaNaNaNaNaNaNaNaNaNaNaa(lp4134
NaNaNaNaNaNaNaNaNaNaNaNaNaNaNaNaNaNaNaNaa(lp4135
NaNaNaNaNaNaNaNaNaNaNaNaNaNaNaNaNaNaNaNaa(lp4136
NaNaNaNaNaNaNaNaNaNaNaNaNaNaNaNaNaNaNaNaa(lp4137
NaNaNaNaNaNaNaNaNaNaNaNaNaNaNaNaNaNaNaNaa(lp4138
NaNaNaNaNaNaNaNaNaNaNaNaNaNaNaNaNaNaNaNaa(lp4139
NaNaNaNaNaNaNaNaNaNaNaNaNaNaNaNaNaNaNaNaa(lp4140
NaNaNaNaNaNaNaNaNaNaNaNaNaNaNaNaNaNaNaNaa(lp4141
NaNaNaNaNaNaNaNaNaNaNaNaNaNag13
(g17
S'\x00\x00\x00\x00\x00@U\xc0'
p4142
tp4143
Rp4144
aNaNaNaNaNaa(lp4145
NaNaNaNaNaNaNaNaNaNaNaNaNaNaNaNaNaNaNaNaa(lp4146
NaNaNaNaNaNaNaNaNaNaNaNaNaNaNaNaNaNaNaNaa(lp4147
NaNaNaNaNaNaNaNaNaNaNaNaNaNaNaNaNaNaNaNaa(lp4148
NaNaNaNaNaNaNaNaNaNaNaNaNaNaNaNaNaNaNaNaa(lp4149
NaNaNaNaNaNaNaNaNaNaNaNaNaNaNaNaNaNaNaNaa(lp4150
NaNaNaNaNaNaNaNaNaNaNaNaNaNaNaNaNaNaNaNaa(lp4151
NaNaNaNaNaNaNaNaNaNaNaNaNaNaNaNaNaNaNaNaa(lp4152
NaNaNaNaNaNaNaNaNaNaNaNaNaNaNaNaNaNaNaNaa(lp4153
NaNaNaNaNaNaNaNaNaNaNaNaNaNaNaNaNaNaNaNaa(lp4154
NaNaNaNaNaNaNaNaNaNaNaNaNaNaNaNaNaNaNaNaa(lp4155
NaNaNaNaNaNaNaNaNaNaNaNaNaNaNaNaNaNaNaNaa(lp4156
NaNaNaNaNaNaNaNaNaNaNaNaNaNaNaNaNaNaNaNaa(lp4157
NaNaNaNaNaNaNaNaNaNaNaNaNaNaNaNaNaNaNaNaa(lp4158
NaNaNaNaNaNaNaNaNaNaNaNaNaNaNaNaNaNaNaNaa(lp4159
NaNaNaNaNaNaNaNaNaNaNaNaNaNaNaNaNaNaNaNaa(lp4160
NaNaNaNaNaNaNaNaNaNaNaNaNaNaNaNaNaNaNaNaa(lp4161
NaNaNaNaNaNaNaNaNaNaNaNaNaNaNaNaNaNaNaNaas.