(dp0
S'14:99:e2:e7:cc:a2'
p1
(lp2
(lp3
NaNaNaNaNaNaNaNaNaNaNaNaNaNaNaNaa(lp4
NaNaNaNaNaNaNaNaNaNaNaNaNaNaNaNaa(lp5
NaNaNaNaNaNaNaNaNaNaNaNaNaNaNaNaa(lp6
NaNaNaNaNaNaNaNaNaNaNaNaNaNaNaNaa(lp7
NaNaNaNaNaNaNaNaNaNaNaNaNaNaNaNaa(lp8
NaNaNaNaNaNaNaNaNaNaNaNaNaNaNaNaa(lp9
NaNaNaNaNaNaNaNaNaNaNaNaNaNaNaNaa(lp10
NaNaNaNaNaNaNaNaNaNaNaNaNaNaNaNaa(lp11
NaNaNaNaNaNaNacnumpy.core.multiarray
scalar
p12
(cnumpy
dtype
p13
(S'f8'
p14
I0
I1
tp15
Rp16
(I3
S'<'
p17
NNNI-1
I-1
I0
tp18
bS'\x00\x00\x00\x00\x00@U\xc0'
p19
tp20
Rp21
aNaNaNaNaNaNaNaNaa(lp22
NaNaNaNaNaNaNaNaNaNaNaNaNaNaNaNaa(lp23
NaNaNaNaNaNaNaNaNaNaNaNaNaNaNaNaa(lp24
NaNaNaNaNaNaNaNaNaNaNaNaNaNaNaNaa(lp25
NaNaNaNaNaNaNaNaNaNaNaNaNaNaNaNaa(lp26
NaNaNaNaNaNaNaNaNaNaNaNaNaNaNaNaa(lp27
NaNaNaNaNaNaNaNaNaNaNaNaNaNaNaNaa(lp28
NaNaNaNaNaNaNaNaNaNaNaNaNaNaNaNaasS'cc:fa:00:aa:99:67'
p29
(lp30
(lp31
NaNaNaNaNaNaNaNaNaNaNaNaNaNaNaNaa(lp32
NaNaNaNaNaNaNaNaNaNaNaNaNaNaNaNaa(lp33
NaNaNaNaNaNaNaNaNaNaNaNaNaNaNaNaa(lp34
NaNaNaNaNaNaNaNaNaNaNaNaNaNaNaNaa(lp35
NaNaNaNaNaNaNaNaNaNaNaNaNaNaNaNaa(lp36
NaNaNaNaNaNaNaNaNaNaNaNaNaNaNaNaa(lp37
NaNaNaNaNaNaNaNaNaNaNaNaNaNaNaNaa(lp38
NaNaNaNaNaNaNaNaNaNaNaNaNaNaNaNaa(lp39
NaNaNaNaNaNaNag12
(g16
S'\xab\xaa\xaa\xaa\xaa:R\xc0'
p40
tp41
Rp42
aNaNaNaNaNaNaNaNaa(lp43
NaNaNaNaNaNaNaNaNaNaNaNaNaNaNaNaa(lp44
NaNaNaNaNaNaNaNaNaNaNaNaNaNaNaNaa(lp45
NaNaNaNaNaNaNaNaNaNaNaNaNaNaNaNaa(lp46
NaNaNaNaNaNaNaNaNaNaNaNaNaNaNaNaa(lp47
NaNaNaNaNaNaNaNaNaNaNaNaNaNaNaNaa(lp48
NaNaNaNaNaNaNaNaNaNaNaNaNaNaNaNaa(lp49
NaNaNaNaNaNaNaNaNaNaNaNaNaNaNaNaasS'20:c9:d0:7b:af:69'
p50
(lp51
(lp52
NaNaNaNaNaNaNaNaNaNaNaNaNaNaNaNaa(lp53
NaNaNaNaNaNaNaNaNaNaNaNaNaNaNaNaa(lp54
NaNaNaNaNaNaNaNaNaNaNaNaNaNaNaNaa(lp55
NaNaNaNaNaNaNaNaNaNaNaNaNaNaNaNaa(lp56
NaNaNaNaNaNaNaNaNaNaNaNaNaNaNaNaa(lp57
NaNaNaNaNaNaNaNaNaNaNaNaNaNaNaNaa(lp58
NaNaNaNaNaNaNaNaNaNaNaNaNaNaNaNaa(lp59
NaNaNaNaNaNaNaNaNaNaNaNaNaNaNaNaa(lp60
NaNaNaNaNaNaNag12
(g16
S'\x00\x00\x00\x00\x00\x00R\xc0'
p61
tp62
Rp63
aNaNaNaNaNaNaNaNaa(lp64
NaNaNaNaNaNaNaNaNaNaNaNaNaNaNaNaa(lp65
NaNaNaNaNaNaNaNaNaNaNaNaNaNaNaNaa(lp66
NaNaNaNaNaNaNaNaNaNaNaNaNaNaNaNaa(lp67
NaNaNaNaNaNaNaNaNaNaNaNaNaNaNaNaa(lp68
NaNaNaNaNaNaNaNaNaNaNaNaNaNaNaNaa(lp69
NaNaNaNaNaNaNaNaNaNaNaNaNaNaNaNaa(lp70
NaNaNaNaNaNaNaNaNaNaNaNaNaNaNaNaasS'60:6c:66:29:88:67'
p71
(lp72
(lp73
NaNaNaNaNaNaNaNaNaNaNaNaNaNaNaNaa(lp74
NaNaNaNaNaNaNaNaNaNaNaNaNaNaNaNaa(lp75
NaNaNaNaNaNaNaNaNaNaNaNaNaNaNaNaa(lp76
NaNaNaNaNaNaNaNaNaNaNaNaNaNaNaNaa(lp77
NaNaNaNaNaNaNaNaNaNaNaNaNaNaNaNaa(lp78
NaNaNaNaNaNaNaNaNaNaNaNaNaNaNaNaa(lp79
NaNaNaNaNaNaNaNaNaNaNaNaNaNaNaNaa(lp80
NaNaNaNaNaNaNaNaNaNaNaNaNaNaNaNaa(lp81
NaNaNaNaNaNaNaNaNag12
(g16
S'\x00\x00\x00\x00\x00\xc0U\xc0'
p82
tp83
Rp84
aNaNaNaNaNaNaa(lp85
NaNaNaNaNaNaNaNaNaNaNaNaNaNaNaNaa(lp86
NaNaNaNaNaNaNaNaNaNaNaNaNaNaNaNaa(lp87
NaNaNaNaNaNaNaNaNaNaNaNaNaNaNaNaa(lp88
NaNaNaNaNaNaNaNaNaNaNaNaNaNaNaNaa(lp89
NaNaNaNaNaNaNaNaNaNaNaNaNaNaNaNaa(lp90
NaNaNaNaNaNaNaNaNaNaNaNaNaNaNaNaa(lp91
NaNaNaNaNaNaNaNaNaNaNaNaNaNaNaNaasS'00:26:ab:11:1c:46'
p92
(lp93
(lp94
NaNaNaNaNaNaNaNaNaNaNaNaNaNaNaNaa(lp95
NaNaNaNaNaNaNaNaNaNaNaNaNaNaNaNaa(lp96
NaNaNaNaNaNaNaNaNaNaNaNaNaNaNaNaa(lp97
NaNaNaNaNaNaNaNaNaNaNaNaNaNaNaNaa(lp98
NaNaNaNaNaNaNaNaNaNaNaNaNaNaNaNaa(lp99
NaNaNaNaNaNaNaNaNaNaNaNaNaNaNaNaa(lp100
NaNaNaNaNaNaNaNaNaNaNaNaNaNaNaNaa(lp101
NaNaNaNaNaNaNaNaNaNaNaNaNaNaNaNaa(lp102
NaNaNaNaNaNaNag12
(g16
S'z\x9e\xe7y\x9e\xe7Q\xc0'
p103
tp104
Rp105
aNag12
(g16
S'\x94\xd7P^CyQ\xc0'
p106
tp107
Rp108
aNaNaNaNaNaNaa(lp109
NaNaNaNaNaNaNaNaNaNaNaNaNaNaNaNaa(lp110
NaNaNaNaNaNaNaNaNaNaNaNaNaNaNaNaa(lp111
NaNaNaNaNaNaNaNaNaNaNaNaNaNaNaNaa(lp112
NaNaNaNaNaNaNaNaNaNaNaNaNaNaNaNaa(lp113
NaNaNaNaNaNaNaNaNaNaNaNaNaNaNaNaa(lp114
NaNaNaNaNaNaNaNaNaNaNaNaNaNaNaNaa(lp115
NaNaNaNaNaNaNaNaNaNaNaNaNaNaNaNaasS'00:14:d1:9e:58:34'
p116
(lp117
(lp118
NaNaNaNaNaNaNaNaNaNaNaNaNaNaNaNaa(lp119
NaNaNaNaNaNaNaNaNaNaNaNaNaNaNaNaa(lp120
NaNaNaNaNaNaNaNaNaNaNaNaNaNaNaNaa(lp121
NaNaNaNaNaNaNaNaNaNaNaNaNaNaNaNaa(lp122
NaNaNaNaNaNaNaNaNaNaNaNaNaNaNaNaa(lp123
NaNaNaNaNaNaNaNaNaNaNaNaNaNaNaNaa(lp124
NaNaNaNaNaNaNaNaNaNaNaNaNaNaNaNaa(lp125
NaNaNaNaNaNaNaNaNaNaNaNaNaNaNaNaa(lp126
NaNaNaNaNaNaNag12
(g16
S'\x00\x00\x00\x00\x00\xa8U\xc0'
p127
tp128
Rp129
aNag12
(g16
S'\x00\x00\x00\x00\x00`U\xc0'
p130
tp131
Rp132
aNaNaNaNaNaNaa(lp133
NaNaNaNaNaNaNaNaNaNaNaNaNaNaNaNaa(lp134
NaNaNaNaNaNaNaNaNaNaNaNaNaNaNaNaa(lp135
NaNaNaNaNaNaNaNaNaNaNaNaNaNaNaNaa(lp136
NaNaNaNaNaNaNaNaNaNaNaNaNaNaNaNaa(lp137
NaNaNaNaNaNaNaNaNaNaNaNaNaNaNaNaa(lp138
NaNaNaNaNaNaNaNaNaNaNaNaNaNaNaNaa(lp139
NaNaNaNaNaNaNaNaNaNaNaNaNaNaNaNaasS'00:1a:70:4d:17:43'
p140
(lp141
(lp142
NaNaNaNaNaNaNaNaNaNaNaNaNaNaNaNaa(lp143
NaNaNaNaNaNaNaNaNaNaNaNaNaNaNaNaa(lp144
NaNaNaNaNaNaNaNaNaNaNaNaNaNaNaNaa(lp145
NaNaNaNaNaNaNaNaNaNaNaNaNaNaNaNaa(lp146
NaNaNaNaNaNaNaNaNaNaNaNaNaNaNaNaa(lp147
NaNaNaNaNaNaNaNaNaNaNaNaNaNaNaNaa(lp148
NaNaNaNaNaNaNaNaNaNaNaNaNaNaNaNaa(lp149
NaNaNaNaNaNaNaNaNaNaNaNaNaNaNaNaa(lp150
NaNaNaNaNaNaNag12
(g16
S'\xecQ\xb8\x1e\x85kU\xc0'
p151
tp152
Rp153
aNag12
(g16
S'\xde\xdd\xdd\xdd\xdd\x9dU\xc0'
p154
tp155
Rp156
aNaNaNaNaNaNaa(lp157
NaNaNaNaNaNaNaNaNaNaNaNaNaNaNaNaa(lp158
NaNaNaNaNaNaNaNaNaNaNaNaNaNaNaNaa(lp159
NaNaNaNaNaNaNaNaNaNaNaNaNaNaNaNaa(lp160
NaNaNaNaNaNaNaNaNaNaNaNaNaNaNaNaa(lp161
NaNaNaNaNaNaNaNaNaNaNaNaNaNaNaNaa(lp162
NaNaNaNaNaNaNaNaNaNaNaNaNaNaNaNaa(lp163
NaNaNaNaNaNaNaNaNaNaNaNaNaNaNaNaasS'00:24:6c:c5:48:02'
p164
(lp165
(lp166
NaNaNaNaNaNaNaNaNaNaNaNaNaNaNaNaa(lp167
NaNaNaNaNaNaNaNaNaNaNaNaNaNaNaNaa(lp168
NaNaNaNaNaNaNaNaNaNaNaNaNaNaNaNaa(lp169
NaNaNaNaNaNaNaNaNaNaNaNaNaNaNaNaa(lp170
NaNaNaNaNaNaNaNaNaNaNaNaNaNaNaNaa(lp171
NaNaNaNaNaNaNaNaNaNaNaNaNaNaNaNaa(lp172
NaNaNaNaNaNaNaNaNaNaNaNaNaNaNaNaa(lp173
NaNaNaNaNaNaNaNaNaNaNaNaNaNaNaNaa(lp174
NaNaNaNaNaNaNag12
(g16
S'\x17]t\xd1E\x17Q\xc0'
p175
tp176
Rp177
aNag12
(g16
S'r\x1c\xc7q\x1c\xc7O\xc0'
p178
tp179
Rp180
aNaNaNaNaNaNaa(lp181
NaNaNaNaNaNaNaNaNaNaNaNaNaNaNaNaa(lp182
NaNaNaNaNaNaNaNaNaNaNaNaNaNaNaNaa(lp183
NaNaNaNaNaNaNaNaNaNaNaNaNaNaNaNaa(lp184
NaNaNaNaNaNaNaNaNaNaNaNaNaNaNaNaa(lp185
NaNaNaNaNaNaNaNaNaNaNaNaNaNaNaNaa(lp186
NaNaNaNaNaNaNaNaNaNaNaNaNaNaNaNaa(lp187
NaNaNaNaNaNaNaNaNaNaNaNaNaNaNaNaasS'00:88:65:4d:5b:ec'
p188
(lp189
(lp190
NaNaNaNaNaNaNaNaNaNaNaNaNaNaNaNaa(lp191
NaNaNaNaNaNaNaNaNaNaNaNaNaNaNaNaa(lp192
NaNaNaNaNaNaNaNaNaNaNaNaNaNaNaNaa(lp193
NaNaNaNaNaNaNaNaNaNaNaNaNaNaNaNaa(lp194
NaNaNaNaNaNaNaNaNaNaNaNaNaNaNaNaa(lp195
NaNaNaNaNaNaNaNaNaNaNaNaNaNaNaNaa(lp196
NaNaNaNaNaNaNaNaNaNaNaNaNaNaNaNaa(lp197
NaNaNaNaNaNaNaNaNaNaNaNaNaNaNaNaa(lp198
NaNaNaNaNaNaNaNaNag12
(g16
S'\x00\x00\x00\x00\x00\x80Q\xc0'
p199
tp200
Rp201
aNaNaNaNaNaNaa(lp202
NaNaNaNaNaNaNaNaNaNaNaNaNaNaNaNaa(lp203
NaNaNaNaNaNaNaNaNaNaNaNaNaNaNaNaa(lp204
NaNaNaNaNaNaNaNaNaNaNaNaNaNaNaNaa(lp205
NaNaNaNaNaNaNaNaNaNaNaNaNaNaNaNaa(lp206
NaNaNaNaNaNaNaNaNaNaNaNaNaNaNaNaa(lp207
NaNaNaNaNaNaNaNaNaNaNaNaNaNaNaNaa(lp208
NaNaNaNaNaNaNaNaNaNaNaNaNaNaNaNaasS'00:24:6c:c5:48:01'
p209
(lp210
(lp211
NaNaNaNaNaNaNaNaNaNaNaNaNaNaNaNaa(lp212
NaNaNaNaNaNaNaNaNaNaNaNaNaNaNaNaa(lp213
NaNaNaNaNaNaNaNaNaNaNaNaNaNaNaNaa(lp214
NaNaNaNaNaNaNaNaNaNaNaNaNaNaNaNaa(lp215
NaNaNaNaNaNaNaNaNaNaNaNaNaNaNaNaa(lp216
NaNaNaNaNaNaNaNaNaNaNaNaNaNaNaNaa(lp217
NaNaNaNaNaNaNaNaNaNaNaNaNaNaNaNaa(lp218
NaNaNaNaNaNaNaNaNaNaNaNaNaNaNaNaa(lp219
NaNaNaNaNaNaNag12
(g16
S'\x00\x00\x00\x00\x00PQ\xc0'
p220
tp221
Rp222
aNag12
(g16
S'\x00\x00\x00\x00\x00\xb8P\xc0'
p223
tp224
Rp225
aNaNaNaNaNaNaa(lp226
NaNaNaNaNaNaNaNaNaNaNaNaNaNaNaNaa(lp227
NaNaNaNaNaNaNaNaNaNaNaNaNaNaNaNaa(lp228
NaNaNaNaNaNaNaNaNaNaNaNaNaNaNaNaa(lp229
NaNaNaNaNaNaNaNaNaNaNaNaNaNaNaNaa(lp230
NaNaNaNaNaNaNaNaNaNaNaNaNaNaNaNaa(lp231
NaNaNaNaNaNaNaNaNaNaNaNaNaNaNaNaa(lp232
NaNaNaNaNaNaNaNaNaNaNaNaNaNaNaNaasS'68:17:29:18:97:14'
p233
(lp234
(lp235
NaNaNaNaNaNaNaNaNaNaNaNaNaNaNaNaa(lp236
NaNaNaNaNaNaNaNaNaNaNaNaNaNaNaNaa(lp237
NaNaNaNaNaNaNaNaNaNaNaNaNaNaNaNaa(lp238
NaNaNaNaNaNaNaNaNaNaNaNaNaNaNaNaa(lp239
NaNaNaNaNaNaNaNaNaNaNaNaNaNaNaNaa(lp240
NaNaNaNaNaNaNaNaNaNaNaNaNaNaNaNaa(lp241
NaNaNaNaNaNaNaNaNaNaNaNaNaNaNaNaa(lp242
NaNaNaNaNaNaNaNaNaNaNaNaNaNaNaNaa(lp243
NaNaNaNaNaNaNag12
(g16
S'\xa2\xbc\x86\xf2\x1a\nT\xc0'
p244
tp245
Rp246
aNag12
(g16
S'\x00\x00\x00\x00\x00\x00U\xc0'
p247
tp248
Rp249
aNaNaNaNaNaNaa(lp250
NaNaNaNaNaNaNaNaNaNaNaNaNaNaNaNaa(lp251
NaNaNaNaNaNaNaNaNaNaNaNaNaNaNaNaa(lp252
NaNaNaNaNaNaNaNaNaNaNaNaNaNaNaNaa(lp253
NaNaNaNaNaNaNaNaNaNaNaNaNaNaNaNaa(lp254
NaNaNaNaNaNaNaNaNaNaNaNaNaNaNaNaa(lp255
NaNaNaNaNaNaNaNaNaNaNaNaNaNaNaNaa(lp256
NaNaNaNaNaNaNaNaNaNaNaNaNaNaNaNaasS'00:24:6c:c5:62:22'
p257
(lp258
(lp259
NaNaNaNaNaNaNaNaNaNaNaNaNaNaNaNaa(lp260
NaNaNaNaNaNaNaNaNaNaNaNaNaNaNaNaa(lp261
NaNaNaNaNaNaNaNaNaNaNaNaNaNaNaNaa(lp262
NaNaNaNaNaNaNaNaNaNaNaNaNaNaNaNaa(lp263
NaNaNaNaNaNaNaNaNaNaNaNaNaNaNaNaa(lp264
NaNaNaNaNaNaNaNaNaNaNaNaNaNaNaNaa(lp265
NaNaNaNaNaNaNaNaNaNaNaNaNaNaNaNaa(lp266
NaNaNaNaNaNaNaNaNaNaNaNaNaNaNaNaa(lp267
NaNaNaNaNaNaNaNaNag12
(g16
S'\x00\x00\x00\x00\x00@V\xc0'
p268
tp269
Rp270
aNaNaNaNaNaNaa(lp271
NaNaNaNaNaNaNaNaNaNaNaNaNaNaNaNaa(lp272
NaNaNaNaNaNaNaNaNaNaNaNaNaNaNaNaa(lp273
NaNaNaNaNaNaNaNaNaNaNaNaNaNaNaNaa(lp274
NaNaNaNaNaNaNaNaNaNaNaNaNaNaNaNaa(lp275
NaNaNaNaNaNaNaNaNaNaNaNaNaNaNaNaa(lp276
NaNaNaNaNaNaNaNaNaNaNaNaNaNaNaNaa(lp277
NaNaNaNaNaNaNaNaNaNaNaNaNaNaNaNaasS'c8:bc:c8:c4:78:70'
p278
(lp279
(lp280
NaNaNaNaNaNaNaNaNaNaNaNaNaNaNaNaa(lp281
NaNaNaNaNaNaNaNaNaNaNaNaNaNaNaNaa(lp282
NaNaNaNaNaNaNaNaNaNaNaNaNaNaNaNaa(lp283
NaNaNaNaNaNaNaNaNaNaNaNaNaNaNaNaa(lp284
NaNaNaNaNaNaNaNaNaNaNaNaNaNaNaNaa(lp285
NaNaNaNaNaNaNaNaNaNaNaNaNaNaNaNaa(lp286
NaNaNaNaNaNaNaNaNaNaNaNaNaNaNaNaa(lp287
NaNaNaNaNaNaNaNaNaNaNaNaNaNaNaNaa(lp288
NaNaNaNaNaNaNag12
(g16
S'33333sS\xc0'
p289
tp290
Rp291
aNag12
(g16
S'\x00\x00\x00\x00\x00\x00T\xc0'
p292
tp293
Rp294
aNaNaNaNaNaNaa(lp295
NaNaNaNaNaNaNaNaNaNaNaNaNaNaNaNaa(lp296
NaNaNaNaNaNaNaNaNaNaNaNaNaNaNaNaa(lp297
NaNaNaNaNaNaNaNaNaNaNaNaNaNaNaNaa(lp298
NaNaNaNaNaNaNaNaNaNaNaNaNaNaNaNaa(lp299
NaNaNaNaNaNaNaNaNaNaNaNaNaNaNaNaa(lp300
NaNaNaNaNaNaNaNaNaNaNaNaNaNaNaNaa(lp301
NaNaNaNaNaNaNaNaNaNaNaNaNaNaNaNaasS'30:10:b3:47:92:a5'
p302
(lp303
(lp304
NaNaNaNaNaNaNaNaNaNaNaNaNaNaNaNaa(lp305
NaNaNaNaNaNaNaNaNaNaNaNaNaNaNaNaa(lp306
NaNaNaNaNaNaNaNaNaNaNaNaNaNaNaNaa(lp307
NaNaNaNaNaNaNaNaNaNaNaNaNaNaNaNaa(lp308
NaNaNaNaNaNaNaNaNaNaNaNaNaNaNaNaa(lp309
NaNaNaNaNaNaNaNaNaNaNaNaNaNaNaNaa(lp310
NaNaNaNaNaNaNaNaNaNaNaNaNaNaNaNaa(lp311
NaNaNaNaNaNaNaNaNaNaNaNaNaNaNaNaa(lp312
NaNaNaNaNaNaNaNaNag12
(g16
S'\x00\x00\x00\x00\x00@W\xc0'
p313
tp314
Rp315
aNaNaNaNaNaNaa(lp316
NaNaNaNaNaNaNaNaNaNaNaNaNaNaNaNaa(lp317
NaNaNaNaNaNaNaNaNaNaNaNaNaNaNaNaa(lp318
NaNaNaNaNaNaNaNaNaNaNaNaNaNaNaNaa(lp319
NaNaNaNaNaNaNaNaNaNaNaNaNaNaNaNaa(lp320
NaNaNaNaNaNaNaNaNaNaNaNaNaNaNaNaa(lp321
NaNaNaNaNaNaNaNaNaNaNaNaNaNaNaNaa(lp322
NaNaNaNaNaNaNaNaNaNaNaNaNaNaNaNaasS'ec:35:86:39:cf:32'
p323
(lp324
(lp325
NaNaNaNaNaNaNaNaNaNaNaNaNaNaNaNaa(lp326
NaNaNaNaNaNaNaNaNaNaNaNaNaNaNaNaa(lp327
NaNaNaNaNaNaNaNaNaNaNaNaNaNaNaNaa(lp328
NaNaNaNaNaNaNaNaNaNaNaNaNaNaNaNaa(lp329
NaNaNaNaNaNaNaNaNaNaNaNaNaNaNaNaa(lp330
NaNaNaNaNaNaNaNaNaNaNaNaNaNaNaNaa(lp331
NaNaNaNaNaNaNaNaNaNaNaNaNaNaNaNaa(lp332
NaNaNaNaNaNaNaNaNaNaNaNaNaNaNaNaa(lp333
NaNaNaNaNaNaNag12
(g16
S'\x00\x00\x00\x00\x00@T\xc0'
p334
tp335
Rp336
aNaNaNaNaNaNaNaNaa(lp337
NaNaNaNaNaNaNaNaNaNaNaNaNaNaNaNaa(lp338
NaNaNaNaNaNaNaNaNaNaNaNaNaNaNaNaa(lp339
NaNaNaNaNaNaNaNaNaNaNaNaNaNaNaNaa(lp340
NaNaNaNaNaNaNaNaNaNaNaNaNaNaNaNaa(lp341
NaNaNaNaNaNaNaNaNaNaNaNaNaNaNaNaa(lp342
NaNaNaNaNaNaNaNaNaNaNaNaNaNaNaNaa(lp343
NaNaNaNaNaNaNaNaNaNaNaNaNaNaNaNaasS'f0:25:b7:90:e8:13'
p344
(lp345
(lp346
NaNaNaNaNaNaNaNaNaNaNaNaNaNaNaNaa(lp347
NaNaNaNaNaNaNaNaNaNaNaNaNaNaNaNaa(lp348
NaNaNaNaNaNaNaNaNaNaNaNaNaNaNaNaa(lp349
NaNaNaNaNaNaNaNaNaNaNaNaNaNaNaNaa(lp350
NaNaNaNaNaNaNaNaNaNaNaNaNaNaNaNaa(lp351
NaNaNaNaNaNaNaNaNaNaNaNaNaNaNaNaa(lp352
NaNaNaNaNaNaNaNaNaNaNaNaNaNaNaNaa(lp353
NaNaNaNaNaNaNaNaNaNaNaNaNaNaNaNaa(lp354
NaNaNaNaNaNaNag12
(g16
S'\x00\x00\x00\x00\x00\xbcT\xc0'
p355
tp356
Rp357
aNag12
(g16
S'\xc7q\x1c\xc7q\\S\xc0'
p358
tp359
Rp360
aNaNaNaNaNaNaa(lp361
NaNaNaNaNaNaNaNaNaNaNaNaNaNaNaNaa(lp362
NaNaNaNaNaNaNaNaNaNaNaNaNaNaNaNaa(lp363
NaNaNaNaNaNaNaNaNaNaNaNaNaNaNaNaa(lp364
NaNaNaNaNaNaNaNaNaNaNaNaNaNaNaNaa(lp365
NaNaNaNaNaNaNaNaNaNaNaNaNaNaNaNaa(lp366
NaNaNaNaNaNaNaNaNaNaNaNaNaNaNaNaa(lp367
NaNaNaNaNaNaNaNaNaNaNaNaNaNaNaNaasS'00:1a:1e:11:4d:04'
p368
(lp369
(lp370
NaNaNaNaNaNaNaNaNaNaNaNaNaNaNaNaa(lp371
NaNaNaNaNaNaNaNaNaNaNaNaNaNaNaNaa(lp372
NaNaNaNaNaNaNaNaNaNaNaNaNaNaNaNaa(lp373
NaNaNaNaNaNaNaNaNaNaNaNaNaNaNaNaa(lp374
NaNaNaNaNaNaNaNaNaNaNaNaNaNaNaNaa(lp375
NaNaNaNaNaNaNaNaNaNaNaNaNaNaNaNaa(lp376
NaNaNaNaNaNaNaNaNaNaNaNaNaNaNaNaa(lp377
NaNaNaNaNaNaNaNaNaNaNaNaNaNaNaNaa(lp378
NaNaNaNaNaNaNag12
(g16
S'\x00\x00\x00\x00\x00@V\xc0'
p379
tp380
Rp381
aNaNaNaNaNaNaNaNaa(lp382
NaNaNaNaNaNaNaNaNaNaNaNaNaNaNaNaa(lp383
NaNaNaNaNaNaNaNaNaNaNaNaNaNaNaNaa(lp384
NaNaNaNaNaNaNaNaNaNaNaNaNaNaNaNaa(lp385
NaNaNaNaNaNaNaNaNaNaNaNaNaNaNaNaa(lp386
NaNaNaNaNaNaNaNaNaNaNaNaNaNaNaNaa(lp387
NaNaNaNaNaNaNaNaNaNaNaNaNaNaNaNaa(lp388
NaNaNaNaNaNaNaNaNaNaNaNaNaNaNaNaasS'c8:e0:eb:17:76:9d'
p389
(lp390
(lp391
NaNaNaNaNaNaNaNaNaNaNaNaNaNaNaNaa(lp392
NaNaNaNaNaNaNaNaNaNaNaNaNaNaNaNaa(lp393
NaNaNaNaNaNaNaNaNaNaNaNaNaNaNaNaa(lp394
NaNaNaNaNaNaNaNaNaNaNaNaNaNaNaNaa(lp395
NaNaNaNaNaNaNaNaNaNaNaNaNaNaNaNaa(lp396
NaNaNaNaNaNaNaNaNaNaNaNaNaNaNaNaa(lp397
NaNaNaNaNaNaNaNaNaNaNaNaNaNaNaNaa(lp398
NaNaNaNaNaNaNaNaNaNaNaNaNaNaNaNaa(lp399
NaNaNaNaNaNaNag12
(g16
S'\x00\x00\x00\x00\x00\x10S\xc0'
p400
tp401
Rp402
aNaNaNaNaNaNaNaNaa(lp403
NaNaNaNaNaNaNaNaNaNaNaNaNaNaNaNaa(lp404
NaNaNaNaNaNaNaNaNaNaNaNaNaNaNaNaa(lp405
NaNaNaNaNaNaNaNaNaNaNaNaNaNaNaNaa(lp406
NaNaNaNaNaNaNaNaNaNaNaNaNaNaNaNaa(lp407
NaNaNaNaNaNaNaNaNaNaNaNaNaNaNaNaa(lp408
NaNaNaNaNaNaNaNaNaNaNaNaNaNaNaNaa(lp409
NaNaNaNaNaNaNaNaNaNaNaNaNaNaNaNaasS'd8:eb:97:ac:5e:78'
p410
(lp411
(lp412
NaNaNaNaNaNaNaNaNaNaNaNaNaNaNaNaa(lp413
NaNaNaNaNaNaNaNaNaNaNaNaNaNaNaNaa(lp414
NaNaNaNaNaNaNaNaNaNaNaNaNaNaNaNaa(lp415
NaNaNaNaNaNaNaNaNaNaNaNaNaNaNaNaa(lp416
NaNaNaNaNaNaNaNaNaNaNaNaNaNaNaNaa(lp417
NaNaNaNaNaNaNaNaNaNaNaNaNaNaNaNaa(lp418
NaNaNaNaNaNaNaNaNaNaNaNaNaNaNaNaa(lp419
NaNaNaNaNaNaNaNaNaNaNaNaNaNaNaNaa(lp420
NaNaNaNaNaNaNag12
(g16
S'\x00\x00\x00\x00\x00\x00V\xc0'
p421
tp422
Rp423
aNaNaNaNaNaNaNaNaa(lp424
NaNaNaNaNaNaNaNaNaNaNaNaNaNaNaNaa(lp425
NaNaNaNaNaNaNaNaNaNaNaNaNaNaNaNaa(lp426
NaNaNaNaNaNaNaNaNaNaNaNaNaNaNaNaa(lp427
NaNaNaNaNaNaNaNaNaNaNaNaNaNaNaNaa(lp428
NaNaNaNaNaNaNaNaNaNaNaNaNaNaNaNaa(lp429
NaNaNaNaNaNaNaNaNaNaNaNaNaNaNaNaa(lp430
NaNaNaNaNaNaNaNaNaNaNaNaNaNaNaNaasS'8c:2d:aa:5d:02:a1'
p431
(lp432
(lp433
NaNaNaNaNaNaNaNaNaNaNaNaNaNaNaNaa(lp434
NaNaNaNaNaNaNaNaNaNaNaNaNaNaNaNaa(lp435
NaNaNaNaNaNaNaNaNaNaNaNaNaNaNaNaa(lp436
NaNaNaNaNaNaNaNaNaNaNaNaNaNaNaNaa(lp437
NaNaNaNaNaNaNaNaNaNaNaNaNaNaNaNaa(lp438
NaNaNaNaNaNaNaNaNaNaNaNaNaNaNaNaa(lp439
NaNaNaNaNaNaNaNaNaNaNaNaNaNaNaNaa(lp440
NaNaNaNaNaNaNaNaNaNaNaNaNaNaNaNaa(lp441
NaNaNaNaNaNaNag12
(g16
S'\x9a\x99\x99\x99\x99YU\xc0'
p442
tp443
Rp444
aNag12
(g16
S'\xb7m\xdb\xb6m\x1bU\xc0'
p445
tp446
Rp447
aNaNaNaNaNaNaa(lp448
NaNaNaNaNaNaNaNaNaNaNaNaNaNaNaNaa(lp449
NaNaNaNaNaNaNaNaNaNaNaNaNaNaNaNaa(lp450
NaNaNaNaNaNaNaNaNaNaNaNaNaNaNaNaa(lp451
NaNaNaNaNaNaNaNaNaNaNaNaNaNaNaNaa(lp452
NaNaNaNaNaNaNaNaNaNaNaNaNaNaNaNaa(lp453
NaNaNaNaNaNaNaNaNaNaNaNaNaNaNaNaa(lp454
NaNaNaNaNaNaNaNaNaNaNaNaNaNaNaNaasS'ec:35:86:3b:84:70'
p455
(lp456
(lp457
NaNaNaNaNaNaNaNaNaNaNaNaNaNaNaNaa(lp458
NaNaNaNaNaNaNaNaNaNaNaNaNaNaNaNaa(lp459
NaNaNaNaNaNaNaNaNaNaNaNaNaNaNaNaa(lp460
NaNaNaNaNaNaNaNaNaNaNaNaNaNaNaNaa(lp461
NaNaNaNaNaNaNaNaNaNaNaNaNaNaNaNaa(lp462
NaNaNaNaNaNaNaNaNaNaNaNaNaNaNaNaa(lp463
NaNaNaNaNaNaNaNaNaNaNaNaNaNaNaNaa(lp464
NaNaNaNaNaNaNaNaNaNaNaNaNaNaNaNaa(lp465
NaNaNaNaNaNaNag12
(g16
S'fffff\xe6T\xc0'
p466
tp467
Rp468
aNaNaNaNaNaNaNaNaa(lp469
NaNaNaNaNaNaNaNaNaNaNaNaNaNaNaNaa(lp470
NaNaNaNaNaNaNaNaNaNaNaNaNaNaNaNaa(lp471
NaNaNaNaNaNaNaNaNaNaNaNaNaNaNaNaa(lp472
NaNaNaNaNaNaNaNaNaNaNaNaNaNaNaNaa(lp473
NaNaNaNaNaNaNaNaNaNaNaNaNaNaNaNaa(lp474
NaNaNaNaNaNaNaNaNaNaNaNaNaNaNaNaa(lp475
NaNaNaNaNaNaNaNaNaNaNaNaNaNaNaNaasS'00:24:6c:c5:49:a2'
p476
(lp477
(lp478
NaNaNaNaNaNaNaNaNaNaNaNaNaNaNaNaa(lp479
NaNaNaNaNaNaNaNaNaNaNaNaNaNaNaNaa(lp480
NaNaNaNaNaNaNaNaNaNaNaNaNaNaNaNaa(lp481
NaNaNaNaNaNaNaNaNaNaNaNaNaNaNaNaa(lp482
NaNaNaNaNaNaNaNaNaNaNaNaNaNaNaNaa(lp483
NaNaNaNaNaNaNaNaNaNaNaNaNaNaNaNaa(lp484
NaNaNaNaNaNaNaNaNaNaNaNaNaNaNaNaa(lp485
NaNaNaNaNaNaNaNaNaNaNaNaNaNaNaNaa(lp486
NaNaNaNaNaNaNag12
(g16
S'\xec\xc4N\xec\xc4NI\xc0'
p487
tp488
Rp489
aNag12
(g16
S'\x8e\xe38\x8e\xe38H\xc0'
p490
tp491
Rp492
aNaNaNaNaNaNaa(lp493
NaNaNaNaNaNaNaNaNaNaNaNaNaNaNaNaa(lp494
NaNaNaNaNaNaNaNaNaNaNaNaNaNaNaNaa(lp495
NaNaNaNaNaNaNaNaNaNaNaNaNaNaNaNaa(lp496
NaNaNaNaNaNaNaNaNaNaNaNaNaNaNaNaa(lp497
NaNaNaNaNaNaNaNaNaNaNaNaNaNaNaNaa(lp498
NaNaNaNaNaNaNaNaNaNaNaNaNaNaNaNaa(lp499
NaNaNaNaNaNaNaNaNaNaNaNaNaNaNaNaasS'4c:7c:5f:29:23:0e'
p500
(lp501
(lp502
NaNaNaNaNaNaNaNaNaNaNaNaNaNaNaNaa(lp503
NaNaNaNaNaNaNaNaNaNaNaNaNaNaNaNaa(lp504
NaNaNaNaNaNaNaNaNaNaNaNaNaNaNaNaa(lp505
NaNaNaNaNaNaNaNaNaNaNaNaNaNaNaNaa(lp506
NaNaNaNaNaNaNaNaNaNaNaNaNaNaNaNaa(lp507
NaNaNaNaNaNaNaNaNaNaNaNaNaNaNaNaa(lp508
NaNaNaNaNaNaNaNaNaNaNaNaNaNaNaNaa(lp509
NaNaNaNaNaNaNaNaNaNaNaNaNaNaNaNaa(lp510
NaNaNaNaNaNaNag12
(g16
S'\x00\x00\x00\x00\x00\x90S\xc0'
p511
tp512
Rp513
aNaNaNaNaNaNaNaNaa(lp514
NaNaNaNaNaNaNaNaNaNaNaNaNaNaNaNaa(lp515
NaNaNaNaNaNaNaNaNaNaNaNaNaNaNaNaa(lp516
NaNaNaNaNaNaNaNaNaNaNaNaNaNaNaNaa(lp517
NaNaNaNaNaNaNaNaNaNaNaNaNaNaNaNaa(lp518
NaNaNaNaNaNaNaNaNaNaNaNaNaNaNaNaa(lp519
NaNaNaNaNaNaNaNaNaNaNaNaNaNaNaNaa(lp520
NaNaNaNaNaNaNaNaNaNaNaNaNaNaNaNaasS'00:24:6c:c5:49:a1'
p521
(lp522
(lp523
NaNaNaNaNaNaNaNaNaNaNaNaNaNaNaNaa(lp524
NaNaNaNaNaNaNaNaNaNaNaNaNaNaNaNaa(lp525
NaNaNaNaNaNaNaNaNaNaNaNaNaNaNaNaa(lp526
NaNaNaNaNaNaNaNaNaNaNaNaNaNaNaNaa(lp527
NaNaNaNaNaNaNaNaNaNaNaNaNaNaNaNaa(lp528
NaNaNaNaNaNaNaNaNaNaNaNaNaNaNaNaa(lp529
NaNaNaNaNaNaNaNaNaNaNaNaNaNaNaNaa(lp530
NaNaNaNaNaNaNaNaNaNaNaNaNaNaNaNaa(lp531
NaNaNaNaNaNaNag12
(g16
S'\x00\x00\x00\x00\x00\xe0J\xc0'
p532
tp533
Rp534
aNag12
(g16
S'\x00\x00\x00\x00\x00\x80I\xc0'
p535
tp536
Rp537
aNaNaNaNaNaNaa(lp538
NaNaNaNaNaNaNaNaNaNaNaNaNaNaNaNaa(lp539
NaNaNaNaNaNaNaNaNaNaNaNaNaNaNaNaa(lp540
NaNaNaNaNaNaNaNaNaNaNaNaNaNaNaNaa(lp541
NaNaNaNaNaNaNaNaNaNaNaNaNaNaNaNaa(lp542
NaNaNaNaNaNaNaNaNaNaNaNaNaNaNaNaa(lp543
NaNaNaNaNaNaNaNaNaNaNaNaNaNaNaNaa(lp544
NaNaNaNaNaNaNaNaNaNaNaNaNaNaNaNaasS'ec:35:86:3b:bf:18'
p545
(lp546
(lp547
NaNaNaNaNaNaNaNaNaNaNaNaNaNaNaNaa(lp548
NaNaNaNaNaNaNaNaNaNaNaNaNaNaNaNaa(lp549
NaNaNaNaNaNaNaNaNaNaNaNaNaNaNaNaa(lp550
NaNaNaNaNaNaNaNaNaNaNaNaNaNaNaNaa(lp551
NaNaNaNaNaNaNaNaNaNaNaNaNaNaNaNaa(lp552
NaNaNaNaNaNaNaNaNaNaNaNaNaNaNaNaa(lp553
NaNaNaNaNaNaNaNaNaNaNaNaNaNaNaNaa(lp554
NaNaNaNaNaNaNaNaNaNaNaNaNaNaNaNaa(lp555
NaNaNaNaNaNaNaNaNag12
(g16
S'\x00\x00\x00\x00\x00\xb0S\xc0'
p556
tp557
Rp558
aNaNaNaNaNaNaa(lp559
NaNaNaNaNaNaNaNaNaNaNaNaNaNaNaNaa(lp560
NaNaNaNaNaNaNaNaNaNaNaNaNaNaNaNaa(lp561
NaNaNaNaNaNaNaNaNaNaNaNaNaNaNaNaa(lp562
NaNaNaNaNaNaNaNaNaNaNaNaNaNaNaNaa(lp563
NaNaNaNaNaNaNaNaNaNaNaNaNaNaNaNaa(lp564
NaNaNaNaNaNaNaNaNaNaNaNaNaNaNaNaa(lp565
NaNaNaNaNaNaNaNaNaNaNaNaNaNaNaNaasS'0e:80:a5:e0:a9:cc'
p566
(lp567
(lp568
NaNaNaNaNaNaNaNaNaNaNaNaNaNaNaNaa(lp569
NaNaNaNaNaNaNaNaNaNaNaNaNaNaNaNaa(lp570
NaNaNaNaNaNaNaNaNaNaNaNaNaNaNaNaa(lp571
NaNaNaNaNaNaNaNaNaNaNaNaNaNaNaNaa(lp572
NaNaNaNaNaNaNaNaNaNaNaNaNaNaNaNaa(lp573
NaNaNaNaNaNaNaNaNaNaNaNaNaNaNaNaa(lp574
NaNaNaNaNaNaNaNaNaNaNaNaNaNaNaNaa(lp575
NaNaNaNaNaNaNaNaNaNaNaNaNaNaNaNaa(lp576
NaNaNaNaNaNaNag12
(g16
S'\x00\x00\x00\x00\x00\xa8S\xc0'
p577
tp578
Rp579
aNag12
(g16
S'\x00\x00\x00\x00\x00\x88T\xc0'
p580
tp581
Rp582
aNaNaNaNaNaNaa(lp583
NaNaNaNaNaNaNaNaNaNaNaNaNaNaNaNaa(lp584
NaNaNaNaNaNaNaNaNaNaNaNaNaNaNaNaa(lp585
NaNaNaNaNaNaNaNaNaNaNaNaNaNaNaNaa(lp586
NaNaNaNaNaNaNaNaNaNaNaNaNaNaNaNaa(lp587
NaNaNaNaNaNaNaNaNaNaNaNaNaNaNaNaa(lp588
NaNaNaNaNaNaNaNaNaNaNaNaNaNaNaNaa(lp589
NaNaNaNaNaNaNaNaNaNaNaNaNaNaNaNaasS'fc:c2:de:8c:ce:a9'
p590
(lp591
(lp592
NaNaNaNaNaNaNaNaNaNaNaNaNaNaNaNaa(lp593
NaNaNaNaNaNaNaNaNaNaNaNaNaNaNaNaa(lp594
NaNaNaNaNaNaNaNaNaNaNaNaNaNaNaNaa(lp595
NaNaNaNaNaNaNaNaNaNaNaNaNaNaNaNaa(lp596
NaNaNaNaNaNaNaNaNaNaNaNaNaNaNaNaa(lp597
NaNaNaNaNaNaNaNaNaNaNaNaNaNaNaNaa(lp598
NaNaNaNaNaNaNaNaNaNaNaNaNaNaNaNaa(lp599
NaNaNaNaNaNaNaNaNaNaNaNaNaNaNaNaa(lp600
NaNaNaNaNaNaNag12
(g16
S'\x00\x00\x00\x00\x00XS\xc0'
p601
tp602
Rp603
aNag12
(g16
S'\x00\x00\x00\x00\x00\xa0S\xc0'
p604
tp605
Rp606
aNaNaNaNaNaNaa(lp607
NaNaNaNaNaNaNaNaNaNaNaNaNaNaNaNaa(lp608
NaNaNaNaNaNaNaNaNaNaNaNaNaNaNaNaa(lp609
NaNaNaNaNaNaNaNaNaNaNaNaNaNaNaNaa(lp610
NaNaNaNaNaNaNaNaNaNaNaNaNaNaNaNaa(lp611
NaNaNaNaNaNaNaNaNaNaNaNaNaNaNaNaa(lp612
NaNaNaNaNaNaNaNaNaNaNaNaNaNaNaNaa(lp613
NaNaNaNaNaNaNaNaNaNaNaNaNaNaNaNaasS'00:00:48:22:bf:eb'
p614
(lp615
(lp616
NaNaNaNaNaNaNaNaNaNaNaNaNaNaNaNaa(lp617
NaNaNaNaNaNaNaNaNaNaNaNaNaNaNaNaa(lp618
NaNaNaNaNaNaNaNaNaNaNaNaNaNaNaNaa(lp619
NaNaNaNaNaNaNaNaNaNaNaNaNaNaNaNaa(lp620
NaNaNaNaNaNaNaNaNaNaNaNaNaNaNaNaa(lp621
NaNaNaNaNaNaNaNaNaNaNaNaNaNaNaNaa(lp622
NaNaNaNaNaNaNaNaNaNaNaNaNaNaNaNaa(lp623
NaNaNaNaNaNaNaNaNaNaNaNaNaNaNaNaa(lp624
NaNaNaNaNaNaNag12
(g16
S'"""""bS\xc0'
p625
tp626
Rp627
aNag12
(g16
S'r\x1c\xc7q\x1cgS\xc0'
p628
tp629
Rp630
aNaNaNaNaNaNaa(lp631
NaNaNaNaNaNaNaNaNaNaNaNaNaNaNaNaa(lp632
NaNaNaNaNaNaNaNaNaNaNaNaNaNaNaNaa(lp633
NaNaNaNaNaNaNaNaNaNaNaNaNaNaNaNaa(lp634
NaNaNaNaNaNaNaNaNaNaNaNaNaNaNaNaa(lp635
NaNaNaNaNaNaNaNaNaNaNaNaNaNaNaNaa(lp636
NaNaNaNaNaNaNaNaNaNaNaNaNaNaNaNaa(lp637
NaNaNaNaNaNaNaNaNaNaNaNaNaNaNaNaasS'b8:e8:56:aa:17:3e'
p638
(lp639
(lp640
NaNaNaNaNaNaNaNaNaNaNaNaNaNaNaNaa(lp641
NaNaNaNaNaNaNaNaNaNaNaNaNaNaNaNaa(lp642
NaNaNaNaNaNaNaNaNaNaNaNaNaNaNaNaa(lp643
NaNaNaNaNaNaNaNaNaNaNaNaNaNaNaNaa(lp644
NaNaNaNaNaNaNaNaNaNaNaNaNaNaNaNaa(lp645
NaNaNaNaNaNaNaNaNaNaNaNaNaNaNaNaa(lp646
NaNaNaNaNaNaNaNaNaNaNaNaNaNaNaNaa(lp647
NaNaNaNaNaNaNaNaNaNaNaNaNaNaNaNaa(lp648
NaNaNaNaNaNaNag12
(g16
S'\x00\x00\x00\x00\x00\x80S\xc0'
p649
tp650
Rp651
aNag12
(g16
S'\x00\x00\x00\x00\x00\xe0T\xc0'
p652
tp653
Rp654
aNaNaNaNaNaNaa(lp655
NaNaNaNaNaNaNaNaNaNaNaNaNaNaNaNaa(lp656
NaNaNaNaNaNaNaNaNaNaNaNaNaNaNaNaa(lp657
NaNaNaNaNaNaNaNaNaNaNaNaNaNaNaNaa(lp658
NaNaNaNaNaNaNaNaNaNaNaNaNaNaNaNaa(lp659
NaNaNaNaNaNaNaNaNaNaNaNaNaNaNaNaa(lp660
NaNaNaNaNaNaNaNaNaNaNaNaNaNaNaNaa(lp661
NaNaNaNaNaNaNaNaNaNaNaNaNaNaNaNaasS'00:24:b2:10:ef:44'
p662
(lp663
(lp664
NaNaNaNaNaNaNaNaNaNaNaNaNaNaNaNaa(lp665
NaNaNaNaNaNaNaNaNaNaNaNaNaNaNaNaa(lp666
NaNaNaNaNaNaNaNaNaNaNaNaNaNaNaNaa(lp667
NaNaNaNaNaNaNaNaNaNaNaNaNaNaNaNaa(lp668
NaNaNaNaNaNaNaNaNaNaNaNaNaNaNaNaa(lp669
NaNaNaNaNaNaNaNaNaNaNaNaNaNaNaNaa(lp670
NaNaNaNaNaNaNaNaNaNaNaNaNaNaNaNaa(lp671
NaNaNaNaNaNaNaNaNaNaNaNaNaNaNaNaa(lp672
NaNaNaNaNaNaNag12
(g16
S'\x00\x00\x00\x00\x00`U\xc0'
p673
tp674
Rp675
aNag12
(g16
S'UUUUUeU\xc0'
p676
tp677
Rp678
aNaNaNaNaNaNaa(lp679
NaNaNaNaNaNaNaNaNaNaNaNaNaNaNaNaa(lp680
NaNaNaNaNaNaNaNaNaNaNaNaNaNaNaNaa(lp681
NaNaNaNaNaNaNaNaNaNaNaNaNaNaNaNaa(lp682
NaNaNaNaNaNaNaNaNaNaNaNaNaNaNaNaa(lp683
NaNaNaNaNaNaNaNaNaNaNaNaNaNaNaNaa(lp684
NaNaNaNaNaNaNaNaNaNaNaNaNaNaNaNaa(lp685
NaNaNaNaNaNaNaNaNaNaNaNaNaNaNaNaasS'00:18:39:81:1a:c9'
p686
(lp687
(lp688
NaNaNaNaNaNaNaNaNaNaNaNaNaNaNaNaa(lp689
NaNaNaNaNaNaNaNaNaNaNaNaNaNaNaNaa(lp690
NaNaNaNaNaNaNaNaNaNaNaNaNaNaNaNaa(lp691
NaNaNaNaNaNaNaNaNaNaNaNaNaNaNaNaa(lp692
NaNaNaNaNaNaNaNaNaNaNaNaNaNaNaNaa(lp693
NaNaNaNaNaNaNaNaNaNaNaNaNaNaNaNaa(lp694
NaNaNaNaNaNaNaNaNaNaNaNaNaNaNaNaa(lp695
NaNaNaNaNaNaNaNaNaNaNaNaNaNaNaNaa(lp696
NaNaNaNaNaNaNag12
(g16
S'\x00\x00\x00\x00\x00\xc0T\xc0'
p697
tp698
Rp699
aNag12
(g16
S'\xab\xaa\xaa\xaa\xaa\xeaU\xc0'
p700
tp701
Rp702
aNaNaNaNaNaNaa(lp703
NaNaNaNaNaNaNaNaNaNaNaNaNaNaNaNaa(lp704
NaNaNaNaNaNaNaNaNaNaNaNaNaNaNaNaa(lp705
NaNaNaNaNaNaNaNaNaNaNaNaNaNaNaNaa(lp706
NaNaNaNaNaNaNaNaNaNaNaNaNaNaNaNaa(lp707
NaNaNaNaNaNaNaNaNaNaNaNaNaNaNaNaa(lp708
NaNaNaNaNaNaNaNaNaNaNaNaNaNaNaNaa(lp709
NaNaNaNaNaNaNaNaNaNaNaNaNaNaNaNaasS'00:14:d1:9f:6e:18'
p710
(lp711
(lp712
NaNaNaNaNaNaNaNaNaNaNaNaNaNaNaNaa(lp713
NaNaNaNaNaNaNaNaNaNaNaNaNaNaNaNaa(lp714
NaNaNaNaNaNaNaNaNaNaNaNaNaNaNaNaa(lp715
NaNaNaNaNaNaNaNaNaNaNaNaNaNaNaNaa(lp716
NaNaNaNaNaNaNaNaNaNaNaNaNaNaNaNaa(lp717
NaNaNaNaNaNaNaNaNaNaNaNaNaNaNaNaa(lp718
NaNaNaNaNaNaNaNaNaNaNaNaNaNaNaNaa(lp719
NaNaNaNaNaNaNaNaNaNaNaNaNaNaNaNaa(lp720
NaNaNaNaNaNaNaNaNag12
(g16
S'\x00\x00\x00\x00\x00\x80V\xc0'
p721
tp722
Rp723
aNaNaNaNaNaNaa(lp724
NaNaNaNaNaNaNaNaNaNaNaNaNaNaNaNaa(lp725
NaNaNaNaNaNaNaNaNaNaNaNaNaNaNaNaa(lp726
NaNaNaNaNaNaNaNaNaNaNaNaNaNaNaNaa(lp727
NaNaNaNaNaNaNaNaNaNaNaNaNaNaNaNaa(lp728
NaNaNaNaNaNaNaNaNaNaNaNaNaNaNaNaa(lp729
NaNaNaNaNaNaNaNaNaNaNaNaNaNaNaNaa(lp730
NaNaNaNaNaNaNaNaNaNaNaNaNaNaNaNaasS'5c:95:ae:15:3b:79'
p731
(lp732
(lp733
NaNaNaNaNaNaNaNaNaNaNaNaNaNaNaNaa(lp734
NaNaNaNaNaNaNaNaNaNaNaNaNaNaNaNaa(lp735
NaNaNaNaNaNaNaNaNaNaNaNaNaNaNaNaa(lp736
NaNaNaNaNaNaNaNaNaNaNaNaNaNaNaNaa(lp737
NaNaNaNaNaNaNaNaNaNaNaNaNaNaNaNaa(lp738
NaNaNaNaNaNaNaNaNaNaNaNaNaNaNaNaa(lp739
NaNaNaNaNaNaNaNaNaNaNaNaNaNaNaNaa(lp740
NaNaNaNaNaNaNaNaNaNaNaNaNaNaNaNaa(lp741
NaNaNaNaNaNaNaNaNag12
(g16
S'\x9a\x99\x99\x99\x99\x99T\xc0'
p742
tp743
Rp744
aNaNaNaNaNaNaa(lp745
NaNaNaNaNaNaNaNaNaNaNaNaNaNaNaNaa(lp746
NaNaNaNaNaNaNaNaNaNaNaNaNaNaNaNaa(lp747
NaNaNaNaNaNaNaNaNaNaNaNaNaNaNaNaa(lp748
NaNaNaNaNaNaNaNaNaNaNaNaNaNaNaNaa(lp749
NaNaNaNaNaNaNaNaNaNaNaNaNaNaNaNaa(lp750
NaNaNaNaNaNaNaNaNaNaNaNaNaNaNaNaa(lp751
NaNaNaNaNaNaNaNaNaNaNaNaNaNaNaNaasS'00:24:6c:c5:45:c1'
p752
(lp753
(lp754
NaNaNaNaNaNaNaNaNaNaNaNaNaNaNaNaa(lp755
NaNaNaNaNaNaNaNaNaNaNaNaNaNaNaNaa(lp756
NaNaNaNaNaNaNaNaNaNaNaNaNaNaNaNaa(lp757
NaNaNaNaNaNaNaNaNaNaNaNaNaNaNaNaa(lp758
NaNaNaNaNaNaNaNaNaNaNaNaNaNaNaNaa(lp759
NaNaNaNaNaNaNaNaNaNaNaNaNaNaNaNaa(lp760
NaNaNaNaNaNaNaNaNaNaNaNaNaNaNaNaa(lp761
NaNaNaNaNaNaNaNaNaNaNaNaNaNaNaNaa(lp762
NaNaNaNaNaNaNag12
(g16
S'UUUUU\x95T\xc0'
p763
tp764
Rp765
aNag12
(g16
S'\x00\x00\x00\x00\x000U\xc0'
p766
tp767
Rp768
aNaNaNaNaNaNaa(lp769
NaNaNaNaNaNaNaNaNaNaNaNaNaNaNaNaa(lp770
NaNaNaNaNaNaNaNaNaNaNaNaNaNaNaNaa(lp771
NaNaNaNaNaNaNaNaNaNaNaNaNaNaNaNaa(lp772
NaNaNaNaNaNaNaNaNaNaNaNaNaNaNaNaa(lp773
NaNaNaNaNaNaNaNaNaNaNaNaNaNaNaNaa(lp774
NaNaNaNaNaNaNaNaNaNaNaNaNaNaNaNaa(lp775
NaNaNaNaNaNaNaNaNaNaNaNaNaNaNaNaasS'00:24:6c:c5:45:c2'
p776
(lp777
(lp778
NaNaNaNaNaNaNaNaNaNaNaNaNaNaNaNaa(lp779
NaNaNaNaNaNaNaNaNaNaNaNaNaNaNaNaa(lp780
NaNaNaNaNaNaNaNaNaNaNaNaNaNaNaNaa(lp781
NaNaNaNaNaNaNaNaNaNaNaNaNaNaNaNaa(lp782
NaNaNaNaNaNaNaNaNaNaNaNaNaNaNaNaa(lp783
NaNaNaNaNaNaNaNaNaNaNaNaNaNaNaNaa(lp784
NaNaNaNaNaNaNaNaNaNaNaNaNaNaNaNaa(lp785
NaNaNaNaNaNaNaNaNaNaNaNaNaNaNaNaa(lp786
NaNaNaNaNaNaNag12
(g16
S'UUUUU\x95T\xc0'
p787
tp788
Rp789
aNag12
(g16
S'\xab\xaa\xaa\xaa\xaa*U\xc0'
p790
tp791
Rp792
aNaNaNaNaNaNaa(lp793
NaNaNaNaNaNaNaNaNaNaNaNaNaNaNaNaa(lp794
NaNaNaNaNaNaNaNaNaNaNaNaNaNaNaNaa(lp795
NaNaNaNaNaNaNaNaNaNaNaNaNaNaNaNaa(lp796
NaNaNaNaNaNaNaNaNaNaNaNaNaNaNaNaa(lp797
NaNaNaNaNaNaNaNaNaNaNaNaNaNaNaNaa(lp798
NaNaNaNaNaNaNaNaNaNaNaNaNaNaNaNaa(lp799
NaNaNaNaNaNaNaNaNaNaNaNaNaNaNaNaasS'00:16:b6:b2:c0:8d'
p800
(lp801
(lp802
NaNaNaNaNaNaNaNaNaNaNaNaNaNaNaNaa(lp803
NaNaNaNaNaNaNaNaNaNaNaNaNaNaNaNaa(lp804
NaNaNaNaNaNaNaNaNaNaNaNaNaNaNaNaa(lp805
NaNaNaNaNaNaNaNaNaNaNaNaNaNaNaNaa(lp806
NaNaNaNaNaNaNaNaNaNaNaNaNaNaNaNaa(lp807
NaNaNaNaNaNaNaNaNaNaNaNaNaNaNaNaa(lp808
NaNaNaNaNaNaNaNaNaNaNaNaNaNaNaNaa(lp809
NaNaNaNaNaNaNaNaNaNaNaNaNaNaNaNaa(lp810
NaNaNaNaNaNaNaNaNag12
(g16
S'UUUUUUV\xc0'
p811
tp812
Rp813
aNaNaNaNaNaNaa(lp814
NaNaNaNaNaNaNaNaNaNaNaNaNaNaNaNaa(lp815
NaNaNaNaNaNaNaNaNaNaNaNaNaNaNaNaa(lp816
NaNaNaNaNaNaNaNaNaNaNaNaNaNaNaNaa(lp817
NaNaNaNaNaNaNaNaNaNaNaNaNaNaNaNaa(lp818
NaNaNaNaNaNaNaNaNaNaNaNaNaNaNaNaa(lp819
NaNaNaNaNaNaNaNaNaNaNaNaNaNaNaNaa(lp820
NaNaNaNaNaNaNaNaNaNaNaNaNaNaNaNaasS'24:a2:e1:65:1c:8f'
p821
(lp822
(lp823
NaNaNaNaNaNaNaNaNaNaNaNaNaNaNaNaa(lp824
NaNaNaNaNaNaNaNaNaNaNaNaNaNaNaNaa(lp825
NaNaNaNaNaNaNaNaNaNaNaNaNaNaNaNaa(lp826
NaNaNaNaNaNaNaNaNaNaNaNaNaNaNaNaa(lp827
NaNaNaNaNaNaNaNaNaNaNaNaNaNaNaNaa(lp828
NaNaNaNaNaNaNaNaNaNaNaNaNaNaNaNaa(lp829
NaNaNaNaNaNaNaNaNaNaNaNaNaNaNaNaa(lp830
NaNaNaNaNaNaNaNaNaNaNaNaNaNaNaNaa(lp831
NaNaNaNaNaNaNaNaNag12
(g16
S'\xf1\x15_\xf1\x15?U\xc0'
p832
tp833
Rp834
aNaNaNaNaNaNaa(lp835
NaNaNaNaNaNaNaNaNaNaNaNaNaNaNaNaa(lp836
NaNaNaNaNaNaNaNaNaNaNaNaNaNaNaNaa(lp837
NaNaNaNaNaNaNaNaNaNaNaNaNaNaNaNaa(lp838
NaNaNaNaNaNaNaNaNaNaNaNaNaNaNaNaa(lp839
NaNaNaNaNaNaNaNaNaNaNaNaNaNaNaNaa(lp840
NaNaNaNaNaNaNaNaNaNaNaNaNaNaNaNaa(lp841
NaNaNaNaNaNaNaNaNaNaNaNaNaNaNaNaasS'58:a2:b5:7a:db:51'
p842
(lp843
(lp844
NaNaNaNaNaNaNaNaNaNaNaNaNaNaNaNaa(lp845
NaNaNaNaNaNaNaNaNaNaNaNaNaNaNaNaa(lp846
NaNaNaNaNaNaNaNaNaNaNaNaNaNaNaNaa(lp847
NaNaNaNaNaNaNaNaNaNaNaNaNaNaNaNaa(lp848
NaNaNaNaNaNaNaNaNaNaNaNaNaNaNaNaa(lp849
NaNaNaNaNaNaNaNaNaNaNaNaNaNaNaNaa(lp850
NaNaNaNaNaNaNaNaNaNaNaNaNaNaNaNaa(lp851
NaNaNaNaNaNaNaNaNaNaNaNaNaNaNaNaa(lp852
NaNaNaNaNaNaNag12
(g16
S'UUUUU\xd5S\xc0'
p853
tp854
Rp855
aNaNaNaNaNaNaNaNaa(lp856
NaNaNaNaNaNaNaNaNaNaNaNaNaNaNaNaa(lp857
NaNaNaNaNaNaNaNaNaNaNaNaNaNaNaNaa(lp858
NaNaNaNaNaNaNaNaNaNaNaNaNaNaNaNaa(lp859
NaNaNaNaNaNaNaNaNaNaNaNaNaNaNaNaa(lp860
NaNaNaNaNaNaNaNaNaNaNaNaNaNaNaNaa(lp861
NaNaNaNaNaNaNaNaNaNaNaNaNaNaNaNaa(lp862
NaNaNaNaNaNaNaNaNaNaNaNaNaNaNaNaasS'8c:2d:aa:55:fc:e5'
p863
(lp864
(lp865
NaNaNaNaNaNaNaNaNaNaNaNaNaNaNaNaa(lp866
NaNaNaNaNaNaNaNaNaNaNaNaNaNaNaNaa(lp867
NaNaNaNaNaNaNaNaNaNaNaNaNaNaNaNaa(lp868
NaNaNaNaNaNaNaNaNaNaNaNaNaNaNaNaa(lp869
NaNaNaNaNaNaNaNaNaNaNaNaNaNaNaNaa(lp870
NaNaNaNaNaNaNaNaNaNaNaNaNaNaNaNaa(lp871
NaNaNaNaNaNaNaNaNaNaNaNaNaNaNaNaa(lp872
NaNaNaNaNaNaNaNaNaNaNaNaNaNaNaNaa(lp873
NaNaNaNaNaNaNaNaNag12
(g16
S'\x00\x00\x00\x00\x00\xc0T\xc0'
p874
tp875
Rp876
aNaNaNaNaNaNaa(lp877
NaNaNaNaNaNaNaNaNaNaNaNaNaNaNaNaa(lp878
NaNaNaNaNaNaNaNaNaNaNaNaNaNaNaNaa(lp879
NaNaNaNaNaNaNaNaNaNaNaNaNaNaNaNaa(lp880
NaNaNaNaNaNaNaNaNaNaNaNaNaNaNaNaa(lp881
NaNaNaNaNaNaNaNaNaNaNaNaNaNaNaNaa(lp882
NaNaNaNaNaNaNaNaNaNaNaNaNaNaNaNaa(lp883
NaNaNaNaNaNaNaNaNaNaNaNaNaNaNaNaasS'04:db:56:12:10:23'
p884
(lp885
(lp886
NaNaNaNaNaNaNaNaNaNaNaNaNaNaNaNaa(lp887
NaNaNaNaNaNaNaNaNaNaNaNaNaNaNaNaa(lp888
NaNaNaNaNaNaNaNaNaNaNaNaNaNaNaNaa(lp889
NaNaNaNaNaNaNaNaNaNaNaNaNaNaNaNaa(lp890
NaNaNaNaNaNaNaNaNaNaNaNaNaNaNaNaa(lp891
NaNaNaNaNaNaNaNaNaNaNaNaNaNaNaNaa(lp892
NaNaNaNaNaNaNaNaNaNaNaNaNaNaNaNaa(lp893
NaNaNaNaNaNaNaNaNaNaNaNaNaNaNaNaa(lp894
NaNaNaNaNaNaNag12
(g16
S'\x00\x00\x00\x00\x00\x80T\xc0'
p895
tp896
Rp897
aNaNaNaNaNaNaNaNaa(lp898
NaNaNaNaNaNaNaNaNaNaNaNaNaNaNaNaa(lp899
NaNaNaNaNaNaNaNaNaNaNaNaNaNaNaNaa(lp900
NaNaNaNaNaNaNaNaNaNaNaNaNaNaNaNaa(lp901
NaNaNaNaNaNaNaNaNaNaNaNaNaNaNaNaa(lp902
NaNaNaNaNaNaNaNaNaNaNaNaNaNaNaNaa(lp903
NaNaNaNaNaNaNaNaNaNaNaNaNaNaNaNaa(lp904
NaNaNaNaNaNaNaNaNaNaNaNaNaNaNaNaasS'fc:c2:de:e9:82:f2'
p905
(lp906
(lp907
NaNaNaNaNaNaNaNaNaNaNaNaNaNaNaNaa(lp908
NaNaNaNaNaNaNaNaNaNaNaNaNaNaNaNaa(lp909
NaNaNaNaNaNaNaNaNaNaNaNaNaNaNaNaa(lp910
NaNaNaNaNaNaNaNaNaNaNaNaNaNaNaNaa(lp911
NaNaNaNaNaNaNaNaNaNaNaNaNaNaNaNaa(lp912
NaNaNaNaNaNaNaNaNaNaNaNaNaNaNaNaa(lp913
NaNaNaNaNaNaNaNaNaNaNaNaNaNaNaNaa(lp914
NaNaNaNaNaNaNaNaNaNaNaNaNaNaNaNaa(lp915
NaNaNaNaNaNaNag12
(g16
S'\x8c.\xba\xe8\xa2KS\xc0'
p916
tp917
Rp918
aNaNaNaNaNaNaNaNaa(lp919
NaNaNaNaNaNaNaNaNaNaNaNaNaNaNaNaa(lp920
NaNaNaNaNaNaNaNaNaNaNaNaNaNaNaNaa(lp921
NaNaNaNaNaNaNaNaNaNaNaNaNaNaNaNaa(lp922
NaNaNaNaNaNaNaNaNaNaNaNaNaNaNaNaa(lp923
NaNaNaNaNaNaNaNaNaNaNaNaNaNaNaNaa(lp924
NaNaNaNaNaNaNaNaNaNaNaNaNaNaNaNaa(lp925
NaNaNaNaNaNaNaNaNaNaNaNaNaNaNaNaasS'c0:1a:da:7d:d0:d7'
p926
(lp927
(lp928
NaNaNaNaNaNaNaNaNaNaNaNaNaNaNaNaa(lp929
NaNaNaNaNaNaNaNaNaNaNaNaNaNaNaNaa(lp930
NaNaNaNaNaNaNaNaNaNaNaNaNaNaNaNaa(lp931
NaNaNaNaNaNaNaNaNaNaNaNaNaNaNaNaa(lp932
NaNaNaNaNaNaNaNaNaNaNaNaNaNaNaNaa(lp933
NaNaNaNaNaNaNaNaNaNaNaNaNaNaNaNaa(lp934
NaNaNaNaNaNaNaNaNaNaNaNaNaNaNaNaa(lp935
NaNaNaNaNaNaNaNaNaNaNaNaNaNaNaNaa(lp936
NaNaNaNaNaNaNag12
(g16
S'UUUUU\x95U\xc0'
p937
tp938
Rp939
aNag12
(g16
S'\x00\x00\x00\x00\x00\xe0U\xc0'
p940
tp941
Rp942
aNaNaNaNaNaNaa(lp943
NaNaNaNaNaNaNaNaNaNaNaNaNaNaNaNaa(lp944
NaNaNaNaNaNaNaNaNaNaNaNaNaNaNaNaa(lp945
NaNaNaNaNaNaNaNaNaNaNaNaNaNaNaNaa(lp946
NaNaNaNaNaNaNaNaNaNaNaNaNaNaNaNaa(lp947
NaNaNaNaNaNaNaNaNaNaNaNaNaNaNaNaa(lp948
NaNaNaNaNaNaNaNaNaNaNaNaNaNaNaNaa(lp949
NaNaNaNaNaNaNaNaNaNaNaNaNaNaNaNaasS'f8:1e:df:de:ed:27'
p950
(lp951
(lp952
NaNaNaNaNaNaNaNaNaNaNaNaNaNaNaNaa(lp953
NaNaNaNaNaNaNaNaNaNaNaNaNaNaNaNaa(lp954
NaNaNaNaNaNaNaNaNaNaNaNaNaNaNaNaa(lp955
NaNaNaNaNaNaNaNaNaNaNaNaNaNaNaNaa(lp956
NaNaNaNaNaNaNaNaNaNaNaNaNaNaNaNaa(lp957
NaNaNaNaNaNaNaNaNaNaNaNaNaNaNaNaa(lp958
NaNaNaNaNaNaNaNaNaNaNaNaNaNaNaNaa(lp959
NaNaNaNaNaNaNaNaNaNaNaNaNaNaNaNaa(lp960
NaNaNaNaNaNaNag12
(g16
S'\x8a\x9d\xd8\x89\x9d\xd8S\xc0'
p961
tp962
Rp963
aNag12
(g16
S'\xdf\xf2-\xdf\xf2\xadS\xc0'
p964
tp965
Rp966
aNaNaNaNaNaNaa(lp967
NaNaNaNaNaNaNaNaNaNaNaNaNaNaNaNaa(lp968
NaNaNaNaNaNaNaNaNaNaNaNaNaNaNaNaa(lp969
NaNaNaNaNaNaNaNaNaNaNaNaNaNaNaNaa(lp970
NaNaNaNaNaNaNaNaNaNaNaNaNaNaNaNaa(lp971
NaNaNaNaNaNaNaNaNaNaNaNaNaNaNaNaa(lp972
NaNaNaNaNaNaNaNaNaNaNaNaNaNaNaNaa(lp973
NaNaNaNaNaNaNaNaNaNaNaNaNaNaNaNaasS'00:24:6c:c5:43:42'
p974
(lp975
(lp976
NaNaNaNaNaNaNaNaNaNaNaNaNaNaNaNaa(lp977
NaNaNaNaNaNaNaNaNaNaNaNaNaNaNaNaa(lp978
NaNaNaNaNaNaNaNaNaNaNaNaNaNaNaNaa(lp979
NaNaNaNaNaNaNaNaNaNaNaNaNaNaNaNaa(lp980
NaNaNaNaNaNaNaNaNaNaNaNaNaNaNaNaa(lp981
NaNaNaNaNaNaNaNaNaNaNaNaNaNaNaNaa(lp982
NaNaNaNaNaNaNaNaNaNaNaNaNaNaNaNaa(lp983
NaNaNaNaNaNaNaNaNaNaNaNaNaNaNaNaa(lp984
NaNaNaNaNaNaNag12
(g16
S'\xbd\xe9Moz\xf3T\xc0'
p985
tp986
Rp987
aNag12
(g16
S']AL\xae \xa6T\xc0'
p988
tp989
Rp990
aNaNaNaNaNaNaa(lp991
NaNaNaNaNaNaNaNaNaNaNaNaNaNaNaNaa(lp992
NaNaNaNaNaNaNaNaNaNaNaNaNaNaNaNaa(lp993
NaNaNaNaNaNaNaNaNaNaNaNaNaNaNaNaa(lp994
NaNaNaNaNaNaNaNaNaNaNaNaNaNaNaNaa(lp995
NaNaNaNaNaNaNaNaNaNaNaNaNaNaNaNaa(lp996
NaNaNaNaNaNaNaNaNaNaNaNaNaNaNaNaa(lp997
NaNaNaNaNaNaNaNaNaNaNaNaNaNaNaNaasS'00:24:6c:c5:43:41'
p998
(lp999
(lp1000
NaNaNaNaNaNaNaNaNaNaNaNaNaNaNaNaa(lp1001
NaNaNaNaNaNaNaNaNaNaNaNaNaNaNaNaa(lp1002
NaNaNaNaNaNaNaNaNaNaNaNaNaNaNaNaa(lp1003
NaNaNaNaNaNaNaNaNaNaNaNaNaNaNaNaa(lp1004
NaNaNaNaNaNaNaNaNaNaNaNaNaNaNaNaa(lp1005
NaNaNaNaNaNaNaNaNaNaNaNaNaNaNaNaa(lp1006
NaNaNaNaNaNaNaNaNaNaNaNaNaNaNaNaa(lp1007
NaNaNaNaNaNaNaNaNaNaNaNaNaNaNaNaa(lp1008
NaNaNaNaNaNaNag12
(g16
S'\xdb\xb6m\xdb\xb6mU\xc0'
p1009
tp1010
Rp1011
aNag12
(g16
S'\x00\x00\x00\x00\x00xU\xc0'
p1012
tp1013
Rp1014
aNaNaNaNaNaNaa(lp1015
NaNaNaNaNaNaNaNaNaNaNaNaNaNaNaNaa(lp1016
NaNaNaNaNaNaNaNaNaNaNaNaNaNaNaNaa(lp1017
NaNaNaNaNaNaNaNaNaNaNaNaNaNaNaNaa(lp1018
NaNaNaNaNaNaNaNaNaNaNaNaNaNaNaNaa(lp1019
NaNaNaNaNaNaNaNaNaNaNaNaNaNaNaNaa(lp1020
NaNaNaNaNaNaNaNaNaNaNaNaNaNaNaNaa(lp1021
NaNaNaNaNaNaNaNaNaNaNaNaNaNaNaNaasS'00:1f:f3:bd:56:72'
p1022
(lp1023
(lp1024
NaNaNaNaNaNaNaNaNaNaNaNaNaNaNaNaa(lp1025
NaNaNaNaNaNaNaNaNaNaNaNaNaNaNaNaa(lp1026
NaNaNaNaNaNaNaNaNaNaNaNaNaNaNaNaa(lp1027
NaNaNaNaNaNaNaNaNaNaNaNaNaNaNaNaa(lp1028
NaNaNaNaNaNaNaNaNaNaNaNaNaNaNaNaa(lp1029
NaNaNaNaNaNaNaNaNaNaNaNaNaNaNaNaa(lp1030
NaNaNaNaNaNaNaNaNaNaNaNaNaNaNaNaa(lp1031
NaNaNaNaNaNaNaNaNaNaNaNaNaNaNaNaa(lp1032
NaNaNaNaNaNaNag12
(g16
S'\x00\x00\x00\x00\x00\xf8T\xc0'
p1033
tp1034
Rp1035
aNag12
(g16
S'\xb5\xb4\xb4\xb4\xb4\xb4U\xc0'
p1036
tp1037
Rp1038
aNaNaNaNaNaNaa(lp1039
NaNaNaNaNaNaNaNaNaNaNaNaNaNaNaNaa(lp1040
NaNaNaNaNaNaNaNaNaNaNaNaNaNaNaNaa(lp1041
NaNaNaNaNaNaNaNaNaNaNaNaNaNaNaNaa(lp1042
NaNaNaNaNaNaNaNaNaNaNaNaNaNaNaNaa(lp1043
NaNaNaNaNaNaNaNaNaNaNaNaNaNaNaNaa(lp1044
NaNaNaNaNaNaNaNaNaNaNaNaNaNaNaNaa(lp1045
NaNaNaNaNaNaNaNaNaNaNaNaNaNaNaNaasS'34:23:ba:ee:53:9b'
p1046
(lp1047
(lp1048
NaNaNaNaNaNaNaNaNaNaNaNaNaNaNaNaa(lp1049
NaNaNaNaNaNaNaNaNaNaNaNaNaNaNaNaa(lp1050
NaNaNaNaNaNaNaNaNaNaNaNaNaNaNaNaa(lp1051
NaNaNaNaNaNaNaNaNaNaNaNaNaNaNaNaa(lp1052
NaNaNaNaNaNaNaNaNaNaNaNaNaNaNaNaa(lp1053
NaNaNaNaNaNaNaNaNaNaNaNaNaNaNaNaa(lp1054
NaNaNaNaNaNaNaNaNaNaNaNaNaNaNaNaa(lp1055
NaNaNaNaNaNaNaNaNaNaNaNaNaNaNaNaa(lp1056
NaNaNaNaNaNaNag12
(g16
S'\x9a\x99\x99\x99\x99YS\xc0'
p1057
tp1058
Rp1059
aNag12
(g16
S'\x00\x00\x00\x00\x00\xc0R\xc0'
p1060
tp1061
Rp1062
aNaNaNaNaNaNaa(lp1063
NaNaNaNaNaNaNaNaNaNaNaNaNaNaNaNaa(lp1064
NaNaNaNaNaNaNaNaNaNaNaNaNaNaNaNaa(lp1065
NaNaNaNaNaNaNaNaNaNaNaNaNaNaNaNaa(lp1066
NaNaNaNaNaNaNaNaNaNaNaNaNaNaNaNaa(lp1067
NaNaNaNaNaNaNaNaNaNaNaNaNaNaNaNaa(lp1068
NaNaNaNaNaNaNaNaNaNaNaNaNaNaNaNaa(lp1069
NaNaNaNaNaNaNaNaNaNaNaNaNaNaNaNaasS'00:26:ab:10:a3:d2'
p1070
(lp1071
(lp1072
NaNaNaNaNaNaNaNaNaNaNaNaNaNaNaNaa(lp1073
NaNaNaNaNaNaNaNaNaNaNaNaNaNaNaNaa(lp1074
NaNaNaNaNaNaNaNaNaNaNaNaNaNaNaNaa(lp1075
NaNaNaNaNaNaNaNaNaNaNaNaNaNaNaNaa(lp1076
NaNaNaNaNaNaNaNaNaNaNaNaNaNaNaNaa(lp1077
NaNaNaNaNaNaNaNaNaNaNaNaNaNaNaNaa(lp1078
NaNaNaNaNaNaNaNaNaNaNaNaNaNaNaNaa(lp1079
NaNaNaNaNaNaNaNaNaNaNaNaNaNaNaNaa(lp1080
NaNaNaNaNaNaNaNaNag12
(g16
S'\x00\x00\x00\x00\x00\x00U\xc0'
p1081
tp1082
Rp1083
aNaNaNaNaNaNaa(lp1084
NaNaNaNaNaNaNaNaNaNaNaNaNaNaNaNaa(lp1085
NaNaNaNaNaNaNaNaNaNaNaNaNaNaNaNaa(lp1086
NaNaNaNaNaNaNaNaNaNaNaNaNaNaNaNaa(lp1087
NaNaNaNaNaNaNaNaNaNaNaNaNaNaNaNaa(lp1088
NaNaNaNaNaNaNaNaNaNaNaNaNaNaNaNaa(lp1089
NaNaNaNaNaNaNaNaNaNaNaNaNaNaNaNaa(lp1090
NaNaNaNaNaNaNaNaNaNaNaNaNaNaNaNaasS'58:6d:8f:de:b2:fb'
p1091
(lp1092
(lp1093
NaNaNaNaNaNaNaNaNaNaNaNaNaNaNaNaa(lp1094
NaNaNaNaNaNaNaNaNaNaNaNaNaNaNaNaa(lp1095
NaNaNaNaNaNaNaNaNaNaNaNaNaNaNaNaa(lp1096
NaNaNaNaNaNaNaNaNaNaNaNaNaNaNaNaa(lp1097
NaNaNaNaNaNaNaNaNaNaNaNaNaNaNaNaa(lp1098
NaNaNaNaNaNaNaNaNaNaNaNaNaNaNaNaa(lp1099
NaNaNaNaNaNaNaNaNaNaNaNaNaNaNaNaa(lp1100
NaNaNaNaNaNaNaNaNaNaNaNaNaNaNaNaa(lp1101
NaNaNaNaNaNaNag12
(g16
S'UUUUUUU\xc0'
p1102
tp1103
Rp1104
aNaNaNaNaNaNaNaNaa(lp1105
NaNaNaNaNaNaNaNaNaNaNaNaNaNaNaNaa(lp1106
NaNaNaNaNaNaNaNaNaNaNaNaNaNaNaNaa(lp1107
NaNaNaNaNaNaNaNaNaNaNaNaNaNaNaNaa(lp1108
NaNaNaNaNaNaNaNaNaNaNaNaNaNaNaNaa(lp1109
NaNaNaNaNaNaNaNaNaNaNaNaNaNaNaNaa(lp1110
NaNaNaNaNaNaNaNaNaNaNaNaNaNaNaNaa(lp1111
NaNaNaNaNaNaNaNaNaNaNaNaNaNaNaNaas.