(dp0
S'00:1a:1e:10:b7:43'
p1
(lp2
(lp3
NaNaNaNaNaNaNaNaNaNaNaNaNaNaNaNaa(lp4
NaNaNaNaNaNaNaNaNaNaNaNaNaNaNaNaa(lp5
NaNaNaNaNaNaNaNaNaNaNaNaNaNaNaNaa(lp6
NaNaNaNaNaNaNaNaNaNaNaNaNaNaNaNaa(lp7
NaNaNaNaNaNaNaNaNaNaNaNaNaNaNaNaa(lp8
NaNaNaNaNaNacnumpy.core.multiarray
scalar
p9
(cnumpy
dtype
p10
(S'f8'
p11
I0
I1
tp12
Rp13
(I3
S'<'
p14
NNNI-1
I-1
I0
tp15
bS'\xab\xaa\xaa\xaa\xaa\xcaT\xc0'
p16
tp17
Rp18
aNaNaNaNaNaNaNaNaNaa(lp19
NaNaNaNaNaNaNaNaNaNaNaNaNaNaNaNaa(lp20
NaNaNaNaNaNaNaNaNaNaNaNaNaNaNaNaa(lp21
NaNaNaNaNaNaNag9
(g13
S'UUUUUUT\xc0'
p22
tp23
Rp24
aNaNaNaNaNaNaNaNaa(lp25
NaNaNaNaNaNaNaNaNaNaNaNaNaNaNaNaa(lp26
NaNaNaNaNaNaNaNaNaNaNaNaNaNaNaNaa(lp27
NaNaNaNaNaNaNaNaNaNaNaNaNaNaNaNaa(lp28
NaNaNaNaNaNaNaNaNaNaNaNaNaNaNaNaa(lp29
NaNaNaNaNaNaNaNaNaNaNaNaNaNaNaNaa(lp30
NaNaNaNaNaNaNaNaNaNaNaNaNaNaNaNaa(lp31
NaNaNaNaNaNaNaNaNaNaNaNaNaNaNaNaasS'00:1a:1e:56:45:22'
p32
(lp33
(lp34
NaNaNaNaNaNaNaNaNaNaNaNaNaNaNaNaa(lp35
NaNaNaNaNaNaNaNaNaNaNaNaNaNaNaNaa(lp36
NaNaNaNaNaNaNaNaNaNaNaNaNaNaNaNaa(lp37
NaNaNaNaNaNaNaNaNaNaNaNaNaNaNaNaa(lp38
NaNaNaNaNaNaNaNaNaNaNaNaNaNaNaNaa(lp39
NaNaNaNaNaNag9
(g13
S'\x00\x00\x00\x00\x00hI\xc0'
p40
tp41
Rp42
aNaNaNaNaNaNaNaNaNaa(lp43
NaNaNaNaNaNaNaNaNaNaNaNaNaNaNaNaa(lp44
NaNaNaNaNaNaNaNaNaNaNaNaNaNaNaNaa(lp45
NaNaNaNaNaNaNag9
(g13
S'\xf9\x19%~F\x89H\xc0'
p46
tp47
Rp48
aNaNaNaNaNaNaNaNaa(lp49
NaNaNaNaNaNaNaNaNaNaNaNaNaNaNaNaa(lp50
NaNaNaNaNaNaNaNaNaNaNaNaNaNaNaNaa(lp51
NaNaNaNaNaNaNaNaNaNaNaNaNaNaNaNaa(lp52
NaNaNaNaNaNaNaNaNaNaNaNaNaNaNaNaa(lp53
NaNaNaNaNaNaNaNaNaNaNaNaNaNaNaNaa(lp54
NaNaNaNaNaNaNaNaNaNaNaNaNaNaNaNaa(lp55
NaNaNaNaNaNaNaNaNaNaNaNaNaNaNaNaasS'00:1a:1e:56:45:21'
p56
(lp57
(lp58
NaNaNaNaNaNaNaNaNaNaNaNaNaNaNaNaa(lp59
NaNaNaNaNaNaNaNaNaNaNaNaNaNaNaNaa(lp60
NaNaNaNaNaNaNaNaNaNaNaNaNaNaNaNaa(lp61
NaNaNaNaNaNaNaNaNaNaNaNaNaNaNaNaa(lp62
NaNaNaNaNaNaNaNaNaNaNaNaNaNaNaNaa(lp63
NaNaNaNaNaNag9
(g13
S'/\xba\xe8\xa2\x8b.K\xc0'
p64
tp65
Rp66
aNaNaNaNaNaNaNaNaNaa(lp67
NaNaNaNaNaNaNaNaNaNaNaNaNaNaNaNaa(lp68
NaNaNaNaNaNaNaNaNaNaNaNaNaNaNaNaa(lp69
NaNaNaNaNaNaNag9
(g13
S'DDDDD\xc4J\xc0'
p70
tp71
Rp72
aNaNaNaNaNaNaNaNaa(lp73
NaNaNaNaNaNaNaNaNaNaNaNaNaNaNaNaa(lp74
NaNaNaNaNaNaNaNaNaNaNaNaNaNaNaNaa(lp75
NaNaNaNaNaNaNaNaNaNaNaNaNaNaNaNaa(lp76
NaNaNaNaNaNaNaNaNaNaNaNaNaNaNaNaa(lp77
NaNaNaNaNaNaNaNaNaNaNaNaNaNaNaNaa(lp78
NaNaNaNaNaNaNaNaNaNaNaNaNaNaNaNaa(lp79
NaNaNaNaNaNaNaNaNaNaNaNaNaNaNaNaasS'00:1a:1e:10:b7:44'
p80
(lp81
(lp82
NaNaNaNaNaNaNaNaNaNaNaNaNaNaNaNaa(lp83
NaNaNaNaNaNaNaNaNaNaNaNaNaNaNaNaa(lp84
NaNaNaNaNaNaNaNaNaNaNaNaNaNaNaNaa(lp85
NaNaNaNaNaNaNaNaNaNaNaNaNaNaNaNaa(lp86
NaNaNaNaNaNaNaNaNaNaNaNaNaNaNaNaa(lp87
NaNaNaNaNaNag9
(g13
S'\x00\x00\x00\x00\x00hT\xc0'
p88
tp89
Rp90
aNaNaNaNaNaNaNaNaNaa(lp91
NaNaNaNaNaNaNaNaNaNaNaNaNaNaNaNaa(lp92
NaNaNaNaNaNaNaNaNaNaNaNaNaNaNaNaa(lp93
NaNaNaNaNaNaNag9
(g13
S'\x00\x00\x00\x00\x00\x80S\xc0'
p94
tp95
Rp96
aNaNaNaNaNaNaNaNaa(lp97
NaNaNaNaNaNaNaNaNaNaNaNaNaNaNaNaa(lp98
NaNaNaNaNaNaNaNaNaNaNaNaNaNaNaNaa(lp99
NaNaNaNaNaNaNaNaNaNaNaNaNaNaNaNaa(lp100
NaNaNaNaNaNaNaNaNaNaNaNaNaNaNaNaa(lp101
NaNaNaNaNaNaNaNaNaNaNaNaNaNaNaNaa(lp102
NaNaNaNaNaNaNaNaNaNaNaNaNaNaNaNaa(lp103
NaNaNaNaNaNaNaNaNaNaNaNaNaNaNaNaasS'd4:f4:6f:2c:d8:85'
p104
(lp105
(lp106
NaNaNaNaNaNaNaNaNaNaNaNaNaNaNaNaa(lp107
NaNaNaNaNaNaNaNaNaNaNaNaNaNaNaNaa(lp108
NaNaNaNaNaNaNaNaNaNaNaNaNaNaNaNaa(lp109
NaNaNaNaNaNaNaNaNaNaNaNaNaNaNaNaa(lp110
NaNaNaNaNaNaNaNaNaNaNaNaNaNaNaNaa(lp111
NaNaNaNaNaNag9
(g13
S'I\x92$I\x92DT\xc0'
p112
tp113
Rp114
aNaNaNaNaNaNaNaNaNaa(lp115
NaNaNaNaNaNaNaNaNaNaNaNaNaNaNaNaa(lp116
NaNaNaNaNaNaNaNaNaNaNaNaNaNaNaNaa(lp117
NaNaNaNaNaNaNaNaNaNaNaNaNaNaNaNaa(lp118
NaNaNaNaNaNaNaNaNaNaNaNaNaNaNaNaa(lp119
NaNaNaNaNaNaNaNaNaNaNaNaNaNaNaNaa(lp120
NaNaNaNaNaNaNaNaNaNaNaNaNaNaNaNaa(lp121
NaNaNaNaNaNaNaNaNaNaNaNaNaNaNaNaa(lp122
NaNaNaNaNaNaNaNaNaNaNaNaNaNaNaNaa(lp123
NaNaNaNaNaNaNaNaNaNaNaNaNaNaNaNaa(lp124
NaNaNaNaNaNaNaNaNaNaNaNaNaNaNaNaasS'64:89:9a:50:a0:f9'
p125
(lp126
(lp127
NaNaNaNaNaNaNaNaNaNaNaNaNaNaNaNaa(lp128
NaNaNaNaNaNaNaNaNaNaNaNaNaNaNaNaa(lp129
NaNaNaNaNaNaNaNaNaNaNaNaNaNaNaNaa(lp130
NaNaNaNaNaNaNaNaNaNaNaNaNaNaNaNaa(lp131
NaNaNaNaNaNaNaNaNaNaNaNaNaNaNaNaa(lp132
NaNaNaNaNaNag9
(g13
S'\x00\x00\x00\x00\x00\x00T\xc0'
p133
tp134
Rp135
aNaNaNaNaNaNaNaNaNaa(lp136
NaNaNaNaNaNaNaNaNaNaNaNaNaNaNaNaa(lp137
NaNaNaNaNaNaNaNaNaNaNaNaNaNaNaNaa(lp138
NaNaNaNaNaNaNag9
(g13
S'\x00\x00\x00\x00\x00\x80S\xc0'
p139
tp140
Rp141
aNaNaNaNaNaNaNaNaa(lp142
NaNaNaNaNaNaNaNaNaNaNaNaNaNaNaNaa(lp143
NaNaNaNaNaNaNaNaNaNaNaNaNaNaNaNaa(lp144
NaNaNaNaNaNaNaNaNaNaNaNaNaNaNaNaa(lp145
NaNaNaNaNaNaNaNaNaNaNaNaNaNaNaNaa(lp146
NaNaNaNaNaNaNaNaNaNaNaNaNaNaNaNaa(lp147
NaNaNaNaNaNaNaNaNaNaNaNaNaNaNaNaa(lp148
NaNaNaNaNaNaNaNaNaNaNaNaNaNaNaNaasS'88:32:9b:8c:0c:eb'
p149
(lp150
(lp151
NaNaNaNaNaNaNaNaNaNaNaNaNaNaNaNaa(lp152
NaNaNaNaNaNaNaNaNaNaNaNaNaNaNaNaa(lp153
NaNaNaNaNaNaNaNaNaNaNaNaNaNaNaNaa(lp154
NaNaNaNaNaNaNaNaNaNaNaNaNaNaNaNaa(lp155
NaNaNaNaNaNaNaNaNaNaNaNaNaNaNaNaa(lp156
NaNaNaNaNaNag9
(g13
S'UUUUU\xd5D\xc0'
p157
tp158
Rp159
aNaNaNaNaNaNaNaNaNaa(lp160
NaNaNaNaNaNaNaNaNaNaNaNaNaNaNaNaa(lp161
NaNaNaNaNaNaNaNaNaNaNaNaNaNaNaNaa(lp162
NaNaNaNaNaNaNaNaNaNaNaNaNaNaNaNaa(lp163
NaNaNaNaNaNaNaNaNaNaNaNaNaNaNaNaa(lp164
NaNaNaNaNaNaNaNaNaNaNaNaNaNaNaNaa(lp165
NaNaNaNaNaNaNaNaNaNaNaNaNaNaNaNaa(lp166
NaNaNaNaNaNaNaNaNaNaNaNaNaNaNaNaa(lp167
NaNaNaNaNaNaNaNaNaNaNaNaNaNaNaNaa(lp168
NaNaNaNaNaNaNaNaNaNaNaNaNaNaNaNaa(lp169
NaNaNaNaNaNaNaNaNaNaNaNaNaNaNaNaasS'34:23:ba:e5:4c:93'
p170
(lp171
(lp172
NaNaNaNaNaNaNaNaNaNaNaNaNaNaNaNaa(lp173
NaNaNaNaNaNaNaNaNaNaNaNaNaNaNaNaa(lp174
NaNaNaNaNaNaNaNaNaNaNaNaNaNaNaNaa(lp175
NaNaNaNaNaNaNaNaNaNaNaNaNaNaNaNaa(lp176
NaNaNaNaNaNaNaNaNaNaNaNaNaNaNaNaa(lp177
NaNaNaNaNaNaNaNaNaNaNaNaNaNaNaNaa(lp178
NaNaNaNaNaNaNaNaNaNaNaNaNaNaNaNaa(lp179
NaNaNaNaNaNaNaNaNaNaNaNaNaNaNaNaa(lp180
NaNaNaNaNaNaNag9
(g13
S't\xd1E\x17]tM\xc0'
p181
tp182
Rp183
aNaNaNaNaNaNaNaNaa(lp184
NaNaNaNaNaNaNaNaNaNaNaNaNaNaNaNaa(lp185
NaNaNaNaNaNaNaNaNaNaNaNaNaNaNaNaa(lp186
NaNaNaNaNaNaNaNaNaNaNaNaNaNaNaNaa(lp187
NaNaNaNaNaNaNaNaNaNaNaNaNaNaNaNaa(lp188
NaNaNaNaNaNaNaNaNaNaNaNaNaNaNaNaa(lp189
NaNaNaNaNaNaNaNaNaNaNaNaNaNaNaNaa(lp190
NaNaNaNaNaNaNaNaNaNaNaNaNaNaNaNaasS'00:1a:1e:11:4d:03'
p191
(lp192
(lp193
NaNaNaNaNaNaNaNaNaNaNaNaNaNaNaNaa(lp194
NaNaNaNaNaNaNaNaNaNaNaNaNaNaNaNaa(lp195
NaNaNaNaNaNaNaNaNaNaNaNaNaNaNaNaa(lp196
NaNaNaNaNaNaNaNaNaNaNaNaNaNaNaNaa(lp197
NaNaNaNaNaNaNaNaNaNaNaNaNaNaNaNaa(lp198
NaNaNaNaNaNag9
(g13
S'\x00\x00\x00\x00\x00 S\xc0'
p199
tp200
Rp201
aNaNaNaNaNaNaNaNaNaa(lp202
NaNaNaNaNaNaNaNaNaNaNaNaNaNaNaNaa(lp203
NaNaNaNaNaNaNaNaNaNaNaNaNaNaNaNaa(lp204
NaNaNaNaNaNaNag9
(g13
S'\x00\x00\x00\x00\x00hS\xc0'
p205
tp206
Rp207
aNaNaNaNaNaNaNaNaa(lp208
NaNaNaNaNaNaNaNaNaNaNaNaNaNaNaNaa(lp209
NaNaNaNaNaNaNaNaNaNaNaNaNaNaNaNaa(lp210
NaNaNaNaNaNaNaNaNaNaNaNaNaNaNaNaa(lp211
NaNaNaNaNaNaNaNaNaNaNaNaNaNaNaNaa(lp212
NaNaNaNaNaNaNaNaNaNaNaNaNaNaNaNaa(lp213
NaNaNaNaNaNaNaNaNaNaNaNaNaNaNaNaa(lp214
NaNaNaNaNaNaNaNaNaNaNaNaNaNaNaNaasS'00:1a:1e:11:4c:63'
p215
(lp216
(lp217
NaNaNaNaNaNaNaNaNaNaNaNaNaNaNaNaa(lp218
NaNaNaNaNaNaNaNaNaNaNaNaNaNaNaNaa(lp219
NaNaNaNaNaNaNaNaNaNaNaNaNaNaNaNaa(lp220
NaNaNaNaNaNaNaNaNaNaNaNaNaNaNaNaa(lp221
NaNaNaNaNaNaNaNaNaNaNaNaNaNaNaNaa(lp222
NaNaNaNaNaNag9
(g13
S'%I\x92$I\xd2S\xc0'
p223
tp224
Rp225
aNaNaNaNaNaNaNaNaNaa(lp226
NaNaNaNaNaNaNaNaNaNaNaNaNaNaNaNaa(lp227
NaNaNaNaNaNaNaNaNaNaNaNaNaNaNaNaa(lp228
NaNaNaNaNaNaNag9
(g13
S'\xa3\x8b.\xba\xe8"S\xc0'
p229
tp230
Rp231
aNaNaNaNaNaNaNaNaa(lp232
NaNaNaNaNaNaNaNaNaNaNaNaNaNaNaNaa(lp233
NaNaNaNaNaNaNaNaNaNaNaNaNaNaNaNaa(lp234
NaNaNaNaNaNaNaNaNaNaNaNaNaNaNaNaa(lp235
NaNaNaNaNaNaNaNaNaNaNaNaNaNaNaNaa(lp236
NaNaNaNaNaNaNaNaNaNaNaNaNaNaNaNaa(lp237
NaNaNaNaNaNaNaNaNaNaNaNaNaNaNaNaa(lp238
NaNaNaNaNaNaNaNaNaNaNaNaNaNaNaNaasS'84:8e:0c:4b:48:20'
p239
(lp240
(lp241
NaNaNaNaNaNaNaNaNaNaNaNaNaNaNaNaa(lp242
NaNaNaNaNaNaNaNaNaNaNaNaNaNaNaNaa(lp243
NaNaNaNaNaNaNaNaNaNaNaNaNaNaNaNaa(lp244
NaNaNaNaNaNaNaNaNaNaNaNaNaNaNaNaa(lp245
NaNaNaNaNaNaNaNaNaNaNaNaNaNaNaNaa(lp246
NaNaNaNaNaNag9
(g13
S'UUUUU\xd5P\xc0'
p247
tp248
Rp249
aNaNaNaNaNaNaNaNaNaa(lp250
NaNaNaNaNaNaNaNaNaNaNaNaNaNaNaNaa(lp251
NaNaNaNaNaNaNaNaNaNaNaNaNaNaNaNaa(lp252
NaNaNaNaNaNaNag9
(g13
S'\x00\x00\x00\x00\x00\xc0P\xc0'
p253
tp254
Rp255
aNaNaNaNaNaNaNaNaa(lp256
NaNaNaNaNaNaNaNaNaNaNaNaNaNaNaNaa(lp257
NaNaNaNaNaNaNaNaNaNaNaNaNaNaNaNaa(lp258
NaNaNaNaNaNaNaNaNaNaNaNaNaNaNaNaa(lp259
NaNaNaNaNaNaNaNaNaNaNaNaNaNaNaNaa(lp260
NaNaNaNaNaNaNaNaNaNaNaNaNaNaNaNaa(lp261
NaNaNaNaNaNaNaNaNaNaNaNaNaNaNaNaa(lp262
NaNaNaNaNaNaNaNaNaNaNaNaNaNaNaNaasS'fa:fb:ba:b3:29:9a'
p263
(lp264
(lp265
NaNaNaNaNaNaNaNaNaNaNaNaNaNaNaNaa(lp266
NaNaNaNaNaNaNaNaNaNaNaNaNaNaNaNaa(lp267
NaNaNaNaNaNaNaNaNaNaNaNaNaNaNaNaa(lp268
NaNaNaNaNaNaNaNaNaNaNaNaNaNaNaNaa(lp269
NaNaNaNaNaNaNaNaNaNaNaNaNaNaNaNaa(lp270
NaNaNaNaNaNaNaNaNaNaNaNaNaNaNaNaa(lp271
NaNaNaNaNaNaNaNaNaNaNaNaNaNaNaNaa(lp272
NaNaNaNaNaNaNaNaNaNaNaNaNaNaNaNaa(lp273
NaNaNaNaNaNaNag9
(g13
S'UUUUUUS\xc0'
p274
tp275
Rp276
aNaNaNaNaNaNaNaNaa(lp277
NaNaNaNaNaNaNaNaNaNaNaNaNaNaNaNaa(lp278
NaNaNaNaNaNaNaNaNaNaNaNaNaNaNaNaa(lp279
NaNaNaNaNaNaNaNaNaNaNaNaNaNaNaNaa(lp280
NaNaNaNaNaNaNaNaNaNaNaNaNaNaNaNaa(lp281
NaNaNaNaNaNaNaNaNaNaNaNaNaNaNaNaa(lp282
NaNaNaNaNaNaNaNaNaNaNaNaNaNaNaNaa(lp283
NaNaNaNaNaNaNaNaNaNaNaNaNaNaNaNaasS'00:1a:1e:11:4c:64'
p284
(lp285
(lp286
NaNaNaNaNaNaNaNaNaNaNaNaNaNaNaNaa(lp287
NaNaNaNaNaNaNaNaNaNaNaNaNaNaNaNaa(lp288
NaNaNaNaNaNaNaNaNaNaNaNaNaNaNaNaa(lp289
NaNaNaNaNaNaNaNaNaNaNaNaNaNaNaNaa(lp290
NaNaNaNaNaNaNaNaNaNaNaNaNaNaNaNaa(lp291
NaNaNaNaNaNag9
(g13
S'\x00\x00\x00\x00\x00LS\xc0'
p292
tp293
Rp294
aNaNaNaNaNaNaNaNaNaa(lp295
NaNaNaNaNaNaNaNaNaNaNaNaNaNaNaNaa(lp296
NaNaNaNaNaNaNaNaNaNaNaNaNaNaNaNaa(lp297
NaNaNaNaNaNaNag9
(g13
S'\x00\x00\x00\x00\x00\x00S\xc0'
p298
tp299
Rp300
aNaNaNaNaNaNaNaNaa(lp301
NaNaNaNaNaNaNaNaNaNaNaNaNaNaNaNaa(lp302
NaNaNaNaNaNaNaNaNaNaNaNaNaNaNaNaa(lp303
NaNaNaNaNaNaNaNaNaNaNaNaNaNaNaNaa(lp304
NaNaNaNaNaNaNaNaNaNaNaNaNaNaNaNaa(lp305
NaNaNaNaNaNaNaNaNaNaNaNaNaNaNaNaa(lp306
NaNaNaNaNaNaNaNaNaNaNaNaNaNaNaNaa(lp307
NaNaNaNaNaNaNaNaNaNaNaNaNaNaNaNaasS'98:fe:94:44:5b:d6'
p308
(lp309
(lp310
NaNaNaNaNaNaNaNaNaNaNaNaNaNaNaNaa(lp311
NaNaNaNaNaNaNaNaNaNaNaNaNaNaNaNaa(lp312
NaNaNaNaNaNaNaNaNaNaNaNaNaNaNaNaa(lp313
NaNaNaNaNaNaNaNaNaNaNaNaNaNaNaNaa(lp314
NaNaNaNaNaNaNaNaNaNaNaNaNaNaNaNaa(lp315
NaNaNaNaNaNag9
(g13
S'333333J\xc0'
p316
tp317
Rp318
aNaNaNaNaNaNaNaNaNaa(lp319
NaNaNaNaNaNaNaNaNaNaNaNaNaNaNaNaa(lp320
NaNaNaNaNaNaNaNaNaNaNaNaNaNaNaNaa(lp321
NaNaNaNaNaNaNag9
(g13
S'\x8e\xe38\x8e\xe3\xb8M\xc0'
p322
tp323
Rp324
aNaNaNaNaNaNaNaNaa(lp325
NaNaNaNaNaNaNaNaNaNaNaNaNaNaNaNaa(lp326
NaNaNaNaNaNaNaNaNaNaNaNaNaNaNaNaa(lp327
NaNaNaNaNaNaNaNaNaNaNaNaNaNaNaNaa(lp328
NaNaNaNaNaNaNaNaNaNaNaNaNaNaNaNaa(lp329
NaNaNaNaNaNaNaNaNaNaNaNaNaNaNaNaa(lp330
NaNaNaNaNaNaNaNaNaNaNaNaNaNaNaNaa(lp331
NaNaNaNaNaNaNaNaNaNaNaNaNaNaNaNaasS'e4:92:fb:4a:20:31'
p332
(lp333
(lp334
NaNaNaNaNaNaNaNaNaNaNaNaNaNaNaNaa(lp335
NaNaNaNaNaNaNaNaNaNaNaNaNaNaNaNaa(lp336
NaNaNaNaNaNaNaNaNaNaNaNaNaNaNaNaa(lp337
NaNaNaNaNaNaNaNaNaNaNaNaNaNaNaNaa(lp338
NaNaNaNaNaNaNaNaNaNaNaNaNaNaNaNaa(lp339
NaNaNaNaNaNag9
(g13
S'\x00\x00\x00\x00\x00\xc0T\xc0'
p340
tp341
Rp342
aNaNaNaNaNaNaNaNaNaa(lp343
NaNaNaNaNaNaNaNaNaNaNaNaNaNaNaNaa(lp344
NaNaNaNaNaNaNaNaNaNaNaNaNaNaNaNaa(lp345
NaNaNaNaNaNaNaNaNaNaNaNaNaNaNaNaa(lp346
NaNaNaNaNaNaNaNaNaNaNaNaNaNaNaNaa(lp347
NaNaNaNaNaNaNaNaNaNaNaNaNaNaNaNaa(lp348
NaNaNaNaNaNaNaNaNaNaNaNaNaNaNaNaa(lp349
NaNaNaNaNaNaNaNaNaNaNaNaNaNaNaNaa(lp350
NaNaNaNaNaNaNaNaNaNaNaNaNaNaNaNaa(lp351
NaNaNaNaNaNaNaNaNaNaNaNaNaNaNaNaa(lp352
NaNaNaNaNaNaNaNaNaNaNaNaNaNaNaNaasS'80:e6:50:01:ab:a8'
p353
(lp354
(lp355
NaNaNaNaNaNaNaNaNaNaNaNaNaNaNaNaa(lp356
NaNaNaNaNaNaNaNaNaNaNaNaNaNaNaNaa(lp357
NaNaNaNaNaNaNaNaNaNaNaNaNaNaNaNaa(lp358
NaNaNaNaNaNaNaNaNaNaNaNaNaNaNaNaa(lp359
NaNaNaNaNaNaNaNaNaNaNaNaNaNaNaNaa(lp360
NaNaNaNaNaNag9
(g13
S'\x00\x00\x00\x00\x00\x00N\xc0'
p361
tp362
Rp363
aNaNaNaNaNaNaNaNaNaa(lp364
NaNaNaNaNaNaNaNaNaNaNaNaNaNaNaNaa(lp365
NaNaNaNaNaNaNaNaNaNaNaNaNaNaNaNaa(lp366
NaNaNaNaNaNaNaNaNaNaNaNaNaNaNaNaa(lp367
NaNaNaNaNaNaNaNaNaNaNaNaNaNaNaNaa(lp368
NaNaNaNaNaNaNaNaNaNaNaNaNaNaNaNaa(lp369
NaNaNaNaNaNaNaNaNaNaNaNaNaNaNaNaa(lp370
NaNaNaNaNaNaNaNaNaNaNaNaNaNaNaNaa(lp371
NaNaNaNaNaNaNaNaNaNaNaNaNaNaNaNaa(lp372
NaNaNaNaNaNaNaNaNaNaNaNaNaNaNaNaa(lp373
NaNaNaNaNaNaNaNaNaNaNaNaNaNaNaNaasS'70:1a:04:c0:10:24'
p374
(lp375
(lp376
NaNaNaNaNaNaNaNaNaNaNaNaNaNaNaNaa(lp377
NaNaNaNaNaNaNaNaNaNaNaNaNaNaNaNaa(lp378
NaNaNaNaNaNaNaNaNaNaNaNaNaNaNaNaa(lp379
NaNaNaNaNaNaNaNaNaNaNaNaNaNaNaNaa(lp380
NaNaNaNaNaNaNaNaNaNaNaNaNaNaNaNaa(lp381
NaNaNaNaNaNag9
(g13
S'\x00\x00\x00\x00\x00\x00U\xc0'
p382
tp383
Rp384
aNaNaNaNaNaNaNaNaNaa(lp385
NaNaNaNaNaNaNaNaNaNaNaNaNaNaNaNaa(lp386
NaNaNaNaNaNaNaNaNaNaNaNaNaNaNaNaa(lp387
NaNaNaNaNaNaNag9
(g13
S'\x00\x00\x00\x00\x00\x80T\xc0'
p388
tp389
Rp390
aNaNaNaNaNaNaNaNaa(lp391
NaNaNaNaNaNaNaNaNaNaNaNaNaNaNaNaa(lp392
NaNaNaNaNaNaNaNaNaNaNaNaNaNaNaNaa(lp393
NaNaNaNaNaNaNaNaNaNaNaNaNaNaNaNaa(lp394
NaNaNaNaNaNaNaNaNaNaNaNaNaNaNaNaa(lp395
NaNaNaNaNaNaNaNaNaNaNaNaNaNaNaNaa(lp396
NaNaNaNaNaNaNaNaNaNaNaNaNaNaNaNaa(lp397
NaNaNaNaNaNaNaNaNaNaNaNaNaNaNaNaasS'00:1a:1e:11:4d:04'
p398
(lp399
(lp400
NaNaNaNaNaNaNaNaNaNaNaNaNaNaNaNaa(lp401
NaNaNaNaNaNaNaNaNaNaNaNaNaNaNaNaa(lp402
NaNaNaNaNaNaNaNaNaNaNaNaNaNaNaNaa(lp403
NaNaNaNaNaNaNaNaNaNaNaNaNaNaNaNaa(lp404
NaNaNaNaNaNaNaNaNaNaNaNaNaNaNaNaa(lp405
NaNaNaNaNaNag9
(g13
S'\x9a\x99\x99\x99\x99\xd9R\xc0'
p406
tp407
Rp408
aNaNaNaNaNaNaNaNaNaa(lp409
NaNaNaNaNaNaNaNaNaNaNaNaNaNaNaNaa(lp410
NaNaNaNaNaNaNaNaNaNaNaNaNaNaNaNaa(lp411
NaNaNaNaNaNaNag9
(g13
S"'vb'v\x02S\xc0"
p412
tp413
Rp414
aNaNaNaNaNaNaNaNaa(lp415
NaNaNaNaNaNaNaNaNaNaNaNaNaNaNaNaa(lp416
NaNaNaNaNaNaNaNaNaNaNaNaNaNaNaNaa(lp417
NaNaNaNaNaNaNaNaNaNaNaNaNaNaNaNaa(lp418
NaNaNaNaNaNaNaNaNaNaNaNaNaNaNaNaa(lp419
NaNaNaNaNaNaNaNaNaNaNaNaNaNaNaNaa(lp420
NaNaNaNaNaNaNaNaNaNaNaNaNaNaNaNaa(lp421
NaNaNaNaNaNaNaNaNaNaNaNaNaNaNaNaasS'ec:35:86:37:b8:3c'
p422
(lp423
(lp424
NaNaNaNaNaNaNaNaNaNaNaNaNaNaNaNaa(lp425
NaNaNaNaNaNaNaNaNaNaNaNaNaNaNaNaa(lp426
NaNaNaNaNaNaNaNaNaNaNaNaNaNaNaNaa(lp427
NaNaNaNaNaNaNaNaNaNaNaNaNaNaNaNaa(lp428
NaNaNaNaNaNaNaNaNaNaNaNaNaNaNaNaa(lp429
NaNaNaNaNaNaNaNaNaNaNaNaNaNaNaNaa(lp430
NaNaNaNaNaNaNaNaNaNaNaNaNaNaNaNaa(lp431
NaNaNaNaNaNaNaNaNaNaNaNaNaNaNaNaa(lp432
NaNaNaNaNaNaNag9
(g13
S'UUUUU\xb5M\xc0'
p433
tp434
Rp435
aNaNaNaNaNaNaNaNaa(lp436
NaNaNaNaNaNaNaNaNaNaNaNaNaNaNaNaa(lp437
NaNaNaNaNaNaNaNaNaNaNaNaNaNaNaNaa(lp438
NaNaNaNaNaNaNaNaNaNaNaNaNaNaNaNaa(lp439
NaNaNaNaNaNaNaNaNaNaNaNaNaNaNaNaa(lp440
NaNaNaNaNaNaNaNaNaNaNaNaNaNaNaNaa(lp441
NaNaNaNaNaNaNaNaNaNaNaNaNaNaNaNaa(lp442
NaNaNaNaNaNaNaNaNaNaNaNaNaNaNaNaasS'84:38:38:97:83:c3'
p443
(lp444
(lp445
NaNaNaNaNaNaNaNaNaNaNaNaNaNaNaNaa(lp446
NaNaNaNaNaNaNaNaNaNaNaNaNaNaNaNaa(lp447
NaNaNaNaNaNaNaNaNaNaNaNaNaNaNaNaa(lp448
NaNaNaNaNaNaNaNaNaNaNaNaNaNaNaNaa(lp449
NaNaNaNaNaNaNaNaNaNaNaNaNaNaNaNaa(lp450
NaNaNaNaNaNaNaNaNaNaNaNaNaNaNaNaa(lp451
NaNaNaNaNaNaNaNaNaNaNaNaNaNaNaNaa(lp452
NaNaNaNaNaNaNaNaNaNaNaNaNaNaNaNaa(lp453
NaNaNaNaNaNaNag9
(g13
S'\x9a\x99\x99\x99\x99\xd9S\xc0'
p454
tp455
Rp456
aNaNaNaNaNaNaNaNaa(lp457
NaNaNaNaNaNaNaNaNaNaNaNaNaNaNaNaa(lp458
NaNaNaNaNaNaNaNaNaNaNaNaNaNaNaNaa(lp459
NaNaNaNaNaNaNaNaNaNaNaNaNaNaNaNaa(lp460
NaNaNaNaNaNaNaNaNaNaNaNaNaNaNaNaa(lp461
NaNaNaNaNaNaNaNaNaNaNaNaNaNaNaNaa(lp462
NaNaNaNaNaNaNaNaNaNaNaNaNaNaNaNaa(lp463
NaNaNaNaNaNaNaNaNaNaNaNaNaNaNaNaasS'7c:7a:91:1d:a1:f5'
p464
(lp465
(lp466
NaNaNaNaNaNaNaNaNaNaNaNaNaNaNaNaa(lp467
NaNaNaNaNaNaNaNaNaNaNaNaNaNaNaNaa(lp468
NaNaNaNaNaNaNaNaNaNaNaNaNaNaNaNaa(lp469
NaNaNaNaNaNaNaNaNaNaNaNaNaNaNaNaa(lp470
NaNaNaNaNaNaNaNaNaNaNaNaNaNaNaNaa(lp471
NaNaNaNaNaNaNaNaNaNaNaNaNaNaNaNaa(lp472
NaNaNaNaNaNaNaNaNaNaNaNaNaNaNaNaa(lp473
NaNaNaNaNaNaNaNaNaNaNaNaNaNaNaNaa(lp474
NaNaNaNaNaNaNag9
(g13
S'\x00\x00\x00\x00\x00@U\xc0'
p475
tp476
Rp477
aNaNaNaNaNaNaNaNaa(lp478
NaNaNaNaNaNaNaNaNaNaNaNaNaNaNaNaa(lp479
NaNaNaNaNaNaNaNaNaNaNaNaNaNaNaNaa(lp480
NaNaNaNaNaNaNaNaNaNaNaNaNaNaNaNaa(lp481
NaNaNaNaNaNaNaNaNaNaNaNaNaNaNaNaa(lp482
NaNaNaNaNaNaNaNaNaNaNaNaNaNaNaNaa(lp483
NaNaNaNaNaNaNaNaNaNaNaNaNaNaNaNaa(lp484
NaNaNaNaNaNaNaNaNaNaNaNaNaNaNaNaasS'e0:b5:2d:da:2d:97'
p485
(lp486
(lp487
NaNaNaNaNaNaNaNaNaNaNaNaNaNaNaNaa(lp488
NaNaNaNaNaNaNaNaNaNaNaNaNaNaNaNaa(lp489
NaNaNaNaNaNaNaNaNaNaNaNaNaNaNaNaa(lp490
NaNaNaNaNaNaNaNaNaNaNaNaNaNaNaNaa(lp491
NaNaNaNaNaNaNaNaNaNaNaNaNaNaNaNaa(lp492
NaNaNaNaNaNag9
(g13
S'\xab\xaa\xaa\xaa\xaajS\xc0'
p493
tp494
Rp495
aNaNaNaNaNaNaNaNaNaa(lp496
NaNaNaNaNaNaNaNaNaNaNaNaNaNaNaNaa(lp497
NaNaNaNaNaNaNaNaNaNaNaNaNaNaNaNaa(lp498
NaNaNaNaNaNaNaNaNaNaNaNaNaNaNaNaa(lp499
NaNaNaNaNaNaNaNaNaNaNaNaNaNaNaNaa(lp500
NaNaNaNaNaNaNaNaNaNaNaNaNaNaNaNaa(lp501
NaNaNaNaNaNaNaNaNaNaNaNaNaNaNaNaa(lp502
NaNaNaNaNaNaNaNaNaNaNaNaNaNaNaNaa(lp503
NaNaNaNaNaNaNaNaNaNaNaNaNaNaNaNaa(lp504
NaNaNaNaNaNaNaNaNaNaNaNaNaNaNaNaa(lp505
NaNaNaNaNaNaNaNaNaNaNaNaNaNaNaNaasS'00:14:d1:9e:58:34'
p506
(lp507
(lp508
NaNaNaNaNaNaNaNaNaNaNaNaNaNaNaNaa(lp509
NaNaNaNaNaNaNaNaNaNaNaNaNaNaNaNaa(lp510
NaNaNaNaNaNaNaNaNaNaNaNaNaNaNaNaa(lp511
NaNaNaNaNaNaNaNaNaNaNaNaNaNaNaNaa(lp512
NaNaNaNaNaNaNaNaNaNaNaNaNaNaNaNaa(lp513
NaNaNaNaNaNag9
(g13
S'\xb9\xa7\x11\x96{zR\xc0'
p514
tp515
Rp516
aNaNaNaNaNaNaNaNaNaa(lp517
NaNaNaNaNaNaNaNaNaNaNaNaNaNaNaNaa(lp518
NaNaNaNaNaNaNaNaNaNaNaNaNaNaNaNaa(lp519
NaNaNaNaNaNaNag9
(g13
S'\x9e\xd8\x89\x9d\xd8IR\xc0'
p520
tp521
Rp522
aNaNaNaNaNaNaNaNaa(lp523
NaNaNaNaNaNaNaNaNaNaNaNaNaNaNaNaa(lp524
NaNaNaNaNaNaNaNaNaNaNaNaNaNaNaNaa(lp525
NaNaNaNaNaNaNaNaNaNaNaNaNaNaNaNaa(lp526
NaNaNaNaNaNaNaNaNaNaNaNaNaNaNaNaa(lp527
NaNaNaNaNaNaNaNaNaNaNaNaNaNaNaNaa(lp528
NaNaNaNaNaNaNaNaNaNaNaNaNaNaNaNaa(lp529
NaNaNaNaNaNaNaNaNaNaNaNaNaNaNaNaasS'10:30:47:c6:e0:b7'
p530
(lp531
(lp532
NaNaNaNaNaNaNaNaNaNaNaNaNaNaNaNaa(lp533
NaNaNaNaNaNaNaNaNaNaNaNaNaNaNaNaa(lp534
NaNaNaNaNaNaNaNaNaNaNaNaNaNaNaNaa(lp535
NaNaNaNaNaNaNaNaNaNaNaNaNaNaNaNaa(lp536
NaNaNaNaNaNaNaNaNaNaNaNaNaNaNaNaa(lp537
NaNaNaNaNaNaNaNaNaNaNaNaNaNaNaNaa(lp538
NaNaNaNaNaNaNaNaNaNaNaNaNaNaNaNaa(lp539
NaNaNaNaNaNaNaNaNaNaNaNaNaNaNaNaa(lp540
NaNaNaNaNaNaNag9
(g13
S'\x00\x00\x00\x00\x00\x80T\xc0'
p541
tp542
Rp543
aNaNaNaNaNaNaNaNaa(lp544
NaNaNaNaNaNaNaNaNaNaNaNaNaNaNaNaa(lp545
NaNaNaNaNaNaNaNaNaNaNaNaNaNaNaNaa(lp546
NaNaNaNaNaNaNaNaNaNaNaNaNaNaNaNaa(lp547
NaNaNaNaNaNaNaNaNaNaNaNaNaNaNaNaa(lp548
NaNaNaNaNaNaNaNaNaNaNaNaNaNaNaNaa(lp549
NaNaNaNaNaNaNaNaNaNaNaNaNaNaNaNaa(lp550
NaNaNaNaNaNaNaNaNaNaNaNaNaNaNaNaasS'f0:24:75:ba:7c:0e'
p551
(lp552
(lp553
NaNaNaNaNaNaNaNaNaNaNaNaNaNaNaNaa(lp554
NaNaNaNaNaNaNaNaNaNaNaNaNaNaNaNaa(lp555
NaNaNaNaNaNaNaNaNaNaNaNaNaNaNaNaa(lp556
NaNaNaNaNaNaNaNaNaNaNaNaNaNaNaNaa(lp557
NaNaNaNaNaNaNaNaNaNaNaNaNaNaNaNaa(lp558
NaNaNaNaNaNaNaNaNaNaNaNaNaNaNaNaa(lp559
NaNaNaNaNaNaNaNaNaNaNaNaNaNaNaNaa(lp560
NaNaNaNaNaNaNaNaNaNaNaNaNaNaNaNaa(lp561
NaNaNaNaNaNaNag9
(g13
S'UUUUU\xd5R\xc0'
p562
tp563
Rp564
aNaNaNaNaNaNaNaNaa(lp565
NaNaNaNaNaNaNaNaNaNaNaNaNaNaNaNaa(lp566
NaNaNaNaNaNaNaNaNaNaNaNaNaNaNaNaa(lp567
NaNaNaNaNaNaNaNaNaNaNaNaNaNaNaNaa(lp568
NaNaNaNaNaNaNaNaNaNaNaNaNaNaNaNaa(lp569
NaNaNaNaNaNaNaNaNaNaNaNaNaNaNaNaa(lp570
NaNaNaNaNaNaNaNaNaNaNaNaNaNaNaNaa(lp571
NaNaNaNaNaNaNaNaNaNaNaNaNaNaNaNaasS'68:a8:6d:25:ef:ac'
p572
(lp573
(lp574
NaNaNaNaNaNaNaNaNaNaNaNaNaNaNaNaa(lp575
NaNaNaNaNaNaNaNaNaNaNaNaNaNaNaNaa(lp576
NaNaNaNaNaNaNaNaNaNaNaNaNaNaNaNaa(lp577
NaNaNaNaNaNaNaNaNaNaNaNaNaNaNaNaa(lp578
NaNaNaNaNaNaNaNaNaNaNaNaNaNaNaNaa(lp579
NaNaNaNaNaNag9
(g13
S'\xe48\x8e\xe38\x0eU\xc0'
p580
tp581
Rp582
aNaNaNaNaNaNaNaNaNaa(lp583
NaNaNaNaNaNaNaNaNaNaNaNaNaNaNaNaa(lp584
NaNaNaNaNaNaNaNaNaNaNaNaNaNaNaNaa(lp585
NaNaNaNaNaNaNaNaNaNaNaNaNaNaNaNaa(lp586
NaNaNaNaNaNaNaNaNaNaNaNaNaNaNaNaa(lp587
NaNaNaNaNaNaNaNaNaNaNaNaNaNaNaNaa(lp588
NaNaNaNaNaNaNaNaNaNaNaNaNaNaNaNaa(lp589
NaNaNaNaNaNaNaNaNaNaNaNaNaNaNaNaa(lp590
NaNaNaNaNaNaNaNaNaNaNaNaNaNaNaNaa(lp591
NaNaNaNaNaNaNaNaNaNaNaNaNaNaNaNaa(lp592
NaNaNaNaNaNaNaNaNaNaNaNaNaNaNaNaasS'30:10:b3:1f:dc:76'
p593
(lp594
(lp595
NaNaNaNaNaNaNaNaNaNaNaNaNaNaNaNaa(lp596
NaNaNaNaNaNaNaNaNaNaNaNaNaNaNaNaa(lp597
NaNaNaNaNaNaNaNaNaNaNaNaNaNaNaNaa(lp598
NaNaNaNaNaNaNaNaNaNaNaNaNaNaNaNaa(lp599
NaNaNaNaNaNaNaNaNaNaNaNaNaNaNaNaa(lp600
NaNaNaNaNaNag9
(g13
S'\x00\x00\x00\x00\x00\x00F\xc0'
p601
tp602
Rp603
aNaNaNaNaNaNaNaNaNaa(lp604
NaNaNaNaNaNaNaNaNaNaNaNaNaNaNaNaa(lp605
NaNaNaNaNaNaNaNaNaNaNaNaNaNaNaNaa(lp606
NaNaNaNaNaNaNag9
(g13
S'\x00\x00\x00\x00\x00 H\xc0'
p607
tp608
Rp609
aNaNaNaNaNaNaNaNaa(lp610
NaNaNaNaNaNaNaNaNaNaNaNaNaNaNaNaa(lp611
NaNaNaNaNaNaNaNaNaNaNaNaNaNaNaNaa(lp612
NaNaNaNaNaNaNaNaNaNaNaNaNaNaNaNaa(lp613
NaNaNaNaNaNaNaNaNaNaNaNaNaNaNaNaa(lp614
NaNaNaNaNaNaNaNaNaNaNaNaNaNaNaNaa(lp615
NaNaNaNaNaNaNaNaNaNaNaNaNaNaNaNaa(lp616
NaNaNaNaNaNaNaNaNaNaNaNaNaNaNaNaasS'8c:2d:aa:56:1d:3b'
p617
(lp618
(lp619
NaNaNaNaNaNaNaNaNaNaNaNaNaNaNaNaa(lp620
NaNaNaNaNaNaNaNaNaNaNaNaNaNaNaNaa(lp621
NaNaNaNaNaNaNaNaNaNaNaNaNaNaNaNaa(lp622
NaNaNaNaNaNaNaNaNaNaNaNaNaNaNaNaa(lp623
NaNaNaNaNaNaNaNaNaNaNaNaNaNaNaNaa(lp624
NaNaNaNaNaNaNaNaNaNaNaNaNaNaNaNaa(lp625
NaNaNaNaNaNaNaNaNaNaNaNaNaNaNaNaa(lp626
NaNaNaNaNaNaNaNaNaNaNaNaNaNaNaNaa(lp627
NaNaNaNaNaNaNag9
(g13
S'UUUUU\x15K\xc0'
p628
tp629
Rp630
aNaNaNaNaNaNaNaNaa(lp631
NaNaNaNaNaNaNaNaNaNaNaNaNaNaNaNaa(lp632
NaNaNaNaNaNaNaNaNaNaNaNaNaNaNaNaa(lp633
NaNaNaNaNaNaNaNaNaNaNaNaNaNaNaNaa(lp634
NaNaNaNaNaNaNaNaNaNaNaNaNaNaNaNaa(lp635
NaNaNaNaNaNaNaNaNaNaNaNaNaNaNaNaa(lp636
NaNaNaNaNaNaNaNaNaNaNaNaNaNaNaNaa(lp637
NaNaNaNaNaNaNaNaNaNaNaNaNaNaNaNaasS'ec:35:86:3b:50:08'
p638
(lp639
(lp640
NaNaNaNaNaNaNaNaNaNaNaNaNaNaNaNaa(lp641
NaNaNaNaNaNaNaNaNaNaNaNaNaNaNaNaa(lp642
NaNaNaNaNaNaNaNaNaNaNaNaNaNaNaNaa(lp643
NaNaNaNaNaNaNaNaNaNaNaNaNaNaNaNaa(lp644
NaNaNaNaNaNaNaNaNaNaNaNaNaNaNaNaa(lp645
NaNaNaNaNaNag9
(g13
S'UUUUU\xd5K\xc0'
p646
tp647
Rp648
aNaNaNaNaNaNaNaNaNaa(lp649
NaNaNaNaNaNaNaNaNaNaNaNaNaNaNaNaa(lp650
NaNaNaNaNaNaNaNaNaNaNaNaNaNaNaNaa(lp651
NaNaNaNaNaNaNag9
(g13
S'\x00\x00\x00\x00\x00\x00N\xc0'
p652
tp653
Rp654
aNaNaNaNaNaNaNaNaa(lp655
NaNaNaNaNaNaNaNaNaNaNaNaNaNaNaNaa(lp656
NaNaNaNaNaNaNaNaNaNaNaNaNaNaNaNaa(lp657
NaNaNaNaNaNaNaNaNaNaNaNaNaNaNaNaa(lp658
NaNaNaNaNaNaNaNaNaNaNaNaNaNaNaNaa(lp659
NaNaNaNaNaNaNaNaNaNaNaNaNaNaNaNaa(lp660
NaNaNaNaNaNaNaNaNaNaNaNaNaNaNaNaa(lp661
NaNaNaNaNaNaNaNaNaNaNaNaNaNaNaNaasS'5c:95:ae:5e:4b:5f'
p662
(lp663
(lp664
NaNaNaNaNaNaNaNaNaNaNaNaNaNaNaNaa(lp665
NaNaNaNaNaNaNaNaNaNaNaNaNaNaNaNaa(lp666
NaNaNaNaNaNaNaNaNaNaNaNaNaNaNaNaa(lp667
NaNaNaNaNaNaNaNaNaNaNaNaNaNaNaNaa(lp668
NaNaNaNaNaNaNaNaNaNaNaNaNaNaNaNaa(lp669
NaNaNaNaNaNag9
(g13
S'/\xba\xe8\xa2\x8bnS\xc0'
p670
tp671
Rp672
aNaNaNaNaNaNaNaNaNaa(lp673
NaNaNaNaNaNaNaNaNaNaNaNaNaNaNaNaa(lp674
NaNaNaNaNaNaNaNaNaNaNaNaNaNaNaNaa(lp675
NaNaNaNaNaNaNag9
(g13
S'\x00\x00\x00\x00\x00pS\xc0'
p676
tp677
Rp678
aNaNaNaNaNaNaNaNaa(lp679
NaNaNaNaNaNaNaNaNaNaNaNaNaNaNaNaa(lp680
NaNaNaNaNaNaNaNaNaNaNaNaNaNaNaNaa(lp681
NaNaNaNaNaNaNaNaNaNaNaNaNaNaNaNaa(lp682
NaNaNaNaNaNaNaNaNaNaNaNaNaNaNaNaa(lp683
NaNaNaNaNaNaNaNaNaNaNaNaNaNaNaNaa(lp684
NaNaNaNaNaNaNaNaNaNaNaNaNaNaNaNaa(lp685
NaNaNaNaNaNaNaNaNaNaNaNaNaNaNaNaasS'ec:35:86:3b:84:70'
p686
(lp687
(lp688
NaNaNaNaNaNaNaNaNaNaNaNaNaNaNaNaa(lp689
NaNaNaNaNaNaNaNaNaNaNaNaNaNaNaNaa(lp690
NaNaNaNaNaNaNaNaNaNaNaNaNaNaNaNaa(lp691
NaNaNaNaNaNaNaNaNaNaNaNaNaNaNaNaa(lp692
NaNaNaNaNaNaNaNaNaNaNaNaNaNaNaNaa(lp693
NaNaNaNaNaNaNaNaNaNaNaNaNaNaNaNaa(lp694
NaNaNaNaNaNaNaNaNaNaNaNaNaNaNaNaa(lp695
NaNaNaNaNaNaNaNaNaNaNaNaNaNaNaNaa(lp696
NaNaNaNaNaNaNag9
(g13
S'\xf1\xf0\xf0\xf0\xf0pN\xc0'
p697
tp698
Rp699
aNaNaNaNaNaNaNaNaa(lp700
NaNaNaNaNaNaNaNaNaNaNaNaNaNaNaNaa(lp701
NaNaNaNaNaNaNaNaNaNaNaNaNaNaNaNaa(lp702
NaNaNaNaNaNaNaNaNaNaNaNaNaNaNaNaa(lp703
NaNaNaNaNaNaNaNaNaNaNaNaNaNaNaNaa(lp704
NaNaNaNaNaNaNaNaNaNaNaNaNaNaNaNaa(lp705
NaNaNaNaNaNaNaNaNaNaNaNaNaNaNaNaa(lp706
NaNaNaNaNaNaNaNaNaNaNaNaNaNaNaNaasS'e0:75:7d:dc:9f:7f'
p707
(lp708
(lp709
NaNaNaNaNaNaNaNaNaNaNaNaNaNaNaNaa(lp710
NaNaNaNaNaNaNaNaNaNaNaNaNaNaNaNaa(lp711
NaNaNaNaNaNaNaNaNaNaNaNaNaNaNaNaa(lp712
NaNaNaNaNaNaNaNaNaNaNaNaNaNaNaNaa(lp713
NaNaNaNaNaNaNaNaNaNaNaNaNaNaNaNaa(lp714
NaNaNaNaNaNaNaNaNaNaNaNaNaNaNaNaa(lp715
NaNaNaNaNaNaNaNaNaNaNaNaNaNaNaNaa(lp716
NaNaNaNaNaNaNaNaNaNaNaNaNaNaNaNaa(lp717
NaNaNaNaNaNaNag9
(g13
S'\x84\x10B\x08!\xc4T\xc0'
p718
tp719
Rp720
aNaNaNaNaNaNaNaNaa(lp721
NaNaNaNaNaNaNaNaNaNaNaNaNaNaNaNaa(lp722
NaNaNaNaNaNaNaNaNaNaNaNaNaNaNaNaa(lp723
NaNaNaNaNaNaNaNaNaNaNaNaNaNaNaNaa(lp724
NaNaNaNaNaNaNaNaNaNaNaNaNaNaNaNaa(lp725
NaNaNaNaNaNaNaNaNaNaNaNaNaNaNaNaa(lp726
NaNaNaNaNaNaNaNaNaNaNaNaNaNaNaNaa(lp727
NaNaNaNaNaNaNaNaNaNaNaNaNaNaNaNaasS'60:03:08:f3:b8:46'
p728
(lp729
(lp730
NaNaNaNaNaNaNaNaNaNaNaNaNaNaNaNaa(lp731
NaNaNaNaNaNaNaNaNaNaNaNaNaNaNaNaa(lp732
NaNaNaNaNaNaNaNaNaNaNaNaNaNaNaNaa(lp733
NaNaNaNaNaNaNaNaNaNaNaNaNaNaNaNaa(lp734
NaNaNaNaNaNaNaNaNaNaNaNaNaNaNaNaa(lp735
NaNaNaNaNaNag9
(g13
S'\x9a\x99\x99\x99\x99\xb9S\xc0'
p736
tp737
Rp738
aNaNaNaNaNaNaNaNaNaa(lp739
NaNaNaNaNaNaNaNaNaNaNaNaNaNaNaNaa(lp740
NaNaNaNaNaNaNaNaNaNaNaNaNaNaNaNaa(lp741
NaNaNaNaNaNaNag9
(g13
S';\xb1\x13;\xb1\x13T\xc0'
p742
tp743
Rp744
aNaNaNaNaNaNaNaNaa(lp745
NaNaNaNaNaNaNaNaNaNaNaNaNaNaNaNaa(lp746
NaNaNaNaNaNaNaNaNaNaNaNaNaNaNaNaa(lp747
NaNaNaNaNaNaNaNaNaNaNaNaNaNaNaNaa(lp748
NaNaNaNaNaNaNaNaNaNaNaNaNaNaNaNaa(lp749
NaNaNaNaNaNaNaNaNaNaNaNaNaNaNaNaa(lp750
NaNaNaNaNaNaNaNaNaNaNaNaNaNaNaNaa(lp751
NaNaNaNaNaNaNaNaNaNaNaNaNaNaNaNaasS'24:e3:14:81:78:54'
p752
(lp753
(lp754
NaNaNaNaNaNaNaNaNaNaNaNaNaNaNaNaa(lp755
NaNaNaNaNaNaNaNaNaNaNaNaNaNaNaNaa(lp756
NaNaNaNaNaNaNaNaNaNaNaNaNaNaNaNaa(lp757
NaNaNaNaNaNaNaNaNaNaNaNaNaNaNaNaa(lp758
NaNaNaNaNaNaNaNaNaNaNaNaNaNaNaNaa(lp759
NaNaNaNaNaNaNaNaNaNaNaNaNaNaNaNaa(lp760
NaNaNaNaNaNaNaNaNaNaNaNaNaNaNaNaa(lp761
NaNaNaNaNaNaNaNaNaNaNaNaNaNaNaNaa(lp762
NaNaNaNaNaNaNag9
(g13
S'\xab\xaa\xaa\xaa\xaaJU\xc0'
p763
tp764
Rp765
aNaNaNaNaNaNaNaNaa(lp766
NaNaNaNaNaNaNaNaNaNaNaNaNaNaNaNaa(lp767
NaNaNaNaNaNaNaNaNaNaNaNaNaNaNaNaa(lp768
NaNaNaNaNaNaNaNaNaNaNaNaNaNaNaNaa(lp769
NaNaNaNaNaNaNaNaNaNaNaNaNaNaNaNaa(lp770
NaNaNaNaNaNaNaNaNaNaNaNaNaNaNaNaa(lp771
NaNaNaNaNaNaNaNaNaNaNaNaNaNaNaNaa(lp772
NaNaNaNaNaNaNaNaNaNaNaNaNaNaNaNaasS'fc:c2:de:55:3c:00'
p773
(lp774
(lp775
NaNaNaNaNaNaNaNaNaNaNaNaNaNaNaNaa(lp776
NaNaNaNaNaNaNaNaNaNaNaNaNaNaNaNaa(lp777
NaNaNaNaNaNaNaNaNaNaNaNaNaNaNaNaa(lp778
NaNaNaNaNaNaNaNaNaNaNaNaNaNaNaNaa(lp779
NaNaNaNaNaNaNaNaNaNaNaNaNaNaNaNaa(lp780
NaNaNaNaNaNaNaNaNaNaNaNaNaNaNaNaa(lp781
NaNaNaNaNaNaNaNaNaNaNaNaNaNaNaNaa(lp782
NaNaNaNaNaNaNaNaNaNaNaNaNaNaNaNaa(lp783
NaNaNaNaNaNaNag9
(g13
S'\xf1\xf0\xf0\xf0\xf0\xb0S\xc0'
p784
tp785
Rp786
aNaNaNaNaNaNaNaNaa(lp787
NaNaNaNaNaNaNaNaNaNaNaNaNaNaNaNaa(lp788
NaNaNaNaNaNaNaNaNaNaNaNaNaNaNaNaa(lp789
NaNaNaNaNaNaNaNaNaNaNaNaNaNaNaNaa(lp790
NaNaNaNaNaNaNaNaNaNaNaNaNaNaNaNaa(lp791
NaNaNaNaNaNaNaNaNaNaNaNaNaNaNaNaa(lp792
NaNaNaNaNaNaNaNaNaNaNaNaNaNaNaNaa(lp793
NaNaNaNaNaNaNaNaNaNaNaNaNaNaNaNaasS'30:f7:c5:19:ba:d3'
p794
(lp795
(lp796
NaNaNaNaNaNaNaNaNaNaNaNaNaNaNaNaa(lp797
NaNaNaNaNaNaNaNaNaNaNaNaNaNaNaNaa(lp798
NaNaNaNaNaNaNaNaNaNaNaNaNaNaNaNaa(lp799
NaNaNaNaNaNaNaNaNaNaNaNaNaNaNaNaa(lp800
NaNaNaNaNaNaNaNaNaNaNaNaNaNaNaNaa(lp801
NaNaNaNaNaNag9
(g13
S'\xb7m\xdb\xb6m\xbbR\xc0'
p802
tp803
Rp804
aNaNaNaNaNaNaNaNaNaa(lp805
NaNaNaNaNaNaNaNaNaNaNaNaNaNaNaNaa(lp806
NaNaNaNaNaNaNaNaNaNaNaNaNaNaNaNaa(lp807
NaNaNaNaNaNaNaNaNaNaNaNaNaNaNaNaa(lp808
NaNaNaNaNaNaNaNaNaNaNaNaNaNaNaNaa(lp809
NaNaNaNaNaNaNaNaNaNaNaNaNaNaNaNaa(lp810
NaNaNaNaNaNaNaNaNaNaNaNaNaNaNaNaa(lp811
NaNaNaNaNaNaNaNaNaNaNaNaNaNaNaNaa(lp812
NaNaNaNaNaNaNaNaNaNaNaNaNaNaNaNaa(lp813
NaNaNaNaNaNaNaNaNaNaNaNaNaNaNaNaa(lp814
NaNaNaNaNaNaNaNaNaNaNaNaNaNaNaNaasS'ec:35:86:39:cf:32'
p815
(lp816
(lp817
NaNaNaNaNaNaNaNaNaNaNaNaNaNaNaNaa(lp818
NaNaNaNaNaNaNaNaNaNaNaNaNaNaNaNaa(lp819
NaNaNaNaNaNaNaNaNaNaNaNaNaNaNaNaa(lp820
NaNaNaNaNaNaNaNaNaNaNaNaNaNaNaNaa(lp821
NaNaNaNaNaNaNaNaNaNaNaNaNaNaNaNaa(lp822
NaNaNaNaNaNag9
(g13
S'\x00\x00\x00\x00\x00@J\xc0'
p823
tp824
Rp825
aNaNaNaNaNaNaNaNaNaa(lp826
NaNaNaNaNaNaNaNaNaNaNaNaNaNaNaNaa(lp827
NaNaNaNaNaNaNaNaNaNaNaNaNaNaNaNaa(lp828
NaNaNaNaNaNaNag9
(g13
S'\x00\x00\x00\x00\x00\x80K\xc0'
p829
tp830
Rp831
aNaNaNaNaNaNaNaNaa(lp832
NaNaNaNaNaNaNaNaNaNaNaNaNaNaNaNaa(lp833
NaNaNaNaNaNaNaNaNaNaNaNaNaNaNaNaa(lp834
NaNaNaNaNaNaNaNaNaNaNaNaNaNaNaNaa(lp835
NaNaNaNaNaNaNaNaNaNaNaNaNaNaNaNaa(lp836
NaNaNaNaNaNaNaNaNaNaNaNaNaNaNaNaa(lp837
NaNaNaNaNaNaNaNaNaNaNaNaNaNaNaNaa(lp838
NaNaNaNaNaNaNaNaNaNaNaNaNaNaNaNaasS'80:00:6e:b3:7b:aa'
p839
(lp840
(lp841
NaNaNaNaNaNaNaNaNaNaNaNaNaNaNaNaa(lp842
NaNaNaNaNaNaNaNaNaNaNaNaNaNaNaNaa(lp843
NaNaNaNaNaNaNaNaNaNaNaNaNaNaNaNaa(lp844
NaNaNaNaNaNaNaNaNaNaNaNaNaNaNaNaa(lp845
NaNaNaNaNaNaNaNaNaNaNaNaNaNaNaNaa(lp846
NaNaNaNaNaNag9
(g13
S'\x00\x00\x00\x00\x00\xe0U\xc0'
p847
tp848
Rp849
aNaNaNaNaNaNaNaNaNaa(lp850
NaNaNaNaNaNaNaNaNaNaNaNaNaNaNaNaa(lp851
NaNaNaNaNaNaNaNaNaNaNaNaNaNaNaNaa(lp852
NaNaNaNaNaNaNaNaNaNaNaNaNaNaNaNaa(lp853
NaNaNaNaNaNaNaNaNaNaNaNaNaNaNaNaa(lp854
NaNaNaNaNaNaNaNaNaNaNaNaNaNaNaNaa(lp855
NaNaNaNaNaNaNaNaNaNaNaNaNaNaNaNaa(lp856
NaNaNaNaNaNaNaNaNaNaNaNaNaNaNaNaa(lp857
NaNaNaNaNaNaNaNaNaNaNaNaNaNaNaNaa(lp858
NaNaNaNaNaNaNaNaNaNaNaNaNaNaNaNaa(lp859
NaNaNaNaNaNaNaNaNaNaNaNaNaNaNaNaasS'8c:2d:aa:55:fc:e5'
p860
(lp861
(lp862
NaNaNaNaNaNaNaNaNaNaNaNaNaNaNaNaa(lp863
NaNaNaNaNaNaNaNaNaNaNaNaNaNaNaNaa(lp864
NaNaNaNaNaNaNaNaNaNaNaNaNaNaNaNaa(lp865
NaNaNaNaNaNaNaNaNaNaNaNaNaNaNaNaa(lp866
NaNaNaNaNaNaNaNaNaNaNaNaNaNaNaNaa(lp867
NaNaNaNaNaNaNaNaNaNaNaNaNaNaNaNaa(lp868
NaNaNaNaNaNaNaNaNaNaNaNaNaNaNaNaa(lp869
NaNaNaNaNaNaNaNaNaNaNaNaNaNaNaNaa(lp870
NaNaNaNaNaNaNag9
(g13
S'UUUUU\xd5K\xc0'
p871
tp872
Rp873
aNaNaNaNaNaNaNaNaa(lp874
NaNaNaNaNaNaNaNaNaNaNaNaNaNaNaNaa(lp875
NaNaNaNaNaNaNaNaNaNaNaNaNaNaNaNaa(lp876
NaNaNaNaNaNaNaNaNaNaNaNaNaNaNaNaa(lp877
NaNaNaNaNaNaNaNaNaNaNaNaNaNaNaNaa(lp878
NaNaNaNaNaNaNaNaNaNaNaNaNaNaNaNaa(lp879
NaNaNaNaNaNaNaNaNaNaNaNaNaNaNaNaa(lp880
NaNaNaNaNaNaNaNaNaNaNaNaNaNaNaNaasS'dc:85:de:45:b9:13'
p881
(lp882
(lp883
NaNaNaNaNaNaNaNaNaNaNaNaNaNaNaNaa(lp884
NaNaNaNaNaNaNaNaNaNaNaNaNaNaNaNaa(lp885
NaNaNaNaNaNaNaNaNaNaNaNaNaNaNaNaa(lp886
NaNaNaNaNaNaNaNaNaNaNaNaNaNaNaNaa(lp887
NaNaNaNaNaNaNaNaNaNaNaNaNaNaNaNaa(lp888
NaNaNaNaNaNag9
(g13
S'\x00\x00\x00\x00\x00\xe0T\xc0'
p889
tp890
Rp891
aNaNaNaNaNaNaNaNaNaa(lp892
NaNaNaNaNaNaNaNaNaNaNaNaNaNaNaNaa(lp893
NaNaNaNaNaNaNaNaNaNaNaNaNaNaNaNaa(lp894
NaNaNaNaNaNaNaNaNaNaNaNaNaNaNaNaa(lp895
NaNaNaNaNaNaNaNaNaNaNaNaNaNaNaNaa(lp896
NaNaNaNaNaNaNaNaNaNaNaNaNaNaNaNaa(lp897
NaNaNaNaNaNaNaNaNaNaNaNaNaNaNaNaa(lp898
NaNaNaNaNaNaNaNaNaNaNaNaNaNaNaNaa(lp899
NaNaNaNaNaNaNaNaNaNaNaNaNaNaNaNaa(lp900
NaNaNaNaNaNaNaNaNaNaNaNaNaNaNaNaa(lp901
NaNaNaNaNaNaNaNaNaNaNaNaNaNaNaNaasS'40:f3:08:f8:03:e7'
p902
(lp903
(lp904
NaNaNaNaNaNaNaNaNaNaNaNaNaNaNaNaa(lp905
NaNaNaNaNaNaNaNaNaNaNaNaNaNaNaNaa(lp906
NaNaNaNaNaNaNaNaNaNaNaNaNaNaNaNaa(lp907
NaNaNaNaNaNaNaNaNaNaNaNaNaNaNaNaa(lp908
NaNaNaNaNaNaNaNaNaNaNaNaNaNaNaNaa(lp909
NaNaNaNaNaNaNaNaNaNaNaNaNaNaNaNaa(lp910
NaNaNaNaNaNaNaNaNaNaNaNaNaNaNaNaa(lp911
NaNaNaNaNaNaNaNaNaNaNaNaNaNaNaNaa(lp912
NaNaNaNaNaNaNag9
(g13
S'n\xdb\xb6m\xdb6S\xc0'
p913
tp914
Rp915
aNaNaNaNaNaNaNaNaa(lp916
NaNaNaNaNaNaNaNaNaNaNaNaNaNaNaNaa(lp917
NaNaNaNaNaNaNaNaNaNaNaNaNaNaNaNaa(lp918
NaNaNaNaNaNaNaNaNaNaNaNaNaNaNaNaa(lp919
NaNaNaNaNaNaNaNaNaNaNaNaNaNaNaNaa(lp920
NaNaNaNaNaNaNaNaNaNaNaNaNaNaNaNaa(lp921
NaNaNaNaNaNaNaNaNaNaNaNaNaNaNaNaa(lp922
NaNaNaNaNaNaNaNaNaNaNaNaNaNaNaNaasS'00:24:6c:a9:df:51'
p923
(lp924
(lp925
NaNaNaNaNaNaNaNaNaNaNaNaNaNaNaNaa(lp926
NaNaNaNaNaNaNaNaNaNaNaNaNaNaNaNaa(lp927
NaNaNaNaNaNaNaNaNaNaNaNaNaNaNaNaa(lp928
NaNaNaNaNaNaNaNaNaNaNaNaNaNaNaNaa(lp929
NaNaNaNaNaNaNaNaNaNaNaNaNaNaNaNaa(lp930
NaNaNaNaNaNag9
(g13
S'\x00\x00\x00\x00\x00@U\xc0'
p931
tp932
Rp933
aNaNaNaNaNaNaNaNaNaa(lp934
NaNaNaNaNaNaNaNaNaNaNaNaNaNaNaNaa(lp935
NaNaNaNaNaNaNaNaNaNaNaNaNaNaNaNaa(lp936
NaNaNaNaNaNaNag9
(g13
S'\x00\x00\x00\x00\x00\x00U\xc0'
p937
tp938
Rp939
aNaNaNaNaNaNaNaNaa(lp940
NaNaNaNaNaNaNaNaNaNaNaNaNaNaNaNaa(lp941
NaNaNaNaNaNaNaNaNaNaNaNaNaNaNaNaa(lp942
NaNaNaNaNaNaNaNaNaNaNaNaNaNaNaNaa(lp943
NaNaNaNaNaNaNaNaNaNaNaNaNaNaNaNaa(lp944
NaNaNaNaNaNaNaNaNaNaNaNaNaNaNaNaa(lp945
NaNaNaNaNaNaNaNaNaNaNaNaNaNaNaNaa(lp946
NaNaNaNaNaNaNaNaNaNaNaNaNaNaNaNaasS'00:24:6c:a9:df:52'
p947
(lp948
(lp949
NaNaNaNaNaNaNaNaNaNaNaNaNaNaNaNaa(lp950
NaNaNaNaNaNaNaNaNaNaNaNaNaNaNaNaa(lp951
NaNaNaNaNaNaNaNaNaNaNaNaNaNaNaNaa(lp952
NaNaNaNaNaNaNaNaNaNaNaNaNaNaNaNaa(lp953
NaNaNaNaNaNaNaNaNaNaNaNaNaNaNaNaa(lp954
NaNaNaNaNaNag9
(g13
S'\x00\x00\x00\x00\x00\x00U\xc0'
p955
tp956
Rp957
aNaNaNaNaNaNaNaNaNaa(lp958
NaNaNaNaNaNaNaNaNaNaNaNaNaNaNaNaa(lp959
NaNaNaNaNaNaNaNaNaNaNaNaNaNaNaNaa(lp960
NaNaNaNaNaNaNag9
(g13
S'\x00\x00\x00\x00\x00vU\xc0'
p961
tp962
Rp963
aNaNaNaNaNaNaNaNaa(lp964
NaNaNaNaNaNaNaNaNaNaNaNaNaNaNaNaa(lp965
NaNaNaNaNaNaNaNaNaNaNaNaNaNaNaNaa(lp966
NaNaNaNaNaNaNaNaNaNaNaNaNaNaNaNaa(lp967
NaNaNaNaNaNaNaNaNaNaNaNaNaNaNaNaa(lp968
NaNaNaNaNaNaNaNaNaNaNaNaNaNaNaNaa(lp969
NaNaNaNaNaNaNaNaNaNaNaNaNaNaNaNaa(lp970
NaNaNaNaNaNaNaNaNaNaNaNaNaNaNaNaasS'40:78:6a:ff:e8:2a'
p971
(lp972
(lp973
NaNaNaNaNaNaNaNaNaNaNaNaNaNaNaNaa(lp974
NaNaNaNaNaNaNaNaNaNaNaNaNaNaNaNaa(lp975
NaNaNaNaNaNaNaNaNaNaNaNaNaNaNaNaa(lp976
NaNaNaNaNaNaNaNaNaNaNaNaNaNaNaNaa(lp977
NaNaNaNaNaNaNaNaNaNaNaNaNaNaNaNaa(lp978
NaNaNaNaNaNag9
(g13
S'\x00\x00\x00\x00\x00\x90N\xc0'
p979
tp980
Rp981
aNaNaNaNaNaNaNaNaNaa(lp982
NaNaNaNaNaNaNaNaNaNaNaNaNaNaNaNaa(lp983
NaNaNaNaNaNaNaNaNaNaNaNaNaNaNaNaa(lp984
NaNaNaNaNaNaNaNaNaNaNaNaNaNaNaNaa(lp985
NaNaNaNaNaNaNaNaNaNaNaNaNaNaNaNaa(lp986
NaNaNaNaNaNaNaNaNaNaNaNaNaNaNaNaa(lp987
NaNaNaNaNaNaNaNaNaNaNaNaNaNaNaNaa(lp988
NaNaNaNaNaNaNaNaNaNaNaNaNaNaNaNaa(lp989
NaNaNaNaNaNaNaNaNaNaNaNaNaNaNaNaa(lp990
NaNaNaNaNaNaNaNaNaNaNaNaNaNaNaNaa(lp991
NaNaNaNaNaNaNaNaNaNaNaNaNaNaNaNaasS'e4:98:d6:2d:a6:cb'
p992
(lp993
(lp994
NaNaNaNaNaNaNaNaNaNaNaNaNaNaNaNaa(lp995
NaNaNaNaNaNaNaNaNaNaNaNaNaNaNaNaa(lp996
NaNaNaNaNaNaNaNaNaNaNaNaNaNaNaNaa(lp997
NaNaNaNaNaNaNaNaNaNaNaNaNaNaNaNaa(lp998
NaNaNaNaNaNaNaNaNaNaNaNaNaNaNaNaa(lp999
NaNaNaNaNaNaNaNaNaNaNaNaNaNaNaNaa(lp1000
NaNaNaNaNaNaNaNaNaNaNaNaNaNaNaNaa(lp1001
NaNaNaNaNaNaNaNaNaNaNaNaNaNaNaNaa(lp1002
NaNaNaNaNaNaNag9
(g13
S'\x00\x00\x00\x00\x00\x00V\xc0'
p1003
tp1004
Rp1005
aNaNaNaNaNaNaNaNaa(lp1006
NaNaNaNaNaNaNaNaNaNaNaNaNaNaNaNaa(lp1007
NaNaNaNaNaNaNaNaNaNaNaNaNaNaNaNaa(lp1008
NaNaNaNaNaNaNaNaNaNaNaNaNaNaNaNaa(lp1009
NaNaNaNaNaNaNaNaNaNaNaNaNaNaNaNaa(lp1010
NaNaNaNaNaNaNaNaNaNaNaNaNaNaNaNaa(lp1011
NaNaNaNaNaNaNaNaNaNaNaNaNaNaNaNaa(lp1012
NaNaNaNaNaNaNaNaNaNaNaNaNaNaNaNaasS'8c:a9:82:72:15:c4'
p1013
(lp1014
(lp1015
NaNaNaNaNaNaNaNaNaNaNaNaNaNaNaNaa(lp1016
NaNaNaNaNaNaNaNaNaNaNaNaNaNaNaNaa(lp1017
NaNaNaNaNaNaNaNaNaNaNaNaNaNaNaNaa(lp1018
NaNaNaNaNaNaNaNaNaNaNaNaNaNaNaNaa(lp1019
NaNaNaNaNaNaNaNaNaNaNaNaNaNaNaNaa(lp1020
NaNaNaNaNaNag9
(g13
S'\x1c\xc7q\x1c\xc7\xb1T\xc0'
p1021
tp1022
Rp1023
aNaNaNaNaNaNaNaNaNaa(lp1024
NaNaNaNaNaNaNaNaNaNaNaNaNaNaNaNaa(lp1025
NaNaNaNaNaNaNaNaNaNaNaNaNaNaNaNaa(lp1026
NaNaNaNaNaNaNag9
(g13
S'\xcd\xcc\xcc\xcc\xccLT\xc0'
p1027
tp1028
Rp1029
aNaNaNaNaNaNaNaNaa(lp1030
NaNaNaNaNaNaNaNaNaNaNaNaNaNaNaNaa(lp1031
NaNaNaNaNaNaNaNaNaNaNaNaNaNaNaNaa(lp1032
NaNaNaNaNaNaNaNaNaNaNaNaNaNaNaNaa(lp1033
NaNaNaNaNaNaNaNaNaNaNaNaNaNaNaNaa(lp1034
NaNaNaNaNaNaNaNaNaNaNaNaNaNaNaNaa(lp1035
NaNaNaNaNaNaNaNaNaNaNaNaNaNaNaNaa(lp1036
NaNaNaNaNaNaNaNaNaNaNaNaNaNaNaNaasS'40:0e:85:7c:e5:b2'
p1037
(lp1038
(lp1039
NaNaNaNaNaNaNaNaNaNaNaNaNaNaNaNaa(lp1040
NaNaNaNaNaNaNaNaNaNaNaNaNaNaNaNaa(lp1041
NaNaNaNaNaNaNaNaNaNaNaNaNaNaNaNaa(lp1042
NaNaNaNaNaNaNaNaNaNaNaNaNaNaNaNaa(lp1043
NaNaNaNaNaNaNaNaNaNaNaNaNaNaNaNaa(lp1044
NaNaNaNaNaNaNaNaNaNaNaNaNaNaNaNaa(lp1045
NaNaNaNaNaNaNaNaNaNaNaNaNaNaNaNaa(lp1046
NaNaNaNaNaNaNaNaNaNaNaNaNaNaNaNaa(lp1047
NaNaNaNaNaNaNag9
(g13
S'\x00\x00\x00\x00\x00`Q\xc0'
p1048
tp1049
Rp1050
aNaNaNaNaNaNaNaNaa(lp1051
NaNaNaNaNaNaNaNaNaNaNaNaNaNaNaNaa(lp1052
NaNaNaNaNaNaNaNaNaNaNaNaNaNaNaNaa(lp1053
NaNaNaNaNaNaNaNaNaNaNaNaNaNaNaNaa(lp1054
NaNaNaNaNaNaNaNaNaNaNaNaNaNaNaNaa(lp1055
NaNaNaNaNaNaNaNaNaNaNaNaNaNaNaNaa(lp1056
NaNaNaNaNaNaNaNaNaNaNaNaNaNaNaNaa(lp1057
NaNaNaNaNaNaNaNaNaNaNaNaNaNaNaNaasS'10:9a:dd:85:1a:63'
p1058
(lp1059
(lp1060
NaNaNaNaNaNaNaNaNaNaNaNaNaNaNaNaa(lp1061
NaNaNaNaNaNaNaNaNaNaNaNaNaNaNaNaa(lp1062
NaNaNaNaNaNaNaNaNaNaNaNaNaNaNaNaa(lp1063
NaNaNaNaNaNaNaNaNaNaNaNaNaNaNaNaa(lp1064
NaNaNaNaNaNaNaNaNaNaNaNaNaNaNaNaa(lp1065
NaNaNaNaNaNag9
(g13
S'\x00\x00\x00\x00\x00\xa8J\xc0'
p1066
tp1067
Rp1068
aNaNaNaNaNaNaNaNaNaa(lp1069
NaNaNaNaNaNaNaNaNaNaNaNaNaNaNaNaa(lp1070
NaNaNaNaNaNaNaNaNaNaNaNaNaNaNaNaa(lp1071
NaNaNaNaNaNaNag9
(g13
S'UUUUUUK\xc0'
p1072
tp1073
Rp1074
aNaNaNaNaNaNaNaNaa(lp1075
NaNaNaNaNaNaNaNaNaNaNaNaNaNaNaNaa(lp1076
NaNaNaNaNaNaNaNaNaNaNaNaNaNaNaNaa(lp1077
NaNaNaNaNaNaNaNaNaNaNaNaNaNaNaNaa(lp1078
NaNaNaNaNaNaNaNaNaNaNaNaNaNaNaNaa(lp1079
NaNaNaNaNaNaNaNaNaNaNaNaNaNaNaNaa(lp1080
NaNaNaNaNaNaNaNaNaNaNaNaNaNaNaNaa(lp1081
NaNaNaNaNaNaNaNaNaNaNaNaNaNaNaNaasS'2c:b4:3a:63:ba:cd'
p1082
(lp1083
(lp1084
NaNaNaNaNaNaNaNaNaNaNaNaNaNaNaNaa(lp1085
NaNaNaNaNaNaNaNaNaNaNaNaNaNaNaNaa(lp1086
NaNaNaNaNaNaNaNaNaNaNaNaNaNaNaNaa(lp1087
NaNaNaNaNaNaNaNaNaNaNaNaNaNaNaNaa(lp1088
NaNaNaNaNaNaNaNaNaNaNaNaNaNaNaNaa(lp1089
NaNaNaNaNaNaNaNaNaNaNaNaNaNaNaNaa(lp1090
NaNaNaNaNaNaNaNaNaNaNaNaNaNaNaNaa(lp1091
NaNaNaNaNaNaNaNaNaNaNaNaNaNaNaNaa(lp1092
NaNaNaNaNaNaNag9
(g13
S'\x00\x00\x00\x00\x00@U\xc0'
p1093
tp1094
Rp1095
aNaNaNaNaNaNaNaNaa(lp1096
NaNaNaNaNaNaNaNaNaNaNaNaNaNaNaNaa(lp1097
NaNaNaNaNaNaNaNaNaNaNaNaNaNaNaNaa(lp1098
NaNaNaNaNaNaNaNaNaNaNaNaNaNaNaNaa(lp1099
NaNaNaNaNaNaNaNaNaNaNaNaNaNaNaNaa(lp1100
NaNaNaNaNaNaNaNaNaNaNaNaNaNaNaNaa(lp1101
NaNaNaNaNaNaNaNaNaNaNaNaNaNaNaNaa(lp1102
NaNaNaNaNaNaNaNaNaNaNaNaNaNaNaNaasS'00:23:4e:4b:2a:58'
p1103
(lp1104
(lp1105
NaNaNaNaNaNaNaNaNaNaNaNaNaNaNaNaa(lp1106
NaNaNaNaNaNaNaNaNaNaNaNaNaNaNaNaa(lp1107
NaNaNaNaNaNaNaNaNaNaNaNaNaNaNaNaa(lp1108
NaNaNaNaNaNaNaNaNaNaNaNaNaNaNaNaa(lp1109
NaNaNaNaNaNaNaNaNaNaNaNaNaNaNaNaa(lp1110
NaNaNaNaNaNag9
(g13
S'\x00\x00\x00\x00\x00\x00I\xc0'
p1111
tp1112
Rp1113
aNaNaNaNaNaNaNaNaNaa(lp1114
NaNaNaNaNaNaNaNaNaNaNaNaNaNaNaNaa(lp1115
NaNaNaNaNaNaNaNaNaNaNaNaNaNaNaNaa(lp1116
NaNaNaNaNaNaNag9
(g13
S'r\x1c\xc7q\x1cGK\xc0'
p1117
tp1118
Rp1119
aNaNaNaNaNaNaNaNaa(lp1120
NaNaNaNaNaNaNaNaNaNaNaNaNaNaNaNaa(lp1121
NaNaNaNaNaNaNaNaNaNaNaNaNaNaNaNaa(lp1122
NaNaNaNaNaNaNaNaNaNaNaNaNaNaNaNaa(lp1123
NaNaNaNaNaNaNaNaNaNaNaNaNaNaNaNaa(lp1124
NaNaNaNaNaNaNaNaNaNaNaNaNaNaNaNaa(lp1125
NaNaNaNaNaNaNaNaNaNaNaNaNaNaNaNaa(lp1126
NaNaNaNaNaNaNaNaNaNaNaNaNaNaNaNaasS'10:08:b1:7a:8e:9f'
p1127
(lp1128
(lp1129
NaNaNaNaNaNaNaNaNaNaNaNaNaNaNaNaa(lp1130
NaNaNaNaNaNaNaNaNaNaNaNaNaNaNaNaa(lp1131
NaNaNaNaNaNaNaNaNaNaNaNaNaNaNaNaa(lp1132
NaNaNaNaNaNaNaNaNaNaNaNaNaNaNaNaa(lp1133
NaNaNaNaNaNaNaNaNaNaNaNaNaNaNaNaa(lp1134
NaNaNaNaNaNaNaNaNaNaNaNaNaNaNaNaa(lp1135
NaNaNaNaNaNaNaNaNaNaNaNaNaNaNaNaa(lp1136
NaNaNaNaNaNaNaNaNaNaNaNaNaNaNaNaa(lp1137
NaNaNaNaNaNaNag9
(g13
S'UUUUU\xd5S\xc0'
p1138
tp1139
Rp1140
aNaNaNaNaNaNaNaNaa(lp1141
NaNaNaNaNaNaNaNaNaNaNaNaNaNaNaNaa(lp1142
NaNaNaNaNaNaNaNaNaNaNaNaNaNaNaNaa(lp1143
NaNaNaNaNaNaNaNaNaNaNaNaNaNaNaNaa(lp1144
NaNaNaNaNaNaNaNaNaNaNaNaNaNaNaNaa(lp1145
NaNaNaNaNaNaNaNaNaNaNaNaNaNaNaNaa(lp1146
NaNaNaNaNaNaNaNaNaNaNaNaNaNaNaNaa(lp1147
NaNaNaNaNaNaNaNaNaNaNaNaNaNaNaNaasS'00:14:d1:9f:6e:18'
p1148
(lp1149
(lp1150
NaNaNaNaNaNaNaNaNaNaNaNaNaNaNaNaa(lp1151
NaNaNaNaNaNaNaNaNaNaNaNaNaNaNaNaa(lp1152
NaNaNaNaNaNaNaNaNaNaNaNaNaNaNaNaa(lp1153
NaNaNaNaNaNaNaNaNaNaNaNaNaNaNaNaa(lp1154
NaNaNaNaNaNaNaNaNaNaNaNaNaNaNaNaa(lp1155
NaNaNaNaNaNag9
(g13
S'\x00\x00\x00\x00\x00\x00U\xc0'
p1156
tp1157
Rp1158
aNaNaNaNaNaNaNaNaNaa(lp1159
NaNaNaNaNaNaNaNaNaNaNaNaNaNaNaNaa(lp1160
NaNaNaNaNaNaNaNaNaNaNaNaNaNaNaNaa(lp1161
NaNaNaNaNaNaNag9
(g13
S'UUUUUUU\xc0'
p1162
tp1163
Rp1164
aNaNaNaNaNaNaNaNaa(lp1165
NaNaNaNaNaNaNaNaNaNaNaNaNaNaNaNaa(lp1166
NaNaNaNaNaNaNaNaNaNaNaNaNaNaNaNaa(lp1167
NaNaNaNaNaNaNaNaNaNaNaNaNaNaNaNaa(lp1168
NaNaNaNaNaNaNaNaNaNaNaNaNaNaNaNaa(lp1169
NaNaNaNaNaNaNaNaNaNaNaNaNaNaNaNaa(lp1170
NaNaNaNaNaNaNaNaNaNaNaNaNaNaNaNaa(lp1171
NaNaNaNaNaNaNaNaNaNaNaNaNaNaNaNaasS'00:22:6b:42:04:d0'
p1172
(lp1173
(lp1174
NaNaNaNaNaNaNaNaNaNaNaNaNaNaNaNaa(lp1175
NaNaNaNaNaNaNaNaNaNaNaNaNaNaNaNaa(lp1176
NaNaNaNaNaNaNaNaNaNaNaNaNaNaNaNaa(lp1177
NaNaNaNaNaNaNaNaNaNaNaNaNaNaNaNaa(lp1178
NaNaNaNaNaNaNaNaNaNaNaNaNaNaNaNaa(lp1179
NaNaNaNaNaNag9
(g13
S'\x9a\x99\x99\x99\x99\x99U\xc0'
p1180
tp1181
Rp1182
aNaNaNaNaNaNaNaNaNaa(lp1183
NaNaNaNaNaNaNaNaNaNaNaNaNaNaNaNaa(lp1184
NaNaNaNaNaNaNaNaNaNaNaNaNaNaNaNaa(lp1185
NaNaNaNaNaNaNag9
(g13
S'\x00\x00\x00\x00\x000U\xc0'
p1186
tp1187
Rp1188
aNaNaNaNaNaNaNaNaa(lp1189
NaNaNaNaNaNaNaNaNaNaNaNaNaNaNaNaa(lp1190
NaNaNaNaNaNaNaNaNaNaNaNaNaNaNaNaa(lp1191
NaNaNaNaNaNaNaNaNaNaNaNaNaNaNaNaa(lp1192
NaNaNaNaNaNaNaNaNaNaNaNaNaNaNaNaa(lp1193
NaNaNaNaNaNaNaNaNaNaNaNaNaNaNaNaa(lp1194
NaNaNaNaNaNaNaNaNaNaNaNaNaNaNaNaa(lp1195
NaNaNaNaNaNaNaNaNaNaNaNaNaNaNaNaasS'00:24:6c:a9:ee:a1'
p1196
(lp1197
(lp1198
NaNaNaNaNaNaNaNaNaNaNaNaNaNaNaNaa(lp1199
NaNaNaNaNaNaNaNaNaNaNaNaNaNaNaNaa(lp1200
NaNaNaNaNaNaNaNaNaNaNaNaNaNaNaNaa(lp1201
NaNaNaNaNaNaNaNaNaNaNaNaNaNaNaNaa(lp1202
NaNaNaNaNaNaNaNaNaNaNaNaNaNaNaNaa(lp1203
NaNaNaNaNaNag9
(g13
S'\x9a\x99\x99\x99\x99YU\xc0'
p1204
tp1205
Rp1206
aNaNaNaNaNaNaNaNaNaa(lp1207
NaNaNaNaNaNaNaNaNaNaNaNaNaNaNaNaa(lp1208
NaNaNaNaNaNaNaNaNaNaNaNaNaNaNaNaa(lp1209
NaNaNaNaNaNaNaNaNaNaNaNaNaNaNaNaa(lp1210
NaNaNaNaNaNaNaNaNaNaNaNaNaNaNaNaa(lp1211
NaNaNaNaNaNaNaNaNaNaNaNaNaNaNaNaa(lp1212
NaNaNaNaNaNaNaNaNaNaNaNaNaNaNaNaa(lp1213
NaNaNaNaNaNaNaNaNaNaNaNaNaNaNaNaa(lp1214
NaNaNaNaNaNaNaNaNaNaNaNaNaNaNaNaa(lp1215
NaNaNaNaNaNaNaNaNaNaNaNaNaNaNaNaa(lp1216
NaNaNaNaNaNaNaNaNaNaNaNaNaNaNaNaasS'00:24:6c:a9:ee:a2'
p1217
(lp1218
(lp1219
NaNaNaNaNaNaNaNaNaNaNaNaNaNaNaNaa(lp1220
NaNaNaNaNaNaNaNaNaNaNaNaNaNaNaNaa(lp1221
NaNaNaNaNaNaNaNaNaNaNaNaNaNaNaNaa(lp1222
NaNaNaNaNaNaNaNaNaNaNaNaNaNaNaNaa(lp1223
NaNaNaNaNaNaNaNaNaNaNaNaNaNaNaNaa(lp1224
NaNaNaNaNaNag9
(g13
S'Y\xc8B\x16\xb2PU\xc0'
p1225
tp1226
Rp1227
aNaNaNaNaNaNaNaNaNaa(lp1228
NaNaNaNaNaNaNaNaNaNaNaNaNaNaNaNaa(lp1229
NaNaNaNaNaNaNaNaNaNaNaNaNaNaNaNaa(lp1230
NaNaNaNaNaNaNag9
(g13
S'UUUUU\x15U\xc0'
p1231
tp1232
Rp1233
aNaNaNaNaNaNaNaNaa(lp1234
NaNaNaNaNaNaNaNaNaNaNaNaNaNaNaNaa(lp1235
NaNaNaNaNaNaNaNaNaNaNaNaNaNaNaNaa(lp1236
NaNaNaNaNaNaNaNaNaNaNaNaNaNaNaNaa(lp1237
NaNaNaNaNaNaNaNaNaNaNaNaNaNaNaNaa(lp1238
NaNaNaNaNaNaNaNaNaNaNaNaNaNaNaNaa(lp1239
NaNaNaNaNaNaNaNaNaNaNaNaNaNaNaNaa(lp1240
NaNaNaNaNaNaNaNaNaNaNaNaNaNaNaNaasS'60:6c:66:bb:c7:a9'
p1241
(lp1242
(lp1243
NaNaNaNaNaNaNaNaNaNaNaNaNaNaNaNaa(lp1244
NaNaNaNaNaNaNaNaNaNaNaNaNaNaNaNaa(lp1245
NaNaNaNaNaNaNaNaNaNaNaNaNaNaNaNaa(lp1246
NaNaNaNaNaNaNaNaNaNaNaNaNaNaNaNaa(lp1247
NaNaNaNaNaNaNaNaNaNaNaNaNaNaNaNaa(lp1248
NaNaNaNaNaNag9
(g13
S'\x1c\xc7q\x1c\xc7qO\xc0'
p1249
tp1250
Rp1251
aNaNaNaNaNaNaNaNaNaa(lp1252
NaNaNaNaNaNaNaNaNaNaNaNaNaNaNaNaa(lp1253
NaNaNaNaNaNaNaNaNaNaNaNaNaNaNaNaa(lp1254
NaNaNaNaNaNaNaNaNaNaNaNaNaNaNaNaa(lp1255
NaNaNaNaNaNaNaNaNaNaNaNaNaNaNaNaa(lp1256
NaNaNaNaNaNaNaNaNaNaNaNaNaNaNaNaa(lp1257
NaNaNaNaNaNaNaNaNaNaNaNaNaNaNaNaa(lp1258
NaNaNaNaNaNaNaNaNaNaNaNaNaNaNaNaa(lp1259
NaNaNaNaNaNaNaNaNaNaNaNaNaNaNaNaa(lp1260
NaNaNaNaNaNaNaNaNaNaNaNaNaNaNaNaa(lp1261
NaNaNaNaNaNaNaNaNaNaNaNaNaNaNaNaasS'1c:99:4c:ba:67:20'
p1262
(lp1263
(lp1264
NaNaNaNaNaNaNaNaNaNaNaNaNaNaNaNaa(lp1265
NaNaNaNaNaNaNaNaNaNaNaNaNaNaNaNaa(lp1266
NaNaNaNaNaNaNaNaNaNaNaNaNaNaNaNaa(lp1267
NaNaNaNaNaNaNaNaNaNaNaNaNaNaNaNaa(lp1268
NaNaNaNaNaNaNaNaNaNaNaNaNaNaNaNaa(lp1269
NaNaNaNaNaNaNaNaNaNaNaNaNaNaNaNaa(lp1270
NaNaNaNaNaNaNaNaNaNaNaNaNaNaNaNaa(lp1271
NaNaNaNaNaNaNaNaNaNaNaNaNaNaNaNaa(lp1272
NaNaNaNaNaNaNag9
(g13
S'\x00\x00\x00\x00\x00\xe0U\xc0'
p1273
tp1274
Rp1275
aNaNaNaNaNaNaNaNaa(lp1276
NaNaNaNaNaNaNaNaNaNaNaNaNaNaNaNaa(lp1277
NaNaNaNaNaNaNaNaNaNaNaNaNaNaNaNaa(lp1278
NaNaNaNaNaNaNaNaNaNaNaNaNaNaNaNaa(lp1279
NaNaNaNaNaNaNaNaNaNaNaNaNaNaNaNaa(lp1280
NaNaNaNaNaNaNaNaNaNaNaNaNaNaNaNaa(lp1281
NaNaNaNaNaNaNaNaNaNaNaNaNaNaNaNaa(lp1282
NaNaNaNaNaNaNaNaNaNaNaNaNaNaNaNaasS'00:24:6c:a9:e3:40'
p1283
(lp1284
(lp1285
NaNaNaNaNaNaNaNaNaNaNaNaNaNaNaNaa(lp1286
NaNaNaNaNaNaNaNaNaNaNaNaNaNaNaNaa(lp1287
NaNaNaNaNaNaNaNaNaNaNaNaNaNaNaNaa(lp1288
NaNaNaNaNaNaNaNaNaNaNaNaNaNaNaNaa(lp1289
NaNaNaNaNaNaNaNaNaNaNaNaNaNaNaNaa(lp1290
NaNaNaNaNaNag9
(g13
S'\x00\x00\x00\x00\x00\x80U\xc0'
p1291
tp1292
Rp1293
aNaNaNaNaNaNaNaNaNaa(lp1294
NaNaNaNaNaNaNaNaNaNaNaNaNaNaNaNaa(lp1295
NaNaNaNaNaNaNaNaNaNaNaNaNaNaNaNaa(lp1296
NaNaNaNaNaNaNaNaNaNaNaNaNaNaNaNaa(lp1297
NaNaNaNaNaNaNaNaNaNaNaNaNaNaNaNaa(lp1298
NaNaNaNaNaNaNaNaNaNaNaNaNaNaNaNaa(lp1299
NaNaNaNaNaNaNaNaNaNaNaNaNaNaNaNaa(lp1300
NaNaNaNaNaNaNaNaNaNaNaNaNaNaNaNaa(lp1301
NaNaNaNaNaNaNaNaNaNaNaNaNaNaNaNaa(lp1302
NaNaNaNaNaNaNaNaNaNaNaNaNaNaNaNaa(lp1303
NaNaNaNaNaNaNaNaNaNaNaNaNaNaNaNaasS'00:24:6c:a9:e3:41'
p1304
(lp1305
(lp1306
NaNaNaNaNaNaNaNaNaNaNaNaNaNaNaNaa(lp1307
NaNaNaNaNaNaNaNaNaNaNaNaNaNaNaNaa(lp1308
NaNaNaNaNaNaNaNaNaNaNaNaNaNaNaNaa(lp1309
NaNaNaNaNaNaNaNaNaNaNaNaNaNaNaNaa(lp1310
NaNaNaNaNaNaNaNaNaNaNaNaNaNaNaNaa(lp1311
NaNaNaNaNaNag9
(g13
S'UUUUU\xd5T\xc0'
p1312
tp1313
Rp1314
aNaNaNaNaNaNaNaNaNaa(lp1315
NaNaNaNaNaNaNaNaNaNaNaNaNaNaNaNaa(lp1316
NaNaNaNaNaNaNaNaNaNaNaNaNaNaNaNaa(lp1317
NaNaNaNaNaNaNag9
(g13
S'\x00\x00\x00\x00\x00\xc0T\xc0'
p1318
tp1319
Rp1320
aNaNaNaNaNaNaNaNaa(lp1321
NaNaNaNaNaNaNaNaNaNaNaNaNaNaNaNaa(lp1322
NaNaNaNaNaNaNaNaNaNaNaNaNaNaNaNaa(lp1323
NaNaNaNaNaNaNaNaNaNaNaNaNaNaNaNaa(lp1324
NaNaNaNaNaNaNaNaNaNaNaNaNaNaNaNaa(lp1325
NaNaNaNaNaNaNaNaNaNaNaNaNaNaNaNaa(lp1326
NaNaNaNaNaNaNaNaNaNaNaNaNaNaNaNaa(lp1327
NaNaNaNaNaNaNaNaNaNaNaNaNaNaNaNaasS'00:1a:1e:35:fd:01'
p1328
(lp1329
(lp1330
NaNaNaNaNaNaNaNaNaNaNaNaNaNaNaNaa(lp1331
NaNaNaNaNaNaNaNaNaNaNaNaNaNaNaNaa(lp1332
NaNaNaNaNaNaNaNaNaNaNaNaNaNaNaNaa(lp1333
NaNaNaNaNaNaNaNaNaNaNaNaNaNaNaNaa(lp1334
NaNaNaNaNaNaNaNaNaNaNaNaNaNaNaNaa(lp1335
NaNaNaNaNaNag9
(g13
S'fffff&U\xc0'
p1336
tp1337
Rp1338
aNaNaNaNaNaNaNaNaNaa(lp1339
NaNaNaNaNaNaNaNaNaNaNaNaNaNaNaNaa(lp1340
NaNaNaNaNaNaNaNaNaNaNaNaNaNaNaNaa(lp1341
NaNaNaNaNaNaNag9
(g13
S'\x00\x00\x00\x00\x00\xc0T\xc0'
p1342
tp1343
Rp1344
aNaNaNaNaNaNaNaNaa(lp1345
NaNaNaNaNaNaNaNaNaNaNaNaNaNaNaNaa(lp1346
NaNaNaNaNaNaNaNaNaNaNaNaNaNaNaNaa(lp1347
NaNaNaNaNaNaNaNaNaNaNaNaNaNaNaNaa(lp1348
NaNaNaNaNaNaNaNaNaNaNaNaNaNaNaNaa(lp1349
NaNaNaNaNaNaNaNaNaNaNaNaNaNaNaNaa(lp1350
NaNaNaNaNaNaNaNaNaNaNaNaNaNaNaNaa(lp1351
NaNaNaNaNaNaNaNaNaNaNaNaNaNaNaNaasS'00:1a:1e:35:fd:00'
p1352
(lp1353
(lp1354
NaNaNaNaNaNaNaNaNaNaNaNaNaNaNaNaa(lp1355
NaNaNaNaNaNaNaNaNaNaNaNaNaNaNaNaa(lp1356
NaNaNaNaNaNaNaNaNaNaNaNaNaNaNaNaa(lp1357
NaNaNaNaNaNaNaNaNaNaNaNaNaNaNaNaa(lp1358
NaNaNaNaNaNaNaNaNaNaNaNaNaNaNaNaa(lp1359
NaNaNaNaNaNag9
(g13
S'\x00\x00\x00\x00\x00@U\xc0'
p1360
tp1361
Rp1362
aNaNaNaNaNaNaNaNaNaa(lp1363
NaNaNaNaNaNaNaNaNaNaNaNaNaNaNaNaa(lp1364
NaNaNaNaNaNaNaNaNaNaNaNaNaNaNaNaa(lp1365
NaNaNaNaNaNaNag9
(g13
S'\x00\x00\x00\x00\x00\x80T\xc0'
p1366
tp1367
Rp1368
aNaNaNaNaNaNaNaNaa(lp1369
NaNaNaNaNaNaNaNaNaNaNaNaNaNaNaNaa(lp1370
NaNaNaNaNaNaNaNaNaNaNaNaNaNaNaNaa(lp1371
NaNaNaNaNaNaNaNaNaNaNaNaNaNaNaNaa(lp1372
NaNaNaNaNaNaNaNaNaNaNaNaNaNaNaNaa(lp1373
NaNaNaNaNaNaNaNaNaNaNaNaNaNaNaNaa(lp1374
NaNaNaNaNaNaNaNaNaNaNaNaNaNaNaNaa(lp1375
NaNaNaNaNaNaNaNaNaNaNaNaNaNaNaNaasS'd0:a6:37:60:e6:3f'
p1376
(lp1377
(lp1378
NaNaNaNaNaNaNaNaNaNaNaNaNaNaNaNaa(lp1379
NaNaNaNaNaNaNaNaNaNaNaNaNaNaNaNaa(lp1380
NaNaNaNaNaNaNaNaNaNaNaNaNaNaNaNaa(lp1381
NaNaNaNaNaNaNaNaNaNaNaNaNaNaNaNaa(lp1382
NaNaNaNaNaNaNaNaNaNaNaNaNaNaNaNaa(lp1383
NaNaNaNaNaNag9
(g13
S'\x00\x00\x00\x00\x00\x00Q\xc0'
p1384
tp1385
Rp1386
aNaNaNaNaNaNaNaNaNaa(lp1387
NaNaNaNaNaNaNaNaNaNaNaNaNaNaNaNaa(lp1388
NaNaNaNaNaNaNaNaNaNaNaNaNaNaNaNaa(lp1389
NaNaNaNaNaNaNaNaNaNaNaNaNaNaNaNaa(lp1390
NaNaNaNaNaNaNaNaNaNaNaNaNaNaNaNaa(lp1391
NaNaNaNaNaNaNaNaNaNaNaNaNaNaNaNaa(lp1392
NaNaNaNaNaNaNaNaNaNaNaNaNaNaNaNaa(lp1393
NaNaNaNaNaNaNaNaNaNaNaNaNaNaNaNaa(lp1394
NaNaNaNaNaNaNaNaNaNaNaNaNaNaNaNaa(lp1395
NaNaNaNaNaNaNaNaNaNaNaNaNaNaNaNaa(lp1396
NaNaNaNaNaNaNaNaNaNaNaNaNaNaNaNaasS'f4:37:b7:21:19:99'
p1397
(lp1398
(lp1399
NaNaNaNaNaNaNaNaNaNaNaNaNaNaNaNaa(lp1400
NaNaNaNaNaNaNaNaNaNaNaNaNaNaNaNaa(lp1401
NaNaNaNaNaNaNaNaNaNaNaNaNaNaNaNaa(lp1402
NaNaNaNaNaNaNaNaNaNaNaNaNaNaNaNaa(lp1403
NaNaNaNaNaNaNaNaNaNaNaNaNaNaNaNaa(lp1404
NaNaNaNaNaNag9
(g13
S'\x00\x00\x00\x00\x00\x00U\xc0'
p1405
tp1406
Rp1407
aNaNaNaNaNaNaNaNaNaa(lp1408
NaNaNaNaNaNaNaNaNaNaNaNaNaNaNaNaa(lp1409
NaNaNaNaNaNaNaNaNaNaNaNaNaNaNaNaa(lp1410
NaNaNaNaNaNaNaNaNaNaNaNaNaNaNaNaa(lp1411
NaNaNaNaNaNaNaNaNaNaNaNaNaNaNaNaa(lp1412
NaNaNaNaNaNaNaNaNaNaNaNaNaNaNaNaa(lp1413
NaNaNaNaNaNaNaNaNaNaNaNaNaNaNaNaa(lp1414
NaNaNaNaNaNaNaNaNaNaNaNaNaNaNaNaa(lp1415
NaNaNaNaNaNaNaNaNaNaNaNaNaNaNaNaa(lp1416
NaNaNaNaNaNaNaNaNaNaNaNaNaNaNaNaa(lp1417
NaNaNaNaNaNaNaNaNaNaNaNaNaNaNaNaasS'08:3e:8e:2d:0b:9f'
p1418
(lp1419
(lp1420
NaNaNaNaNaNaNaNaNaNaNaNaNaNaNaNaa(lp1421
NaNaNaNaNaNaNaNaNaNaNaNaNaNaNaNaa(lp1422
NaNaNaNaNaNaNaNaNaNaNaNaNaNaNaNaa(lp1423
NaNaNaNaNaNaNaNaNaNaNaNaNaNaNaNaa(lp1424
NaNaNaNaNaNaNaNaNaNaNaNaNaNaNaNaa(lp1425
NaNaNaNaNaNag9
(g13
S'\x00\x00\x00\x00\x00`T\xc0'
p1426
tp1427
Rp1428
aNaNaNaNaNaNaNaNaNaa(lp1429
NaNaNaNaNaNaNaNaNaNaNaNaNaNaNaNaa(lp1430
NaNaNaNaNaNaNaNaNaNaNaNaNaNaNaNaa(lp1431
NaNaNaNaNaNaNaNaNaNaNaNaNaNaNaNaa(lp1432
NaNaNaNaNaNaNaNaNaNaNaNaNaNaNaNaa(lp1433
NaNaNaNaNaNaNaNaNaNaNaNaNaNaNaNaa(lp1434
NaNaNaNaNaNaNaNaNaNaNaNaNaNaNaNaa(lp1435
NaNaNaNaNaNaNaNaNaNaNaNaNaNaNaNaa(lp1436
NaNaNaNaNaNaNaNaNaNaNaNaNaNaNaNaa(lp1437
NaNaNaNaNaNaNaNaNaNaNaNaNaNaNaNaa(lp1438
NaNaNaNaNaNaNaNaNaNaNaNaNaNaNaNaasS'ec:35:86:3b:4a:9c'
p1439
(lp1440
(lp1441
NaNaNaNaNaNaNaNaNaNaNaNaNaNaNaNaa(lp1442
NaNaNaNaNaNaNaNaNaNaNaNaNaNaNaNaa(lp1443
NaNaNaNaNaNaNaNaNaNaNaNaNaNaNaNaa(lp1444
NaNaNaNaNaNaNaNaNaNaNaNaNaNaNaNaa(lp1445
NaNaNaNaNaNaNaNaNaNaNaNaNaNaNaNaa(lp1446
NaNaNaNaNaNaNaNaNaNaNaNaNaNaNaNaa(lp1447
NaNaNaNaNaNaNaNaNaNaNaNaNaNaNaNaa(lp1448
NaNaNaNaNaNaNaNaNaNaNaNaNaNaNaNaa(lp1449
NaNaNaNaNaNaNag9
(g13
S'\x00\x00\x00\x00\x00\x80N\xc0'
p1450
tp1451
Rp1452
aNaNaNaNaNaNaNaNaa(lp1453
NaNaNaNaNaNaNaNaNaNaNaNaNaNaNaNaa(lp1454
NaNaNaNaNaNaNaNaNaNaNaNaNaNaNaNaa(lp1455
NaNaNaNaNaNaNaNaNaNaNaNaNaNaNaNaa(lp1456
NaNaNaNaNaNaNaNaNaNaNaNaNaNaNaNaa(lp1457
NaNaNaNaNaNaNaNaNaNaNaNaNaNaNaNaa(lp1458
NaNaNaNaNaNaNaNaNaNaNaNaNaNaNaNaa(lp1459
NaNaNaNaNaNaNaNaNaNaNaNaNaNaNaNaasS'58:6d:8f:de:b2:fb'
p1460
(lp1461
(lp1462
NaNaNaNaNaNaNaNaNaNaNaNaNaNaNaNaa(lp1463
NaNaNaNaNaNaNaNaNaNaNaNaNaNaNaNaa(lp1464
NaNaNaNaNaNaNaNaNaNaNaNaNaNaNaNaa(lp1465
NaNaNaNaNaNaNaNaNaNaNaNaNaNaNaNaa(lp1466
NaNaNaNaNaNaNaNaNaNaNaNaNaNaNaNaa(lp1467
NaNaNaNaNaNag9
(g13
S'\xab\xaa\xaa\xaa\xaa\xdaS\xc0'
p1468
tp1469
Rp1470
aNaNaNaNaNaNaNaNaNaa(lp1471
NaNaNaNaNaNaNaNaNaNaNaNaNaNaNaNaa(lp1472
NaNaNaNaNaNaNaNaNaNaNaNaNaNaNaNaa(lp1473
NaNaNaNaNaNaNag9
(g13
S'\xab\xaa\xaa\xaa\xaajS\xc0'
p1474
tp1475
Rp1476
aNaNaNaNaNaNaNaNaa(lp1477
NaNaNaNaNaNaNaNaNaNaNaNaNaNaNaNaa(lp1478
NaNaNaNaNaNaNaNaNaNaNaNaNaNaNaNaa(lp1479
NaNaNaNaNaNaNaNaNaNaNaNaNaNaNaNaa(lp1480
NaNaNaNaNaNaNaNaNaNaNaNaNaNaNaNaa(lp1481
NaNaNaNaNaNaNaNaNaNaNaNaNaNaNaNaa(lp1482
NaNaNaNaNaNaNaNaNaNaNaNaNaNaNaNaa(lp1483
NaNaNaNaNaNaNaNaNaNaNaNaNaNaNaNaasS'd8:eb:97:ac:5e:78'
p1484
(lp1485
(lp1486
NaNaNaNaNaNaNaNaNaNaNaNaNaNaNaNaa(lp1487
NaNaNaNaNaNaNaNaNaNaNaNaNaNaNaNaa(lp1488
NaNaNaNaNaNaNaNaNaNaNaNaNaNaNaNaa(lp1489
NaNaNaNaNaNaNaNaNaNaNaNaNaNaNaNaa(lp1490
NaNaNaNaNaNaNaNaNaNaNaNaNaNaNaNaa(lp1491
NaNaNaNaNaNag9
(g13
S'\xca\x9a\xb2\xa6\xac9S\xc0'
p1492
tp1493
Rp1494
aNaNaNaNaNaNaNaNaNaa(lp1495
NaNaNaNaNaNaNaNaNaNaNaNaNaNaNaNaa(lp1496
NaNaNaNaNaNaNaNaNaNaNaNaNaNaNaNaa(lp1497
NaNaNaNaNaNaNag9
(g13
S'\xde\xce\x90\x98\xb7sR\xc0'
p1498
tp1499
Rp1500
aNaNaNaNaNaNaNaNaa(lp1501
NaNaNaNaNaNaNaNaNaNaNaNaNaNaNaNaa(lp1502
NaNaNaNaNaNaNaNaNaNaNaNaNaNaNaNaa(lp1503
NaNaNaNaNaNaNaNaNaNaNaNaNaNaNaNaa(lp1504
NaNaNaNaNaNaNaNaNaNaNaNaNaNaNaNaa(lp1505
NaNaNaNaNaNaNaNaNaNaNaNaNaNaNaNaa(lp1506
NaNaNaNaNaNaNaNaNaNaNaNaNaNaNaNaa(lp1507
NaNaNaNaNaNaNaNaNaNaNaNaNaNaNaNaasS'98:f1:70:96:4f:3e'
p1508
(lp1509
(lp1510
NaNaNaNaNaNaNaNaNaNaNaNaNaNaNaNaa(lp1511
NaNaNaNaNaNaNaNaNaNaNaNaNaNaNaNaa(lp1512
NaNaNaNaNaNaNaNaNaNaNaNaNaNaNaNaa(lp1513
NaNaNaNaNaNaNaNaNaNaNaNaNaNaNaNaa(lp1514
NaNaNaNaNaNaNaNaNaNaNaNaNaNaNaNaa(lp1515
NaNaNaNaNaNaNaNaNaNaNaNaNaNaNaNaa(lp1516
NaNaNaNaNaNaNaNaNaNaNaNaNaNaNaNaa(lp1517
NaNaNaNaNaNaNaNaNaNaNaNaNaNaNaNaa(lp1518
NaNaNaNaNaNaNag9
(g13
S'UUUUU\x95T\xc0'
p1519
tp1520
Rp1521
aNaNaNaNaNaNaNaNaa(lp1522
NaNaNaNaNaNaNaNaNaNaNaNaNaNaNaNaa(lp1523
NaNaNaNaNaNaNaNaNaNaNaNaNaNaNaNaa(lp1524
NaNaNaNaNaNaNaNaNaNaNaNaNaNaNaNaa(lp1525
NaNaNaNaNaNaNaNaNaNaNaNaNaNaNaNaa(lp1526
NaNaNaNaNaNaNaNaNaNaNaNaNaNaNaNaa(lp1527
NaNaNaNaNaNaNaNaNaNaNaNaNaNaNaNaa(lp1528
NaNaNaNaNaNaNaNaNaNaNaNaNaNaNaNaasS'8c:2d:aa:5d:02:a1'
p1529
(lp1530
(lp1531
NaNaNaNaNaNaNaNaNaNaNaNaNaNaNaNaa(lp1532
NaNaNaNaNaNaNaNaNaNaNaNaNaNaNaNaa(lp1533
NaNaNaNaNaNaNaNaNaNaNaNaNaNaNaNaa(lp1534
NaNaNaNaNaNaNaNaNaNaNaNaNaNaNaNaa(lp1535
NaNaNaNaNaNaNaNaNaNaNaNaNaNaNaNaa(lp1536
NaNaNaNaNaNag9
(g13
S'\x8e\xe38\x8e\xe38L\xc0'
p1537
tp1538
Rp1539
aNaNaNaNaNaNaNaNaNaa(lp1540
NaNaNaNaNaNaNaNaNaNaNaNaNaNaNaNaa(lp1541
NaNaNaNaNaNaNaNaNaNaNaNaNaNaNaNaa(lp1542
NaNaNaNaNaNaNag9
(g13
S'\x00\x00\x00\x00\x00\x00H\xc0'
p1543
tp1544
Rp1545
aNaNaNaNaNaNaNaNaa(lp1546
NaNaNaNaNaNaNaNaNaNaNaNaNaNaNaNaa(lp1547
NaNaNaNaNaNaNaNaNaNaNaNaNaNaNaNaa(lp1548
NaNaNaNaNaNaNaNaNaNaNaNaNaNaNaNaa(lp1549
NaNaNaNaNaNaNaNaNaNaNaNaNaNaNaNaa(lp1550
NaNaNaNaNaNaNaNaNaNaNaNaNaNaNaNaa(lp1551
NaNaNaNaNaNaNaNaNaNaNaNaNaNaNaNaa(lp1552
NaNaNaNaNaNaNaNaNaNaNaNaNaNaNaNaasS'00:1f:5b:c2:93:e4'
p1553
(lp1554
(lp1555
NaNaNaNaNaNaNaNaNaNaNaNaNaNaNaNaa(lp1556
NaNaNaNaNaNaNaNaNaNaNaNaNaNaNaNaa(lp1557
NaNaNaNaNaNaNaNaNaNaNaNaNaNaNaNaa(lp1558
NaNaNaNaNaNaNaNaNaNaNaNaNaNaNaNaa(lp1559
NaNaNaNaNaNaNaNaNaNaNaNaNaNaNaNaa(lp1560
NaNaNaNaNaNag9
(g13
S'ffffffT\xc0'
p1561
tp1562
Rp1563
aNaNaNaNaNaNaNaNaNaa(lp1564
NaNaNaNaNaNaNaNaNaNaNaNaNaNaNaNaa(lp1565
NaNaNaNaNaNaNaNaNaNaNaNaNaNaNaNaa(lp1566
NaNaNaNaNaNaNag9
(g13
S'\xd1E\x17]tqT\xc0'
p1567
tp1568
Rp1569
aNaNaNaNaNaNaNaNaa(lp1570
NaNaNaNaNaNaNaNaNaNaNaNaNaNaNaNaa(lp1571
NaNaNaNaNaNaNaNaNaNaNaNaNaNaNaNaa(lp1572
NaNaNaNaNaNaNaNaNaNaNaNaNaNaNaNaa(lp1573
NaNaNaNaNaNaNaNaNaNaNaNaNaNaNaNaa(lp1574
NaNaNaNaNaNaNaNaNaNaNaNaNaNaNaNaa(lp1575
NaNaNaNaNaNaNaNaNaNaNaNaNaNaNaNaa(lp1576
NaNaNaNaNaNaNaNaNaNaNaNaNaNaNaNaasS'00:00:48:20:91:a9'
p1577
(lp1578
(lp1579
NaNaNaNaNaNaNaNaNaNaNaNaNaNaNaNaa(lp1580
NaNaNaNaNaNaNaNaNaNaNaNaNaNaNaNaa(lp1581
NaNaNaNaNaNaNaNaNaNaNaNaNaNaNaNaa(lp1582
NaNaNaNaNaNaNaNaNaNaNaNaNaNaNaNaa(lp1583
NaNaNaNaNaNaNaNaNaNaNaNaNaNaNaNaa(lp1584
NaNaNaNaNaNag9
(g13
S'\xb7m\xdb\xb6m[I\xc0'
p1585
tp1586
Rp1587
aNaNaNaNaNaNaNaNaNaa(lp1588
NaNaNaNaNaNaNaNaNaNaNaNaNaNaNaNaa(lp1589
NaNaNaNaNaNaNaNaNaNaNaNaNaNaNaNaa(lp1590
NaNaNaNaNaNaNag9
(g13
S'F\x17]t\xd1\x05G\xc0'
p1591
tp1592
Rp1593
aNaNaNaNaNaNaNaNaa(lp1594
NaNaNaNaNaNaNaNaNaNaNaNaNaNaNaNaa(lp1595
NaNaNaNaNaNaNaNaNaNaNaNaNaNaNaNaa(lp1596
NaNaNaNaNaNaNaNaNaNaNaNaNaNaNaNaa(lp1597
NaNaNaNaNaNaNaNaNaNaNaNaNaNaNaNaa(lp1598
NaNaNaNaNaNaNaNaNaNaNaNaNaNaNaNaa(lp1599
NaNaNaNaNaNaNaNaNaNaNaNaNaNaNaNaa(lp1600
NaNaNaNaNaNaNaNaNaNaNaNaNaNaNaNaasS'1c:65:9d:99:17:e4'
p1601
(lp1602
(lp1603
NaNaNaNaNaNaNaNaNaNaNaNaNaNaNaNaa(lp1604
NaNaNaNaNaNaNaNaNaNaNaNaNaNaNaNaa(lp1605
NaNaNaNaNaNaNaNaNaNaNaNaNaNaNaNaa(lp1606
NaNaNaNaNaNaNaNaNaNaNaNaNaNaNaNaa(lp1607
NaNaNaNaNaNaNaNaNaNaNaNaNaNaNaNaa(lp1608
NaNaNaNaNaNag9
(g13
S'\x9a\x99\x99\x99\x99\x19O\xc0'
p1609
tp1610
Rp1611
aNaNaNaNaNaNaNaNaNaa(lp1612
NaNaNaNaNaNaNaNaNaNaNaNaNaNaNaNaa(lp1613
NaNaNaNaNaNaNaNaNaNaNaNaNaNaNaNaa(lp1614
NaNaNaNaNaNaNag9
(g13
S'\x00\x00\x00\x00\x00\x80N\xc0'
p1615
tp1616
Rp1617
aNaNaNaNaNaNaNaNaa(lp1618
NaNaNaNaNaNaNaNaNaNaNaNaNaNaNaNaa(lp1619
NaNaNaNaNaNaNaNaNaNaNaNaNaNaNaNaa(lp1620
NaNaNaNaNaNaNaNaNaNaNaNaNaNaNaNaa(lp1621
NaNaNaNaNaNaNaNaNaNaNaNaNaNaNaNaa(lp1622
NaNaNaNaNaNaNaNaNaNaNaNaNaNaNaNaa(lp1623
NaNaNaNaNaNaNaNaNaNaNaNaNaNaNaNaa(lp1624
NaNaNaNaNaNaNaNaNaNaNaNaNaNaNaNaasS'68:09:27:4c:d8:92'
p1625
(lp1626
(lp1627
NaNaNaNaNaNaNaNaNaNaNaNaNaNaNaNaa(lp1628
NaNaNaNaNaNaNaNaNaNaNaNaNaNaNaNaa(lp1629
NaNaNaNaNaNaNaNaNaNaNaNaNaNaNaNaa(lp1630
NaNaNaNaNaNaNaNaNaNaNaNaNaNaNaNaa(lp1631
NaNaNaNaNaNaNaNaNaNaNaNaNaNaNaNaa(lp1632
NaNaNaNaNaNag9
(g13
S'\x00\x00\x00\x00\x00\xf0O\xc0'
p1633
tp1634
Rp1635
aNaNaNaNaNaNaNaNaNaa(lp1636
NaNaNaNaNaNaNaNaNaNaNaNaNaNaNaNaa(lp1637
NaNaNaNaNaNaNaNaNaNaNaNaNaNaNaNaa(lp1638
NaNaNaNaNaNaNag9
(g13
S'\x92$I\x92$\xe9L\xc0'
p1639
tp1640
Rp1641
aNaNaNaNaNaNaNaNaa(lp1642
NaNaNaNaNaNaNaNaNaNaNaNaNaNaNaNaa(lp1643
NaNaNaNaNaNaNaNaNaNaNaNaNaNaNaNaa(lp1644
NaNaNaNaNaNaNaNaNaNaNaNaNaNaNaNaa(lp1645
NaNaNaNaNaNaNaNaNaNaNaNaNaNaNaNaa(lp1646
NaNaNaNaNaNaNaNaNaNaNaNaNaNaNaNaa(lp1647
NaNaNaNaNaNaNaNaNaNaNaNaNaNaNaNaa(lp1648
NaNaNaNaNaNaNaNaNaNaNaNaNaNaNaNaasS'80:00:0b:76:61:0a'
p1649
(lp1650
(lp1651
NaNaNaNaNaNaNaNaNaNaNaNaNaNaNaNaa(lp1652
NaNaNaNaNaNaNaNaNaNaNaNaNaNaNaNaa(lp1653
NaNaNaNaNaNaNaNaNaNaNaNaNaNaNaNaa(lp1654
NaNaNaNaNaNaNaNaNaNaNaNaNaNaNaNaa(lp1655
NaNaNaNaNaNaNaNaNaNaNaNaNaNaNaNaa(lp1656
NaNaNaNaNaNag9
(g13
S'\x00\x00\x00\x00\x00\xe0R\xc0'
p1657
tp1658
Rp1659
aNaNaNaNaNaNaNaNaNaa(lp1660
NaNaNaNaNaNaNaNaNaNaNaNaNaNaNaNaa(lp1661
NaNaNaNaNaNaNaNaNaNaNaNaNaNaNaNaa(lp1662
NaNaNaNaNaNaNag9
(g13
S'\x00\x00\x00\x00\x00@R\xc0'
p1663
tp1664
Rp1665
aNaNaNaNaNaNaNaNaa(lp1666
NaNaNaNaNaNaNaNaNaNaNaNaNaNaNaNaa(lp1667
NaNaNaNaNaNaNaNaNaNaNaNaNaNaNaNaa(lp1668
NaNaNaNaNaNaNaNaNaNaNaNaNaNaNaNaa(lp1669
NaNaNaNaNaNaNaNaNaNaNaNaNaNaNaNaa(lp1670
NaNaNaNaNaNaNaNaNaNaNaNaNaNaNaNaa(lp1671
NaNaNaNaNaNaNaNaNaNaNaNaNaNaNaNaa(lp1672
NaNaNaNaNaNaNaNaNaNaNaNaNaNaNaNaasS'48:59:29:c4:c2:1f'
p1673
(lp1674
(lp1675
NaNaNaNaNaNaNaNaNaNaNaNaNaNaNaNaa(lp1676
NaNaNaNaNaNaNaNaNaNaNaNaNaNaNaNaa(lp1677
NaNaNaNaNaNaNaNaNaNaNaNaNaNaNaNaa(lp1678
NaNaNaNaNaNaNaNaNaNaNaNaNaNaNaNaa(lp1679
NaNaNaNaNaNaNaNaNaNaNaNaNaNaNaNaa(lp1680
NaNaNaNaNaNag9
(g13
S'\x00\x00\x00\x00\x00\xe0Q\xc0'
p1681
tp1682
Rp1683
aNaNaNaNaNaNaNaNaNaa(lp1684
NaNaNaNaNaNaNaNaNaNaNaNaNaNaNaNaa(lp1685
NaNaNaNaNaNaNaNaNaNaNaNaNaNaNaNaa(lp1686
NaNaNaNaNaNaNaNaNaNaNaNaNaNaNaNaa(lp1687
NaNaNaNaNaNaNaNaNaNaNaNaNaNaNaNaa(lp1688
NaNaNaNaNaNaNaNaNaNaNaNaNaNaNaNaa(lp1689
NaNaNaNaNaNaNaNaNaNaNaNaNaNaNaNaa(lp1690
NaNaNaNaNaNaNaNaNaNaNaNaNaNaNaNaa(lp1691
NaNaNaNaNaNaNaNaNaNaNaNaNaNaNaNaa(lp1692
NaNaNaNaNaNaNaNaNaNaNaNaNaNaNaNaa(lp1693
NaNaNaNaNaNaNaNaNaNaNaNaNaNaNaNaasS'70:3e:ac:1d:38:51'
p1694
(lp1695
(lp1696
NaNaNaNaNaNaNaNaNaNaNaNaNaNaNaNaa(lp1697
NaNaNaNaNaNaNaNaNaNaNaNaNaNaNaNaa(lp1698
NaNaNaNaNaNaNaNaNaNaNaNaNaNaNaNaa(lp1699
NaNaNaNaNaNaNaNaNaNaNaNaNaNaNaNaa(lp1700
NaNaNaNaNaNaNaNaNaNaNaNaNaNaNaNaa(lp1701
NaNaNaNaNaNag9
(g13
S'\x00\x00\x00\x00\x00\xc0T\xc0'
p1702
tp1703
Rp1704
aNaNaNaNaNaNaNaNaNaa(lp1705
NaNaNaNaNaNaNaNaNaNaNaNaNaNaNaNaa(lp1706
NaNaNaNaNaNaNaNaNaNaNaNaNaNaNaNaa(lp1707
NaNaNaNaNaNaNaNaNaNaNaNaNaNaNaNaa(lp1708
NaNaNaNaNaNaNaNaNaNaNaNaNaNaNaNaa(lp1709
NaNaNaNaNaNaNaNaNaNaNaNaNaNaNaNaa(lp1710
NaNaNaNaNaNaNaNaNaNaNaNaNaNaNaNaa(lp1711
NaNaNaNaNaNaNaNaNaNaNaNaNaNaNaNaa(lp1712
NaNaNaNaNaNaNaNaNaNaNaNaNaNaNaNaa(lp1713
NaNaNaNaNaNaNaNaNaNaNaNaNaNaNaNaa(lp1714
NaNaNaNaNaNaNaNaNaNaNaNaNaNaNaNaasS'ec:35:86:3b:bf:18'
p1715
(lp1716
(lp1717
NaNaNaNaNaNaNaNaNaNaNaNaNaNaNaNaa(lp1718
NaNaNaNaNaNaNaNaNaNaNaNaNaNaNaNaa(lp1719
NaNaNaNaNaNaNaNaNaNaNaNaNaNaNaNaa(lp1720
NaNaNaNaNaNaNaNaNaNaNaNaNaNaNaNaa(lp1721
NaNaNaNaNaNaNaNaNaNaNaNaNaNaNaNaa(lp1722
NaNaNaNaNaNaNaNaNaNaNaNaNaNaNaNaa(lp1723
NaNaNaNaNaNaNaNaNaNaNaNaNaNaNaNaa(lp1724
NaNaNaNaNaNaNaNaNaNaNaNaNaNaNaNaa(lp1725
NaNaNaNaNaNaNag9
(g13
S'\xab\xaa\xaa\xaa\xaa*K\xc0'
p1726
tp1727
Rp1728
aNaNaNaNaNaNaNaNaa(lp1729
NaNaNaNaNaNaNaNaNaNaNaNaNaNaNaNaa(lp1730
NaNaNaNaNaNaNaNaNaNaNaNaNaNaNaNaa(lp1731
NaNaNaNaNaNaNaNaNaNaNaNaNaNaNaNaa(lp1732
NaNaNaNaNaNaNaNaNaNaNaNaNaNaNaNaa(lp1733
NaNaNaNaNaNaNaNaNaNaNaNaNaNaNaNaa(lp1734
NaNaNaNaNaNaNaNaNaNaNaNaNaNaNaNaa(lp1735
NaNaNaNaNaNaNaNaNaNaNaNaNaNaNaNaasS'48:51:b7:d2:43:8f'
p1736
(lp1737
(lp1738
NaNaNaNaNaNaNaNaNaNaNaNaNaNaNaNaa(lp1739
NaNaNaNaNaNaNaNaNaNaNaNaNaNaNaNaa(lp1740
NaNaNaNaNaNaNaNaNaNaNaNaNaNaNaNaa(lp1741
NaNaNaNaNaNaNaNaNaNaNaNaNaNaNaNaa(lp1742
NaNaNaNaNaNaNaNaNaNaNaNaNaNaNaNaa(lp1743
NaNaNaNaNaNag9
(g13
S'\x00\x00\x00\x00\x00\x00U\xc0'
p1744
tp1745
Rp1746
aNaNaNaNaNaNaNaNaNaa(lp1747
NaNaNaNaNaNaNaNaNaNaNaNaNaNaNaNaa(lp1748
NaNaNaNaNaNaNaNaNaNaNaNaNaNaNaNaa(lp1749
NaNaNaNaNaNaNag9
(g13
S'\x00\x00\x00\x00\x00@U\xc0'
p1750
tp1751
Rp1752
aNaNaNaNaNaNaNaNaa(lp1753
NaNaNaNaNaNaNaNaNaNaNaNaNaNaNaNaa(lp1754
NaNaNaNaNaNaNaNaNaNaNaNaNaNaNaNaa(lp1755
NaNaNaNaNaNaNaNaNaNaNaNaNaNaNaNaa(lp1756
NaNaNaNaNaNaNaNaNaNaNaNaNaNaNaNaa(lp1757
NaNaNaNaNaNaNaNaNaNaNaNaNaNaNaNaa(lp1758
NaNaNaNaNaNaNaNaNaNaNaNaNaNaNaNaa(lp1759
NaNaNaNaNaNaNaNaNaNaNaNaNaNaNaNaasS'00:26:ab:10:a3:d2'
p1760
(lp1761
(lp1762
NaNaNaNaNaNaNaNaNaNaNaNaNaNaNaNaa(lp1763
NaNaNaNaNaNaNaNaNaNaNaNaNaNaNaNaa(lp1764
NaNaNaNaNaNaNaNaNaNaNaNaNaNaNaNaa(lp1765
NaNaNaNaNaNaNaNaNaNaNaNaNaNaNaNaa(lp1766
NaNaNaNaNaNaNaNaNaNaNaNaNaNaNaNaa(lp1767
NaNaNaNaNaNaNaNaNaNaNaNaNaNaNaNaa(lp1768
NaNaNaNaNaNaNaNaNaNaNaNaNaNaNaNaa(lp1769
NaNaNaNaNaNaNaNaNaNaNaNaNaNaNaNaa(lp1770
NaNaNaNaNaNaNag9
(g13
S'\x00\x00\x00\x00\x00\x00V\xc0'
p1771
tp1772
Rp1773
aNaNaNaNaNaNaNaNaa(lp1774
NaNaNaNaNaNaNaNaNaNaNaNaNaNaNaNaa(lp1775
NaNaNaNaNaNaNaNaNaNaNaNaNaNaNaNaa(lp1776
NaNaNaNaNaNaNaNaNaNaNaNaNaNaNaNaa(lp1777
NaNaNaNaNaNaNaNaNaNaNaNaNaNaNaNaa(lp1778
NaNaNaNaNaNaNaNaNaNaNaNaNaNaNaNaa(lp1779
NaNaNaNaNaNaNaNaNaNaNaNaNaNaNaNaa(lp1780
NaNaNaNaNaNaNaNaNaNaNaNaNaNaNaNaasS'00:0f:54:12:ab:7a'
p1781
(lp1782
(lp1783
NaNaNaNaNaNaNaNaNaNaNaNaNaNaNaNaa(lp1784
NaNaNaNaNaNaNaNaNaNaNaNaNaNaNaNaa(lp1785
NaNaNaNaNaNaNaNaNaNaNaNaNaNaNaNaa(lp1786
NaNaNaNaNaNaNaNaNaNaNaNaNaNaNaNaa(lp1787
NaNaNaNaNaNaNaNaNaNaNaNaNaNaNaNaa(lp1788
NaNaNaNaNaNag9
(g13
S'UUUUU\x15Q\xc0'
p1789
tp1790
Rp1791
aNaNaNaNaNaNaNaNaNaa(lp1792
NaNaNaNaNaNaNaNaNaNaNaNaNaNaNaNaa(lp1793
NaNaNaNaNaNaNaNaNaNaNaNaNaNaNaNaa(lp1794
NaNaNaNaNaNaNag9
(g13
S'%I\x92$I\x12S\xc0'
p1795
tp1796
Rp1797
aNaNaNaNaNaNaNaNaa(lp1798
NaNaNaNaNaNaNaNaNaNaNaNaNaNaNaNaa(lp1799
NaNaNaNaNaNaNaNaNaNaNaNaNaNaNaNaa(lp1800
NaNaNaNaNaNaNaNaNaNaNaNaNaNaNaNaa(lp1801
NaNaNaNaNaNaNaNaNaNaNaNaNaNaNaNaa(lp1802
NaNaNaNaNaNaNaNaNaNaNaNaNaNaNaNaa(lp1803
NaNaNaNaNaNaNaNaNaNaNaNaNaNaNaNaa(lp1804
NaNaNaNaNaNaNaNaNaNaNaNaNaNaNaNaasS'4c:eb:42:1c:9f:a3'
p1805
(lp1806
(lp1807
NaNaNaNaNaNaNaNaNaNaNaNaNaNaNaNaa(lp1808
NaNaNaNaNaNaNaNaNaNaNaNaNaNaNaNaa(lp1809
NaNaNaNaNaNaNaNaNaNaNaNaNaNaNaNaa(lp1810
NaNaNaNaNaNaNaNaNaNaNaNaNaNaNaNaa(lp1811
NaNaNaNaNaNaNaNaNaNaNaNaNaNaNaNaa(lp1812
NaNaNaNaNaNag9
(g13
S'\x00\x00\x00\x00\x000D\xc0'
p1813
tp1814
Rp1815
aNaNaNaNaNaNaNaNaNaa(lp1816
NaNaNaNaNaNaNaNaNaNaNaNaNaNaNaNaa(lp1817
NaNaNaNaNaNaNaNaNaNaNaNaNaNaNaNaa(lp1818
NaNaNaNaNaNaNag9
(g13
S'\x92$I\x92$ID\xc0'
p1819
tp1820
Rp1821
aNaNaNaNaNaNaNaNaa(lp1822
NaNaNaNaNaNaNaNaNaNaNaNaNaNaNaNaa(lp1823
NaNaNaNaNaNaNaNaNaNaNaNaNaNaNaNaa(lp1824
NaNaNaNaNaNaNaNaNaNaNaNaNaNaNaNaa(lp1825
NaNaNaNaNaNaNaNaNaNaNaNaNaNaNaNaa(lp1826
NaNaNaNaNaNaNaNaNaNaNaNaNaNaNaNaa(lp1827
NaNaNaNaNaNaNaNaNaNaNaNaNaNaNaNaa(lp1828
NaNaNaNaNaNaNaNaNaNaNaNaNaNaNaNaasS'00:18:39:81:1a:c9'
p1829
(lp1830
(lp1831
NaNaNaNaNaNaNaNaNaNaNaNaNaNaNaNaa(lp1832
NaNaNaNaNaNaNaNaNaNaNaNaNaNaNaNaa(lp1833
NaNaNaNaNaNaNaNaNaNaNaNaNaNaNaNaa(lp1834
NaNaNaNaNaNaNaNaNaNaNaNaNaNaNaNaa(lp1835
NaNaNaNaNaNaNaNaNaNaNaNaNaNaNaNaa(lp1836
NaNaNaNaNaNag9
(g13
S'\x00\x00\x00\x00\x00\xeaS\xc0'
p1837
tp1838
Rp1839
aNaNaNaNaNaNaNaNaNaa(lp1840
NaNaNaNaNaNaNaNaNaNaNaNaNaNaNaNaa(lp1841
NaNaNaNaNaNaNaNaNaNaNaNaNaNaNaNaa(lp1842
NaNaNaNaNaNaNag9
(g13
S'R\xb8\x1e\x85\xeb\x11T\xc0'
p1843
tp1844
Rp1845
aNaNaNaNaNaNaNaNaa(lp1846
NaNaNaNaNaNaNaNaNaNaNaNaNaNaNaNaa(lp1847
NaNaNaNaNaNaNaNaNaNaNaNaNaNaNaNaa(lp1848
NaNaNaNaNaNaNaNaNaNaNaNaNaNaNaNaa(lp1849
NaNaNaNaNaNaNaNaNaNaNaNaNaNaNaNaa(lp1850
NaNaNaNaNaNaNaNaNaNaNaNaNaNaNaNaa(lp1851
NaNaNaNaNaNaNaNaNaNaNaNaNaNaNaNaa(lp1852
NaNaNaNaNaNaNaNaNaNaNaNaNaNaNaNaasS'cc:fa:00:ea:78:fe'
p1853
(lp1854
(lp1855
NaNaNaNaNaNaNaNaNaNaNaNaNaNaNaNaa(lp1856
NaNaNaNaNaNaNaNaNaNaNaNaNaNaNaNaa(lp1857
NaNaNaNaNaNaNaNaNaNaNaNaNaNaNaNaa(lp1858
NaNaNaNaNaNaNaNaNaNaNaNaNaNaNaNaa(lp1859
NaNaNaNaNaNaNaNaNaNaNaNaNaNaNaNaa(lp1860
NaNaNaNaNaNag9
(g13
S'\x00\x00\x00\x00\x00\xc0T\xc0'
p1861
tp1862
Rp1863
aNaNaNaNaNaNaNaNaNaa(lp1864
NaNaNaNaNaNaNaNaNaNaNaNaNaNaNaNaa(lp1865
NaNaNaNaNaNaNaNaNaNaNaNaNaNaNaNaa(lp1866
NaNaNaNaNaNaNaNaNaNaNaNaNaNaNaNaa(lp1867
NaNaNaNaNaNaNaNaNaNaNaNaNaNaNaNaa(lp1868
NaNaNaNaNaNaNaNaNaNaNaNaNaNaNaNaa(lp1869
NaNaNaNaNaNaNaNaNaNaNaNaNaNaNaNaa(lp1870
NaNaNaNaNaNaNaNaNaNaNaNaNaNaNaNaa(lp1871
NaNaNaNaNaNaNaNaNaNaNaNaNaNaNaNaa(lp1872
NaNaNaNaNaNaNaNaNaNaNaNaNaNaNaNaa(lp1873
NaNaNaNaNaNaNaNaNaNaNaNaNaNaNaNaasS'00:1a:1e:10:91:82'
p1874
(lp1875
(lp1876
NaNaNaNaNaNaNaNaNaNaNaNaNaNaNaNaa(lp1877
NaNaNaNaNaNaNaNaNaNaNaNaNaNaNaNaa(lp1878
NaNaNaNaNaNaNaNaNaNaNaNaNaNaNaNaa(lp1879
NaNaNaNaNaNaNaNaNaNaNaNaNaNaNaNaa(lp1880
NaNaNaNaNaNaNaNaNaNaNaNaNaNaNaNaa(lp1881
NaNaNaNaNaNag9
(g13
S'h/\xa1\xbd\x84vR\xc0'
p1882
tp1883
Rp1884
aNaNaNaNaNaNaNaNaNaa(lp1885
NaNaNaNaNaNaNaNaNaNaNaNaNaNaNaNaa(lp1886
NaNaNaNaNaNaNaNaNaNaNaNaNaNaNaNaa(lp1887
NaNaNaNaNaNaNag9
(g13
S'0\x8f\xad\x08\x1a\x0eR\xc0'
p1888
tp1889
Rp1890
aNaNaNaNaNaNaNaNaa(lp1891
NaNaNaNaNaNaNaNaNaNaNaNaNaNaNaNaa(lp1892
NaNaNaNaNaNaNaNaNaNaNaNaNaNaNaNaa(lp1893
NaNaNaNaNaNaNaNaNaNaNaNaNaNaNaNaa(lp1894
NaNaNaNaNaNaNaNaNaNaNaNaNaNaNaNaa(lp1895
NaNaNaNaNaNaNaNaNaNaNaNaNaNaNaNaa(lp1896
NaNaNaNaNaNaNaNaNaNaNaNaNaNaNaNaa(lp1897
NaNaNaNaNaNaNaNaNaNaNaNaNaNaNaNaasS'00:1a:1e:10:91:81'
p1898
(lp1899
(lp1900
NaNaNaNaNaNaNaNaNaNaNaNaNaNaNaNaa(lp1901
NaNaNaNaNaNaNaNaNaNaNaNaNaNaNaNaa(lp1902
NaNaNaNaNaNaNaNaNaNaNaNaNaNaNaNaa(lp1903
NaNaNaNaNaNaNaNaNaNaNaNaNaNaNaNaa(lp1904
NaNaNaNaNaNaNaNaNaNaNaNaNaNaNaNaa(lp1905
NaNaNaNaNaNag9
(g13
S'\x00\x00\x00\x00\x00@R\xc0'
p1906
tp1907
Rp1908
aNaNaNaNaNaNaNaNaNaa(lp1909
NaNaNaNaNaNaNaNaNaNaNaNaNaNaNaNaa(lp1910
NaNaNaNaNaNaNaNaNaNaNaNaNaNaNaNaa(lp1911
NaNaNaNaNaNaNag9
(g13
S'33333SR\xc0'
p1912
tp1913
Rp1914
aNaNaNaNaNaNaNaNaa(lp1915
NaNaNaNaNaNaNaNaNaNaNaNaNaNaNaNaa(lp1916
NaNaNaNaNaNaNaNaNaNaNaNaNaNaNaNaa(lp1917
NaNaNaNaNaNaNaNaNaNaNaNaNaNaNaNaa(lp1918
NaNaNaNaNaNaNaNaNaNaNaNaNaNaNaNaa(lp1919
NaNaNaNaNaNaNaNaNaNaNaNaNaNaNaNaa(lp1920
NaNaNaNaNaNaNaNaNaNaNaNaNaNaNaNaa(lp1921
NaNaNaNaNaNaNaNaNaNaNaNaNaNaNaNaasS'88:53:95:d4:e4:56'
p1922
(lp1923
(lp1924
NaNaNaNaNaNaNaNaNaNaNaNaNaNaNaNaa(lp1925
NaNaNaNaNaNaNaNaNaNaNaNaNaNaNaNaa(lp1926
NaNaNaNaNaNaNaNaNaNaNaNaNaNaNaNaa(lp1927
NaNaNaNaNaNaNaNaNaNaNaNaNaNaNaNaa(lp1928
NaNaNaNaNaNaNaNaNaNaNaNaNaNaNaNaa(lp1929
NaNaNaNaNaNag9
(g13
S'\x00\x00\x00\x00\x00@U\xc0'
p1930
tp1931
Rp1932
aNaNaNaNaNaNaNaNaNaa(lp1933
NaNaNaNaNaNaNaNaNaNaNaNaNaNaNaNaa(lp1934
NaNaNaNaNaNaNaNaNaNaNaNaNaNaNaNaa(lp1935
NaNaNaNaNaNaNaNaNaNaNaNaNaNaNaNaa(lp1936
NaNaNaNaNaNaNaNaNaNaNaNaNaNaNaNaa(lp1937
NaNaNaNaNaNaNaNaNaNaNaNaNaNaNaNaa(lp1938
NaNaNaNaNaNaNaNaNaNaNaNaNaNaNaNaa(lp1939
NaNaNaNaNaNaNaNaNaNaNaNaNaNaNaNaa(lp1940
NaNaNaNaNaNaNaNaNaNaNaNaNaNaNaNaa(lp1941
NaNaNaNaNaNaNaNaNaNaNaNaNaNaNaNaa(lp1942
NaNaNaNaNaNaNaNaNaNaNaNaNaNaNaNaasS'f8:e0:79:58:4e:29'
p1943
(lp1944
(lp1945
NaNaNaNaNaNaNaNaNaNaNaNaNaNaNaNaa(lp1946
NaNaNaNaNaNaNaNaNaNaNaNaNaNaNaNaa(lp1947
NaNaNaNaNaNaNaNaNaNaNaNaNaNaNaNaa(lp1948
NaNaNaNaNaNaNaNaNaNaNaNaNaNaNaNaa(lp1949
NaNaNaNaNaNaNaNaNaNaNaNaNaNaNaNaa(lp1950
NaNaNaNaNaNaNaNaNaNaNaNaNaNaNaNaa(lp1951
NaNaNaNaNaNaNaNaNaNaNaNaNaNaNaNaa(lp1952
NaNaNaNaNaNaNaNaNaNaNaNaNaNaNaNaa(lp1953
NaNaNaNaNaNaNag9
(g13
S'\xe48\x8e\xe38\x8eR\xc0'
p1954
tp1955
Rp1956
aNaNaNaNaNaNaNaNaa(lp1957
NaNaNaNaNaNaNaNaNaNaNaNaNaNaNaNaa(lp1958
NaNaNaNaNaNaNaNaNaNaNaNaNaNaNaNaa(lp1959
NaNaNaNaNaNaNaNaNaNaNaNaNaNaNaNaa(lp1960
NaNaNaNaNaNaNaNaNaNaNaNaNaNaNaNaa(lp1961
NaNaNaNaNaNaNaNaNaNaNaNaNaNaNaNaa(lp1962
NaNaNaNaNaNaNaNaNaNaNaNaNaNaNaNaa(lp1963
NaNaNaNaNaNaNaNaNaNaNaNaNaNaNaNaasS'78:4b:87:fe:d5:82'
p1964
(lp1965
(lp1966
NaNaNaNaNaNaNaNaNaNaNaNaNaNaNaNaa(lp1967
NaNaNaNaNaNaNaNaNaNaNaNaNaNaNaNaa(lp1968
NaNaNaNaNaNaNaNaNaNaNaNaNaNaNaNaa(lp1969
NaNaNaNaNaNaNaNaNaNaNaNaNaNaNaNaa(lp1970
NaNaNaNaNaNaNaNaNaNaNaNaNaNaNaNaa(lp1971
NaNaNaNaNaNaNaNaNaNaNaNaNaNaNaNaa(lp1972
NaNaNaNaNaNaNaNaNaNaNaNaNaNaNaNaa(lp1973
NaNaNaNaNaNaNaNaNaNaNaNaNaNaNaNaa(lp1974
NaNaNaNaNaNaNag9
(g13
S'\x00\x00\x00\x00\x00\xc0Q\xc0'
p1975
tp1976
Rp1977
aNaNaNaNaNaNaNaNaa(lp1978
NaNaNaNaNaNaNaNaNaNaNaNaNaNaNaNaa(lp1979
NaNaNaNaNaNaNaNaNaNaNaNaNaNaNaNaa(lp1980
NaNaNaNaNaNaNaNaNaNaNaNaNaNaNaNaa(lp1981
NaNaNaNaNaNaNaNaNaNaNaNaNaNaNaNaa(lp1982
NaNaNaNaNaNaNaNaNaNaNaNaNaNaNaNaa(lp1983
NaNaNaNaNaNaNaNaNaNaNaNaNaNaNaNaa(lp1984
NaNaNaNaNaNaNaNaNaNaNaNaNaNaNaNaasS'd8:96:95:86:24:f9'
p1985
(lp1986
(lp1987
NaNaNaNaNaNaNaNaNaNaNaNaNaNaNaNaa(lp1988
NaNaNaNaNaNaNaNaNaNaNaNaNaNaNaNaa(lp1989
NaNaNaNaNaNaNaNaNaNaNaNaNaNaNaNaa(lp1990
NaNaNaNaNaNaNaNaNaNaNaNaNaNaNaNaa(lp1991
NaNaNaNaNaNaNaNaNaNaNaNaNaNaNaNaa(lp1992
NaNaNaNaNaNaNaNaNaNaNaNaNaNaNaNaa(lp1993
NaNaNaNaNaNaNaNaNaNaNaNaNaNaNaNaa(lp1994
NaNaNaNaNaNaNaNaNaNaNaNaNaNaNaNaa(lp1995
NaNaNaNaNaNaNag9
(g13
S'\x00\x00\x00\x00\x00\x80O\xc0'
p1996
tp1997
Rp1998
aNaNaNaNaNaNaNaNaa(lp1999
NaNaNaNaNaNaNaNaNaNaNaNaNaNaNaNaa(lp2000
NaNaNaNaNaNaNaNaNaNaNaNaNaNaNaNaa(lp2001
NaNaNaNaNaNaNaNaNaNaNaNaNaNaNaNaa(lp2002
NaNaNaNaNaNaNaNaNaNaNaNaNaNaNaNaa(lp2003
NaNaNaNaNaNaNaNaNaNaNaNaNaNaNaNaa(lp2004
NaNaNaNaNaNaNaNaNaNaNaNaNaNaNaNaa(lp2005
NaNaNaNaNaNaNaNaNaNaNaNaNaNaNaNaasS'34:de:1a:29:64:9a'
p2006
(lp2007
(lp2008
NaNaNaNaNaNaNaNaNaNaNaNaNaNaNaNaa(lp2009
NaNaNaNaNaNaNaNaNaNaNaNaNaNaNaNaa(lp2010
NaNaNaNaNaNaNaNaNaNaNaNaNaNaNaNaa(lp2011
NaNaNaNaNaNaNaNaNaNaNaNaNaNaNaNaa(lp2012
NaNaNaNaNaNaNaNaNaNaNaNaNaNaNaNaa(lp2013
NaNaNaNaNaNag9
(g13
S'\xd6\xbea\xed\x1bVM\xc0'
p2014
tp2015
Rp2016
aNaNaNaNaNaNaNaNaNaa(lp2017
NaNaNaNaNaNaNaNaNaNaNaNaNaNaNaNaa(lp2018
NaNaNaNaNaNaNaNaNaNaNaNaNaNaNaNaa(lp2019
NaNaNaNaNaNaNag9
(g13
S'r\x1c\xc7q\x1c\xc7L\xc0'
p2020
tp2021
Rp2022
aNaNaNaNaNaNaNaNaa(lp2023
NaNaNaNaNaNaNaNaNaNaNaNaNaNaNaNaa(lp2024
NaNaNaNaNaNaNaNaNaNaNaNaNaNaNaNaa(lp2025
NaNaNaNaNaNaNaNaNaNaNaNaNaNaNaNaa(lp2026
NaNaNaNaNaNaNaNaNaNaNaNaNaNaNaNaa(lp2027
NaNaNaNaNaNaNaNaNaNaNaNaNaNaNaNaa(lp2028
NaNaNaNaNaNaNaNaNaNaNaNaNaNaNaNaa(lp2029
NaNaNaNaNaNaNaNaNaNaNaNaNaNaNaNaasS'ec:35:86:37:9e:38'
p2030
(lp2031
(lp2032
NaNaNaNaNaNaNaNaNaNaNaNaNaNaNaNaa(lp2033
NaNaNaNaNaNaNaNaNaNaNaNaNaNaNaNaa(lp2034
NaNaNaNaNaNaNaNaNaNaNaNaNaNaNaNaa(lp2035
NaNaNaNaNaNaNaNaNaNaNaNaNaNaNaNaa(lp2036
NaNaNaNaNaNaNaNaNaNaNaNaNaNaNaNaa(lp2037
NaNaNaNaNaNaNaNaNaNaNaNaNaNaNaNaa(lp2038
NaNaNaNaNaNaNaNaNaNaNaNaNaNaNaNaa(lp2039
NaNaNaNaNaNaNaNaNaNaNaNaNaNaNaNaa(lp2040
NaNaNaNaNaNaNag9
(g13
S'\x00\x00\x00\x00\x00\x00I\xc0'
p2041
tp2042
Rp2043
aNaNaNaNaNaNaNaNaa(lp2044
NaNaNaNaNaNaNaNaNaNaNaNaNaNaNaNaa(lp2045
NaNaNaNaNaNaNaNaNaNaNaNaNaNaNaNaa(lp2046
NaNaNaNaNaNaNaNaNaNaNaNaNaNaNaNaa(lp2047
NaNaNaNaNaNaNaNaNaNaNaNaNaNaNaNaa(lp2048
NaNaNaNaNaNaNaNaNaNaNaNaNaNaNaNaa(lp2049
NaNaNaNaNaNaNaNaNaNaNaNaNaNaNaNaa(lp2050
NaNaNaNaNaNaNaNaNaNaNaNaNaNaNaNaasS'ac:d1:b8:8b:31:85'
p2051
(lp2052
(lp2053
NaNaNaNaNaNaNaNaNaNaNaNaNaNaNaNaa(lp2054
NaNaNaNaNaNaNaNaNaNaNaNaNaNaNaNaa(lp2055
NaNaNaNaNaNaNaNaNaNaNaNaNaNaNaNaa(lp2056
NaNaNaNaNaNaNaNaNaNaNaNaNaNaNaNaa(lp2057
NaNaNaNaNaNaNaNaNaNaNaNaNaNaNaNaa(lp2058
NaNaNaNaNaNag9
(g13
S'\x00\x00\x00\x00\x00\x80N\xc0'
p2059
tp2060
Rp2061
aNaNaNaNaNaNaNaNaNaa(lp2062
NaNaNaNaNaNaNaNaNaNaNaNaNaNaNaNaa(lp2063
NaNaNaNaNaNaNaNaNaNaNaNaNaNaNaNaa(lp2064
NaNaNaNaNaNaNag9
(g13
S'\xf3\x1a\xcak(/L\xc0'
p2065
tp2066
Rp2067
aNaNaNaNaNaNaNaNaa(lp2068
NaNaNaNaNaNaNaNaNaNaNaNaNaNaNaNaa(lp2069
NaNaNaNaNaNaNaNaNaNaNaNaNaNaNaNaa(lp2070
NaNaNaNaNaNaNaNaNaNaNaNaNaNaNaNaa(lp2071
NaNaNaNaNaNaNaNaNaNaNaNaNaNaNaNaa(lp2072
NaNaNaNaNaNaNaNaNaNaNaNaNaNaNaNaa(lp2073
NaNaNaNaNaNaNaNaNaNaNaNaNaNaNaNaa(lp2074
NaNaNaNaNaNaNaNaNaNaNaNaNaNaNaNaasS'90:72:40:1a:22:7a'
p2075
(lp2076
(lp2077
NaNaNaNaNaNaNaNaNaNaNaNaNaNaNaNaa(lp2078
NaNaNaNaNaNaNaNaNaNaNaNaNaNaNaNaa(lp2079
NaNaNaNaNaNaNaNaNaNaNaNaNaNaNaNaa(lp2080
NaNaNaNaNaNaNaNaNaNaNaNaNaNaNaNaa(lp2081
NaNaNaNaNaNaNaNaNaNaNaNaNaNaNaNaa(lp2082
NaNaNaNaNaNag9
(g13
S'>\x8d\xb0\xdc\xd3\x08U\xc0'
p2083
tp2084
Rp2085
aNaNaNaNaNaNaNaNaNaa(lp2086
NaNaNaNaNaNaNaNaNaNaNaNaNaNaNaNaa(lp2087
NaNaNaNaNaNaNaNaNaNaNaNaNaNaNaNaa(lp2088
NaNaNaNaNaNaNag9
(g13
S'\xec\xc4N\xec\xc4\xceT\xc0'
p2089
tp2090
Rp2091
aNaNaNaNaNaNaNaNaa(lp2092
NaNaNaNaNaNaNaNaNaNaNaNaNaNaNaNaa(lp2093
NaNaNaNaNaNaNaNaNaNaNaNaNaNaNaNaa(lp2094
NaNaNaNaNaNaNaNaNaNaNaNaNaNaNaNaa(lp2095
NaNaNaNaNaNaNaNaNaNaNaNaNaNaNaNaa(lp2096
NaNaNaNaNaNaNaNaNaNaNaNaNaNaNaNaa(lp2097
NaNaNaNaNaNaNaNaNaNaNaNaNaNaNaNaa(lp2098
NaNaNaNaNaNaNaNaNaNaNaNaNaNaNaNaas.