(dp0
S'00:24:6c:c5:3a:42'
p1
(lp2
(lp3
NaNaNaNaNaNaNaNaNaNaNaNaNaNaNaNaNaNaNaNaa(lp4
NaNaNaNaNaNaNaNaNaNaNaNaNaNaNaNaNaNaNaNaa(lp5
NaNaNaNaNaNaNaNaNaNaNaNaNaNaNaNaNaNaNaNaa(lp6
NaNaNaNaNaNaNaNaNaNaNaNaNaNaNaNaNaNaNaNaa(lp7
NaNaNaNaNaNaNaNaNaNaNaNaNaNaNaNaNaNaNaNaa(lp8
NaNaNaNaNaNaNaNaNaNaNaNaNaNaNaNaNaNaNaNaa(lp9
NaNaNaNaNaNaNaNaNaNaNaNaNaNaNaNaNaNaNaNaa(lp10
NaNaNaNaNaNaNaNaNaNaNaNaNaNaNaNaNaNaNaNaa(lp11
NaNaNaNaNaNaNaNacnumpy.core.multiarray
scalar
p12
(cnumpy
dtype
p13
(S'f8'
p14
I0
I1
tp15
Rp16
(I3
S'<'
p17
NNNI-1
I-1
I0
tp18
bS'\x94>\xe9\x93>)P\xc0'
p19
tp20
Rp21
ag12
(g16
S'ddddddO\xc0'
p22
tp23
Rp24
ag12
(g16
S'W\xab\xd5j\xb5\xdaN\xc0'
p25
tp26
Rp27
ag12
(g16
S'\x1f|\xf0\xc1\x07\x1fO\xc0'
p28
tp29
Rp30
ag12
(g16
S'\xe4\ryC\xde\x10K\xc0'
p31
tp32
Rp33
ag12
(g16
S'\xb5\xb4\xb4\xb4\xb4TM\xc0'
p34
tp35
Rp36
ag12
(g16
S'iiiiiiJ\xc0'
p37
tp38
Rp39
aNaNaNaNaNaa(lp40
NaNaNaNaNaNaNaNaNag12
(g16
S'iiiiiIN\xc0'
p41
tp42
Rp43
ag12
(g16
S'\x1e\xbd2\xb6\xdfQO\xc0'
p44
tp45
Rp46
ag12
(g16
S'\xac\xa3\xcd\xfb\x14\x97M\xc0'
p47
tp48
Rp49
ag12
(g16
S'd\\\x90qAFM\xc0'
p50
tp51
Rp52
ag12
(g16
S'\xb2YP\xed9\x19K\xc0'
p53
tp54
Rp55
ag12
(g16
S'|\xf0\xc1\x07\x1f|M\xc0'
p56
tp57
Rp58
ag12
(g16
S'ffffffK\xc0'
p59
tp60
Rp61
aNaNaNaNaa(lp62
NaNaNaNaNaNaNaNaNag12
(g16
S'\xd6\xb9\xf2\x80d\xddP\xc0'
p63
tp64
Rp65
ag12
(g16
S'2g\xcc\x19s\x06P\xc0'
p66
tp67
Rp68
ag12
(g16
S'\xf83\xe1\xcf\x84\xbfN\xc0'
p69
tp70
Rp71
ag12
(g16
S'\xe0\x0f\xf8\x03\xfe\x00L\xc0'
p72
tp73
Rp74
ag12
(g16
S'>\xf8\xe0\x83\x0f~O\xc0'
p75
tp76
Rp77
ag12
(g16
S'\xd3\xd2\xd2\xd2\xd2\xd2I\xc0'
p78
tp79
Rp80
ag12
(g16
S'Ez\xa0rv\x0bN\xc0'
p81
tp82
Rp83
ag12
(g16
S'\x00\x00\x00\x00\x00\xc0N\xc0'
p84
tp85
Rp86
aNaNaNaa(lp87
NaNaNaNaNaNaNaNaNaNag12
(g16
S'}}}}}=Q\xc0'
p88
tp89
Rp90
ag12
(g16
S'9\x8e\xe38\x8e\xa3L\xc0'
p91
tp92
Rp93
ag12
(g16
S'\\\x90qA\xc6\x85J\xc0'
p94
tp95
Rp96
ag12
(g16
S'KKKKK+J\xc0'
p97
tp98
Rp99
ag12
(g16
S'\xe5\x01\xc9:W\x9eI\xc0'
p100
tp101
Rp102
ag12
(g16
S'\xc4\xc3\xc3\xc3\xc3\xa3L\xc0'
p103
tp104
Rp105
ag12
(g16
S'\xb86Ls\x17|L\xc0'
p106
tp107
Rp108
aNaNaNaa(lp109
NaNaNaNaNaNaNaNaNaNag12
(g16
S'Nb\x10X94N\xc0'
p110
tp111
Rp112
ag12
(g16
S'\\\xf8\xd5\x98H\x8fJ\xc0'
p113
tp114
Rp115
ag12
(g16
S'KE,\x15\xb1\xd4G\xc0'
p116
tp117
Rp118
ag12
(g16
S'\x90[\x97w\xc0\x11N\xc0'
p119
tp120
Rp121
ag12
(g16
S'\x8d\x12?\xa3\xc4ON\xc0'
p122
tp123
Rp124
ag12
(g16
S'}s\xf4\xcd\xd1\xb7K\xc0'
p125
tp126
Rp127
ag12
(g16
S'\xba\xe8\xa2\x8b.zH\xc0'
p128
tp129
Rp130
aNaNaNaa(lp131
NaNaNaNaNaNaNaNaNaNaNag12
(g16
S'\xc6\x18c\x8c1\x86L\xc0'
p132
tp133
Rp134
ag12
(g16
S'F\x17]t\xd1\xc5H\xc0'
p135
tp136
Rp137
ag12
(g16
S'\xab\xaa\xaa\xaa\xaa\xaaL\xc0'
p138
tp139
Rp140
ag12
(g16
S'\x9bl\xb2\xc9&\x1bJ\xc0'
p141
tp142
Rp143
ag12
(g16
S'\xc2\x07\x1f|\xf0\xc1J\xc0'
p144
tp145
Rp146
ag12
(g16
S'&\xd2\x03\x95\xb3[J\xc0'
p147
tp148
Rp149
aNaNaNaa(lp150
NaNaNaNaNaNaNaNaNaNaNaNag12
(g16
S'j\x9a\xa6i\x9a&G\xc0'
p151
tp152
Rp153
ag12
(g16
S'j\xf8\xdb\x14\xa3\x06J\xc0'
p154
tp155
Rp156
ag12
(g16
S'\xa5Vj\xa5VjI\xc0'
p157
tp158
Rp159
ag12
(g16
S'F\x17]t\xd1\x05I\xc0'
p160
tp161
Rp162
ag12
(g16
S'\x19\x17d\\\x90\xf1K\xc0'
p163
tp164
Rp165
aNaNaNaa(lp166
NaNaNaNaNaNaNaNaNaNaNaNaNaNaNag12
(g16
S'\x95RJ)\xa5\x14G\xc0'
p167
tp168
Rp169
ag12
(g16
S'\x88\x87\x87\x87\x87\xe7I\xc0'
p170
tp171
Rp172
aNaNaNaa(lp173
NaNaNaNaNaNaNaNaNaNaNaNaNaNaNaNag12
(g16
S'\xd4\xaeD\xedJTK\xc0'
p174
tp175
Rp176
aNaNaNaa(lp177
NaNaNaNaNaNaNaNaNaNaNaNaNaNaNaNaNaNaNaNaa(lp178
NaNaNaNaNaNaNaNaNaNaNaNaNaNaNaNaNaNaNaNaa(lp179
NaNaNaNaNaNaNaNaNaNaNaNaNaNaNaNaNaNaNaNaa(lp180
NaNaNaNaNaNaNaNaNaNaNaNaNaNaNaNaNaNaNaNaa(lp181
NaNaNaNaNaNaNaNaNaNaNaNaNaNaNaNaNaNaNaNaa(lp182
NaNaNaNaNaNaNaNaNaNaNaNaNaNaNaNaNaNaNaNaa(lp183
NaNaNaNaNaNaNaNaNaNaNaNaNaNaNaNaNaNaNaNaa(lp184
NaNaNaNaNaNaNaNaNaNaNaNaNaNaNaNaNaNaNaNaa(lp185
NaNaNaNaNaNaNaNaNaNaNaNaNaNaNaNaNaNaNaNaa(lp186
NaNaNaNaNaNaNaNaNaNaNaNaNaNaNaNaNaNaNaNaasS'00:24:6c:c5:3a:41'
p187
(lp188
(lp189
NaNaNaNaNaNaNaNaNaNaNaNaNaNaNaNaNaNaNaNaa(lp190
NaNaNaNaNaNaNaNaNaNaNaNaNaNaNaNaNaNaNaNaa(lp191
NaNaNaNaNaNaNaNaNaNaNaNaNaNaNaNaNaNaNaNaa(lp192
NaNaNaNaNaNaNaNaNaNaNaNaNaNaNaNaNaNaNaNaa(lp193
NaNaNaNaNaNaNaNaNaNaNaNaNaNaNaNaNaNaNaNaa(lp194
NaNaNaNaNaNaNaNaNaNaNaNaNaNaNaNaNaNaNaNaa(lp195
NaNaNaNaNaNaNaNaNaNaNaNaNaNaNaNaNaNaNaNaa(lp196
NaNaNaNaNaNaNaNaNaNaNaNaNaNaNaNaNaNaNaNaa(lp197
NaNaNaNaNaNaNaNag12
(g16
S'\xa4\x07*g\xb70P\xc0'
p198
tp199
Rp200
ag12
(g16
S'\xc7q\x1c\xc7q\\O\xc0'
p201
tp202
Rp203
ag12
(g16
S'\xec\xad\r\xd3\xdc\x85N\xc0'
p204
tp205
Rp206
ag12
(g16
S'------O\xc0'
p207
tp208
Rp209
ag12
(g16
S'n\xdb\xb6m\xdb6K\xc0'
p210
tp211
Rp212
ag12
(g16
S'-----MM\xc0'
p213
tp214
Rp215
ag12
(g16
S'$EC\xfcqkJ\xc0'
p216
tp217
Rp218
aNaNaNaNaNaa(lp219
NaNaNaNaNaNaNaNaNag12
(g16
S"(}\xd2'}RN\xc0"
p220
tp221
Rp222
ag12
(g16
S'\x86\x95\x9eZXiO\xc0'
p223
tp224
Rp225
ag12
(g16
S'\xe7.\xf8\xab8\xa1M\xc0'
p226
tp227
Rp228
ag12
(g16
S'\xa6\xa5\xa5\xa5\xa5eM\xc0'
p229
tp230
Rp231
ag12
(g16
S'\xb2YP\xed9\x19K\xc0'
p232
tp233
Rp234
ag12
(g16
S'\x00\x00\x00\x00\x00\x80M\xc0'
p235
tp236
Rp237
ag12
(g16
S't\xd1E\x17]tK\xc0'
p238
tp239
Rp240
aNaNaNaNaa(lp241
NaNaNaNaNaNaNaNaNag12
(g16
S'_B{\t\xed\xe5P\xc0'
p242
tp243
Rp244
ag12
(g16
S'\xf4\xcd\xd17G\x1fP\xc0'
p245
tp246
Rp247
ag12
(g16
S'\xa8\x9c\xdd\xc2\xaf\xc6N\xc0'
p248
tp249
Rp250
ag12
(g16
S'UUUUU\x15L\xc0'
p251
tp252
Rp253
ag12
(g16
S'h/\xa1\xbd\x84vO\xc0'
p254
tp255
Rp256
ag12
(g16
S'iiiii\xc9I\xc0'
p257
tp258
Rp259
ag12
(g16
S'\xbb\x85_\x8d\x89tM\xc0'
p260
tp261
Rp262
ag12
(g16
S'\x00\x00\x00\x00\x00\xc0N\xc0'
p263
tp264
Rp265
aNaNaNaa(lp266
NaNaNaNaNaNaNaNaNaNag12
(g16
S"\x0c5'\x81\xb8\x10Q\xc0"
p267
tp268
Rp269
ag12
(g16
S'c"=P9\xbbL\xc0'
p270
tp271
Rp272
ag12
(g16
S'\x86_\x8d\x89\xf4\xc0J\xc0'
p273
tp274
Rp275
ag12
(g16
S'\xdaKh/\xa1=J\xc0'
p276
tp277
Rp278
ag12
(g16
S'"""""\xa2I\xc0'
p279
tp280
Rp281
ag12
(g16
S'\x88\x87\x87\x87\x87\xa7L\xc0'
p282
tp283
Rp284
ag12
(g16
S'j\xee\x82\xbf\x8a\x93L\xc0'
p285
tp286
Rp287
aNaNaNaa(lp288
NaNaNaNaNaNaNaNaNaNag12
(g16
S'\xb6a\x9a\xbb\xe0/N\xc0'
p289
tp290
Rp291
ag12
(g16
S'\x86_\x8d\x89\xf4\xc0J\xc0'
p292
tp293
Rp294
ag12
(g16
S't\xe5\x01\xc9:\xd7G\xc0'
p295
tp296
Rp297
ag12
(g16
S'\xe6\x1dp\xa4h\x08N\xc0'
p298
tp299
Rp300
ag12
(g16
S'\xf1\xf0\xf0\xf0\xf0PN\xc0'
p301
tp302
Rp303
ag12
(g16
S'\x9c\xa3o\x8e\xbe\xb9K\xc0'
p304
tp305
Rp306
ag12
(g16
S'H\xc9\xb3\x8c\xe8\x83H\xc0'
p307
tp308
Rp309
aNaNaNaa(lp310
NaNaNaNaNaNaNaNaNaNaNag12
(g16
S"\x7f\x15'\xa4\xe4\xd9L\xc0"
p311
tp312
Rp313
ag12
(g16
S'\xcen\xe1Wc"H\xc0'
p314
tp315
Rp316
ag12
(g16
S'\xc4R\x11KE\xacL\xc0'
p317
tp318
Rp319
ag12
(g16
S'\xa8\x8e\xbd\xb5a\x1aJ\xc0'
p320
tp321
Rp322
ag12
(g16
S'qBJ\x9ee\xc4J\xc0'
p323
tp324
Rp325
ag12
(g16
S'\xb5\xb4\xb4\xb4\xb4tJ\xc0'
p326
tp327
Rp328
aNaNaNaa(lp329
NaNaNaNaNaNaNaNaNaNaNaNag12
(g16
S'iiiii)G\xc0'
p330
tp331
Rp332
ag12
(g16
S'{\t\xed%\xb4\x17J\xc0'
p333
tp334
Rp335
ag12
(g16
S'UUUUU\x95I\xc0'
p336
tp337
Rp338
ag12
(g16
S'\xa3\x8b.\xba\xe8\xa2H\xc0'
p339
tp340
Rp341
ag12
(g16
S'"=P9\xbb\x05L\xc0'
p342
tp343
Rp344
aNaNaNaa(lp345
NaNaNaNaNaNaNaNaNaNaNaNaNaNaNag12
(g16
S'\x9ds\xce9\xe7\x1cG\xc0'
p346
tp347
Rp348
ag12
(g16
S'\xf1\xf0\xf0\xf0\xf0\xf0I\xc0'
p349
tp350
Rp351
aNaNaNaa(lp352
NaNaNaNaNaNaNaNaNaNaNaNaNaNaNaNag12
(g16
S'=\xcf\xf3<\xcfsK\xc0'
p353
tp354
Rp355
aNaNaNaa(lp356
NaNaNaNaNaNaNaNaNaNaNaNaNaNaNaNaNaNaNaNaa(lp357
NaNaNaNaNaNaNaNaNaNaNaNaNaNaNaNaNaNaNaNaa(lp358
NaNaNaNaNaNaNaNaNaNaNaNaNaNaNaNaNaNaNaNaa(lp359
NaNaNaNaNaNaNaNaNaNaNaNaNaNaNaNaNaNaNaNaa(lp360
NaNaNaNaNaNaNaNaNaNaNaNaNaNaNaNaNaNaNaNaa(lp361
NaNaNaNaNaNaNaNaNaNaNaNaNaNaNaNaNaNaNaNaa(lp362
NaNaNaNaNaNaNaNaNaNaNaNaNaNaNaNaNaNaNaNaa(lp363
NaNaNaNaNaNaNaNaNaNaNaNaNaNaNaNaNaNaNaNaa(lp364
NaNaNaNaNaNaNaNaNaNaNaNaNaNaNaNaNaNaNaNaa(lp365
NaNaNaNaNaNaNaNaNaNaNaNaNaNaNaNaNaNaNaNaasS'00:1a:1e:52:cb:c0'
p366
(lp367
(lp368
NaNaNaNaNaNaNaNaNaNaNaNaNaNaNaNaNaNaNaNaa(lp369
NaNaNaNaNaNaNaNaNaNaNaNaNaNaNaNaNaNaNaNaa(lp370
NaNaNaNaNaNaNaNaNaNaNaNaNaNaNaNaNaNaNaNaa(lp371
NaNaNaNaNaNaNaNaNaNaNaNaNaNaNaNaNaNaNaNaa(lp372
NaNaNaNaNaNaNaNaNaNaNaNaNaNaNaNaNaNaNaNaa(lp373
NaNaNaNaNaNaNaNaNaNaNaNaNaNaNaNaNaNaNaNaa(lp374
NaNaNaNaNaNaNaNaNaNaNaNaNaNaNaNaNaNaNaNaa(lp375
NaNaNaNaNaNaNaNaNaNaNaNaNaNaNaNaNaNaNaNaa(lp376
NaNaNaNaNaNaNaNaNaNaNaNaNaNaNaNaNaNaNaNaa(lp377
NaNaNaNaNaNaNaNaNaNaNaNaNaNaNaNaNaNaNaNaa(lp378
NaNaNaNaNaNaNaNaNaNaNaNaNaNaNaNaNaNaNaNaa(lp379
NaNaNaNaNaNaNaNaNaNaNaNaNaNaNaNaNaNaNaNaa(lp380
NaNaNaNaNaNaNaNaNaNaNaNaNaNaNaNaNaNaNaNaa(lp381
NaNaNaNaNaNaNaNaNaNaNaNaNaNaNaNaNaNaNaNaa(lp382
NaNaNaNaNaNaNaNaNaNaNaNaNaNaNaNaNaNaNaNaa(lp383
NaNaNaNaNaNaNaNaNaNaNaNaNaNaNaNaNaNaNaNaa(lp384
NaNaNaNaNaNaNaNaNaNaNaNaNaNaNaNag12
(g16
S'A_\xd0\x17\xf4\x05P\xc0'
p385
tp386
Rp387
aNaNaNaa(lp388
NaNaNaNaNaNaNaNaNaNaNaNaNaNaNaNaNaNaNaNaa(lp389
NaNaNaNaNaNaNaNaNaNaNaNaNaNaNaNaNaNaNaNaa(lp390
NaNaNaNaNaNaNaNaNaNaNaNaNaNaNaNaNaNaNaNaa(lp391
NaNaNaNaNaNaNaNaNaNaNaNaNaNaNaNaNaNaNaNaa(lp392
NaNaNaNaNaNaNaNaNaNaNaNaNaNaNaNaNaNaNaNaa(lp393
NaNaNaNaNaNaNaNaNaNaNaNaNaNaNaNaNaNaNaNaa(lp394
NaNaNaNaNaNaNaNaNaNaNaNaNaNaNaNaNaNaNaNaa(lp395
NaNaNaNaNaNaNaNaNaNaNaNaNaNaNaNaNaNaNaNaa(lp396
NaNaNaNaNaNaNaNaNaNaNaNaNaNaNaNaNaNaNaNaa(lp397
NaNaNaNaNaNaNaNaNaNaNaNaNaNaNaNaNaNaNaNaasS'32:cd:a7:2f:d8:ca'
p398
(lp399
(lp400
NaNaNaNaNaNaNaNaNaNaNaNaNaNaNaNaNaNaNaNaa(lp401
NaNaNaNaNaNaNaNaNaNaNaNaNaNaNaNaNaNaNaNaa(lp402
NaNaNaNaNaNaNaNaNaNaNaNaNaNaNaNaNaNaNaNaa(lp403
NaNaNaNaNaNaNaNaNaNaNaNaNaNaNaNaNaNaNaNaa(lp404
NaNaNaNaNaNaNaNaNaNaNaNaNaNaNaNaNaNaNaNaa(lp405
NaNaNaNaNaNaNaNaNaNaNaNaNaNaNaNaNaNaNaNaa(lp406
NaNaNaNaNaNaNaNaNaNaNaNaNaNaNaNaNaNaNaNaa(lp407
NaNaNaNaNaNaNaNaNaNaNaNaNaNaNaNaNaNaNaNaa(lp408
NaNaNaNaNaNaNaNaNaNaNaNaNaNaNaNaNaNaNaNaa(lp409
NaNaNaNaNaNaNaNaNag12
(g16
S'\x00\x00\x00\x00\x00\xc0U\xc0'
p410
tp411
Rp412
aNaNaNaNaNaNaNaNaNaNaa(lp413
NaNaNaNaNaNaNaNaNag12
(g16
S'N\xfd\x9e[\xe2\x14V\xc0'
p414
tp415
Rp416
aNaNaNaNaNaNaNaNaNaNaa(lp417
NaNaNaNaNaNaNaNaNaNaNaNaNaNaNaNaNaNaNaNaa(lp418
NaNaNaNaNaNaNaNaNaNaNaNaNaNaNaNaNaNaNaNaa(lp419
NaNaNaNaNaNaNaNaNaNaNaNaNaNaNaNaNaNaNaNaa(lp420
NaNaNaNaNaNaNaNaNaNaNaNaNaNaNaNaNaNaNaNaa(lp421
NaNaNaNaNaNaNaNaNaNaNaNaNaNaNaNaNaNaNaNaa(lp422
NaNaNaNaNaNaNaNaNaNaNaNaNaNaNaNaNaNaNaNaa(lp423
NaNaNaNaNaNaNaNaNaNaNaNaNaNaNaNaNaNaNaNaa(lp424
NaNaNaNaNaNaNaNaNaNaNaNaNaNaNaNaNaNaNaNaa(lp425
NaNaNaNaNaNaNaNaNaNaNaNaNaNaNaNaNaNaNaNaa(lp426
NaNaNaNaNaNaNaNaNaNaNaNaNaNaNaNaNaNaNaNaa(lp427
NaNaNaNaNaNaNaNaNaNaNaNaNaNaNaNaNaNaNaNaa(lp428
NaNaNaNaNaNaNaNaNaNaNaNaNaNaNaNaNaNaNaNaa(lp429
NaNaNaNaNaNaNaNaNaNaNaNaNaNaNaNaNaNaNaNaa(lp430
NaNaNaNaNaNaNaNaNaNaNaNaNaNaNaNaNaNaNaNaa(lp431
NaNaNaNaNaNaNaNaNaNaNaNaNaNaNaNaNaNaNaNaa(lp432
NaNaNaNaNaNaNaNaNaNaNaNaNaNaNaNaNaNaNaNaasS'00:24:6c:c5:34:62'
p433
(lp434
(lp435
NaNaNaNaNaNaNaNaNaNaNaNaNaNaNaNaNaNaNaNaa(lp436
NaNaNaNaNaNaNaNaNaNaNaNaNaNaNaNaNaNaNaNaa(lp437
NaNaNaNaNaNaNaNaNaNaNaNaNaNaNaNaNaNaNaNaa(lp438
NaNaNaNaNaNaNaNaNaNaNaNaNaNaNaNaNaNaNaNaa(lp439
NaNaNaNaNaNaNaNaNaNaNaNaNaNaNaNaNaNaNaNaa(lp440
NaNaNaNaNaNaNaNaNaNaNaNaNaNaNaNaNaNaNaNaa(lp441
NaNaNaNaNaNaNaNaNaNaNaNaNaNaNaNaNaNaNaNaa(lp442
NaNaNaNaNaNaNaNaNaNaNaNaNaNaNaNaNaNaNaNaa(lp443
NaNaNaNaNaNaNaNag12
(g16
S'\xef\x97\xf5~Y\xafR\xc0'
p444
tp445
Rp446
ag12
(g16
S'\x8d\xb0\xdc\xd3\x08\x8bQ\xc0'
p447
tp448
Rp449
ag12
(g16
S'\x12\x18\x81\x11\x18AP\xc0'
p450
tp451
Rp452
ag12
(g16
S'\xd5\x8b\xf9\xd4\x8b\xb9P\xc0'
p453
tp454
Rp455
ag12
(g16
S'/\xe6S/\xe6\x13P\xc0'
p456
tp457
Rp458
ag12
(g16
S'0\x18\x0c\x06\x83\x01Q\xc0'
p459
tp460
Rp461
ag12
(g16
S'\x00\x00\x00\x00\x00\\O\xc0'
p462
tp463
Rp464
aNaNaNaNaNaa(lp465
NaNaNaNaNaNaNaNaNag12
(g16
S'z\x9f\xe2\x92!\xd8P\xc0'
p466
tp467
Rp468
ag12
(g16
S'\xecQ\xb8\x1e\x85kO\xc0'
p469
tp470
Rp471
ag12
(g16
S'\x9fz1\x9fz\xb1O\xc0'
p472
tp473
Rp474
ag12
(g16
S'yJ\x90\xa7\x04\xf9P\xc0'
p475
tp476
Rp477
ag12
(g16
S'\x04?\xf0\x03?pO\xc0'
p478
tp479
Rp480
ag12
(g16
S't\xce9\xe7\x9c3O\xc0'
p481
tp482
Rp483
ag12
(g16
S'f\xbd_\xd6\xfb\xe5O\xc0'
p484
tp485
Rp486
aNaNaNaNaa(lp487
NaNaNaNaNaNaNaNaNag12
(g16
S'\xfb=\xb7\xc4\xa9\x9fQ\xc0'
p488
tp489
Rp490
ag12
(g16
S'0\x8f\xad\x08\x1a\xceN\xc0'
p491
tp492
Rp493
ag12
(g16
S'fffff\xc6P\xc0'
p494
tp495
Rp496
ag12
(g16
S'm\xd6fm\xd6\xe6O\xc0'
p497
tp498
Rp499
ag12
(g16
S'fffff\xe6N\xc0'
p500
tp501
Rp502
ag12
(g16
S'd;\xdfO\x8d\xd7Q\xc0'
p503
tp504
Rp505
ag12
(g16
S'6h\xf2e\x83fP\xc0'
p506
tp507
Rp508
ag12
(g16
S'\x00\x00\x00\x00\x00\xd6P\xc0'
p509
tp510
Rp511
aNaNaNaa(lp512
NaNaNaNaNaNaNaNaNaNag12
(g16
S'\xfaZ=;\x04\xaeQ\xc0'
p513
tp514
Rp515
ag12
(g16
S'\x9c\xd4}yl\x05P\xc0'
p516
tp517
Rp518
ag12
(g16
S'.\x9e\xdc\xe2\xc9\xadO\xc0'
p519
tp520
Rp521
ag12
(g16
S'\xdd$\x06\x81\x95\xc3O\xc0'
p522
tp523
Rp524
ag12
(g16
S'\t\xe4\x9a\x08\xe4\xdaP\xc0'
p525
tp526
Rp527
ag12
(g16
S'dp>\x06\xe7\xa3P\xc0'
p528
tp529
Rp530
ag12
(g16
S'\xb0K*\x1f\xc6\xbdQ\xc0'
p531
tp532
Rp533
aNaNaNaa(lp534
NaNaNaNaNaNaNaNaNaNag12
(g16
S'\x00\x00\x00\x00\x00\x00Q\xc0'
p535
tp536
Rp537
ag12
(g16
S'fffff\xe6P\xc0'
p538
tp539
Rp540
ag12
(g16
S'\xac\x1cZd;\x1fP\xc0'
p541
tp542
Rp543
ag12
(g16
S'\xe9&1\x08\xac\x9cO\xc0'
p544
tp545
Rp546
ag12
(g16
S"yr\x8b'\xb7\xf8M\xc0"
p547
tp548
Rp549
ag12
(g16
S'\x16A\xc3I\xddWQ\xc0'
p550
tp551
Rp552
ag12
(g16
S'\x9c\xde\xf4\xa67}P\xc0'
p553
tp554
Rp555
aNaNaNaa(lp556
NaNaNaNaNaNaNaNaNaNaNag12
(g16
S'\r\xe55\x94\xd7\x10R\xc0'
p557
tp558
Rp559
ag12
(g16
S'\xac\xd0\x19\xac\xd0\xd9P\xc0'
p560
tp561
Rp562
ag12
(g16
S'\xbd_\xd6\xfbe\xfdP\xc0'
p563
tp564
Rp565
ag12
(g16
S'6\x11\xc85\x11\x88P\xc0'
p566
tp567
Rp568
ag12
(g16
S'*.\x19\x82u4P\xc0'
p569
tp570
Rp571
ag12
(g16
S'm\xe7\xfb\xa9\xf1\x12Q\xc0'
p572
tp573
Rp574
aNaNaNaa(lp575
NaNaNaNaNaNaNaNaNaNaNaNag12
(g16
S'\xc3I\xdd\x97\xc7\xd6Q\xc0'
p576
tp577
Rp578
ag12
(g16
S'\x9b\xf7).\x19\xc2P\xc0'
p579
tp580
Rp581
ag12
(g16
S'{\t\xed%\xb4\x97Q\xc0'
p582
tp583
Rp584
ag12
(g16
S'\xd1E\x17]t\x11Q\xc0'
p585
tp586
Rp587
ag12
(g16
S'\x9a\xaf\xd5\xb3C\xa0R\xc0'
p588
tp589
Rp590
aNaNaNaa(lp591
NaNaNaNaNaNaNaNaNaNaNaNaNaNaNag12
(g16
S'&\x95\x0f\xe3~\x9dQ\xc0'
p592
tp593
Rp594
ag12
(g16
S'B\x08!\x84\x10bS\xc0'
p595
tp596
Rp597
aNaNaNaa(lp598
NaNaNaNaNaNaNaNaNaNaNaNaNaNaNaNaNaNaNaNaa(lp599
NaNaNaNaNaNaNaNaNaNaNaNaNaNaNaNaNaNaNaNaa(lp600
NaNaNaNaNaNaNaNaNaNaNaNaNaNaNaNaNaNaNaNaa(lp601
NaNaNaNaNaNaNaNaNaNaNaNaNaNaNaNaNaNaNaNaa(lp602
NaNaNaNaNaNaNaNaNaNaNaNaNaNaNaNaNaNaNaNaa(lp603
NaNaNaNaNaNaNaNaNaNaNaNaNaNaNaNaNaNaNaNaa(lp604
NaNaNaNaNaNaNaNaNaNaNaNaNaNaNaNaNaNaNaNaa(lp605
NaNaNaNaNaNaNaNaNaNaNaNaNaNaNaNaNaNaNaNaa(lp606
NaNaNaNaNaNaNaNaNaNaNaNaNaNaNaNaNaNaNaNaa(lp607
NaNaNaNaNaNaNaNaNaNaNaNaNaNaNaNaNaNaNaNaa(lp608
NaNaNaNaNaNaNaNaNaNaNaNaNaNaNaNaNaNaNaNaasS'00:24:6c:c5:34:61'
p609
(lp610
(lp611
NaNaNaNaNaNaNaNaNaNaNaNaNaNaNaNaNaNaNaNaa(lp612
NaNaNaNaNaNaNaNaNaNaNaNaNaNaNaNaNaNaNaNaa(lp613
NaNaNaNaNaNaNaNaNaNaNaNaNaNaNaNaNaNaNaNaa(lp614
NaNaNaNaNaNaNaNaNaNaNaNaNaNaNaNaNaNaNaNaa(lp615
NaNaNaNaNaNaNaNaNaNaNaNaNaNaNaNaNaNaNaNaa(lp616
NaNaNaNaNaNaNaNaNaNaNaNaNaNaNaNaNaNaNaNaa(lp617
NaNaNaNaNaNaNaNaNaNaNaNaNaNaNaNaNaNaNaNaa(lp618
NaNaNaNaNaNaNaNaNaNaNaNaNaNaNaNaNaNaNaNaa(lp619
NaNaNaNaNaNaNaNag12
(g16
S'\xb0rh\x91\xed\xbcR\xc0'
p620
tp621
Rp622
ag12
(g16
S'\x10\x93+\x88\xc9\x95Q\xc0'
p623
tp624
Rp625
ag12
(g16
S'DDDDDDP\xc0'
p626
tp627
Rp628
ag12
(g16
S'\xa3(\x8a\xa2(\xcaP\xc0'
p629
tp630
Rp631
ag12
(g16
S'\xab\xaa\xaa\xaa\xaa*P\xc0'
p632
tp633
Rp634
ag12
(g16
S'\xb5Z\xadV\xab\x15Q\xc0'
p635
tp636
Rp637
ag12
(g16
S'\x00\x00\x00\x00\x00dO\xc0'
p638
tp639
Rp640
aNaNaNaNaNaa(lp641
NaNaNaNaNaNaNaNaNag12
(g16
S'\xdf{\xef\xbd\xf7\xdeP\xc0'
p642
tp643
Rp644
ag12
(g16
S'uP\x07uP\x87O\xc0'
p645
tp646
Rp647
ag12
(g16
S'dp>\x06\xe7\xe3O\xc0'
p648
tp649
Rp650
ag12
(g16
S'"""""\x12Q\xc0'
p651
tp652
Rp653
ag12
(g16
S'\xfc\xc0\x0f\xfc\xc0\x8fO\xc0'
p654
tp655
Rp656
ag12
(g16
S'\x8c1\xc6\x18cLO\xc0'
p657
tp658
Rp659
ag12
(g16
S'c\x8c1\xc6\x18\x03P\xc0'
p660
tp661
Rp662
aNaNaNaNaa(lp663
NaNaNaNaNaNaNaNaNag12
(g16
S'\x06\x81\x95C\x8b\xacQ\xc0'
p664
tp665
Rp666
ag12
(g16
S'\x93!XG\x9b\xf7N\xc0'
p667
tp668
Rp669
ag12
(g16
S'2\xc6\x18c\x8c\xd1P\xc0'
p670
tp671
Rp672
ag12
(g16
S'\xad\xb5\xd6Zk\rP\xc0'
p673
tp674
Rp675
ag12
(g16
S'\xdc\xedv\xbb\xdd\xeeN\xc0'
p676
tp677
Rp678
ag12
(g16
S'\xec\xf5z\xbd^\xefQ\xc0'
p679
tp680
Rp681
ag12
(g16
S'\xf8S\xe3\xa5\x9b\x84P\xc0'
p682
tp683
Rp684
ag12
(g16
S'\x00\x00\x00\x00\x00\xe2P\xc0'
p685
tp686
Rp687
aNaNaNaa(lp688
NaNaNaNaNaNaNaNaNaNag12
(g16
S'5^\xbaI\x0c\xc2Q\xc0'
p689
tp690
Rp691
ag12
(g16
S'm\xe7\xfb\xa9\xf1\x12P\xc0'
p692
tp693
Rp694
ag12
(g16
S'\x08\xac\x1cZd\xbbO\xc0'
p695
tp696
Rp697
ag12
(g16
S'\x00\x00\x00\x00\x00\xf2O\xc0'
p698
tp699
Rp700
ag12
(g16
S'\xa4\xc3F:l\xe4P\xc0'
p701
tp702
Rp703
ag12
(g16
S'\xc1\xca\xa1E\xb6\xb3P\xc0'
p704
tp705
Rp706
ag12
(g16
S'\xdd\x97\xc7V\x04\xcdQ\xc0'
p707
tp708
Rp709
aNaNaNaa(lp710
NaNaNaNaNaNaNaNaNaNag12
(g16
S'\x97\x0c\xc1:\xda\xfcP\xc0'
p711
tp712
Rp713
ag12
(g16
S'M\xd34M\xd3\xf4P\xc0'
p714
tp715
Rp716
ag12
(g16
S'\x00\x00\x00\x00\x00@P\xc0'
p717
tp718
Rp719
ag12
(g16
S'-\xcb\xb2,\xcb\xb2O\xc0'
p720
tp721
Rp722
ag12
(g16
S'\xaeG\xe1z\x14.N\xc0'
p723
tp724
Rp725
ag12
(g16
S'\x00\x00\x00\x00\x00`Q\xc0'
p726
tp727
Rp728
ag12
(g16
S'\x9a\x99\x99\x99\x99\x89P\xc0'
p729
tp730
Rp731
aNaNaNaa(lp732
NaNaNaNaNaNaNaNaNaNaNag12
(g16
S'#,\xf74\xc22R\xc0'
p733
tp734
Rp735
ag12
(g16
S'\xa4p=\n\xd7\xe3P\xc0'
p736
tp737
Rp738
ag12
(g16
S'\xd2a#\x1d6\x12Q\xc0'
p739
tp740
Rp741
ag12
(g16
S'\x15\x97\x0c\xc1:\x9aP\xc0'
p742
tp743
Rp744
ag12
(g16
S'\xf8).\x19\x825P\xc0'
p745
tp746
Rp747
ag12
(g16
S'B`\xe5\xd0"\x1bQ\xc0'
p748
tp749
Rp750
aNaNaNaa(lp751
NaNaNaNaNaNaNaNaNaNaNaNag12
(g16
S'\x04V\x0e-\xb2\xddQ\xc0'
p752
tp753
Rp754
ag12
(g16
S'\xce9\xe7\x9cs\xceP\xc0'
p755
tp756
Rp757
ag12
(g16
S'\xd0pR\xf7\xe5\xb1Q\xc0'
p758
tp759
Rp760
ag12
(g16
S'\xb7m\xdb\xb6m\x1bQ\xc0'
p761
tp762
Rp763
ag12
(g16
S'+\x87\x16\xd9\xce\xb7R\xc0'
p764
tp765
Rp766
aNaNaNaa(lp767
NaNaNaNaNaNaNaNaNaNaNaNaNaNaNag12
(g16
S'\x16\xd3YLg\xb1Q\xc0'
p768
tp769
Rp770
ag12
(g16
S'\x19\x04V\x0e-rS\xc0'
p771
tp772
Rp773
aNaNaNaa(lp774
NaNaNaNaNaNaNaNaNaNaNaNaNaNaNaNaNaNaNaNaa(lp775
NaNaNaNaNaNaNaNaNaNaNaNaNaNaNaNaNaNaNaNaa(lp776
NaNaNaNaNaNaNaNaNaNaNaNaNaNaNaNaNaNaNaNaa(lp777
NaNaNaNaNaNaNaNaNaNaNaNaNaNaNaNaNaNaNaNaa(lp778
NaNaNaNaNaNaNaNaNaNaNaNaNaNaNaNaNaNaNaNaa(lp779
NaNaNaNaNaNaNaNaNaNaNaNaNaNaNaNaNaNaNaNaa(lp780
NaNaNaNaNaNaNaNaNaNaNaNaNaNaNaNaNaNaNaNaa(lp781
NaNaNaNaNaNaNaNaNaNaNaNaNaNaNaNaNaNaNaNaa(lp782
NaNaNaNaNaNaNaNaNaNaNaNaNaNaNaNaNaNaNaNaa(lp783
NaNaNaNaNaNaNaNaNaNaNaNaNaNaNaNaNaNaNaNaa(lp784
NaNaNaNaNaNaNaNaNaNaNaNaNaNaNaNaNaNaNaNaasS'00:1a:1e:52:cb:c1'
p785
(lp786
(lp787
NaNaNaNaNaNaNaNaNaNaNaNaNaNaNaNaNaNaNaNaa(lp788
NaNaNaNaNaNaNaNaNaNaNaNaNaNaNaNaNaNaNaNaa(lp789
NaNaNaNaNaNaNaNaNaNaNaNaNaNaNaNaNaNaNaNaa(lp790
NaNaNaNaNaNaNaNaNaNaNaNaNaNaNaNaNaNaNaNaa(lp791
NaNaNaNaNaNaNaNaNaNaNaNaNaNaNaNaNaNaNaNaa(lp792
NaNaNaNaNaNaNaNaNaNaNaNaNaNaNaNaNaNaNaNaa(lp793
NaNaNaNaNaNaNaNaNaNaNaNaNaNaNaNaNaNaNaNaa(lp794
NaNaNaNaNaNaNaNaNaNaNaNaNaNaNaNaNaNaNaNaa(lp795
NaNaNaNaNaNaNaNaNaNaNaNaNaNaNaNaNaNaNaNaa(lp796
NaNaNaNaNaNaNaNaNaNaNaNaNaNaNaNaNaNaNaNaa(lp797
NaNaNaNaNaNaNaNaNaNaNaNaNaNaNaNaNaNaNaNaa(lp798
NaNaNaNaNaNaNaNaNaNaNaNaNaNaNaNaNaNaNaNaa(lp799
NaNaNaNaNaNaNaNaNaNaNaNaNaNaNaNaNaNaNaNaa(lp800
NaNaNaNaNaNaNaNaNaNaNaNaNaNaNaNaNaNaNaNaa(lp801
NaNaNaNaNaNaNaNaNaNaNaNaNaNaNaNaNaNaNaNaa(lp802
NaNaNaNaNaNaNaNaNaNaNaNaNaNaNaNaNaNaNaNaa(lp803
NaNaNaNaNaNaNaNaNaNaNaNaNaNaNaNag12
(g16
S'\xc2\xf9\x18\x9c\x8f\x01P\xc0'
p804
tp805
Rp806
aNaNaNaa(lp807
NaNaNaNaNaNaNaNaNaNaNaNaNaNaNaNaNaNaNaNaa(lp808
NaNaNaNaNaNaNaNaNaNaNaNaNaNaNaNaNaNaNaNaa(lp809
NaNaNaNaNaNaNaNaNaNaNaNaNaNaNaNaNaNaNaNaa(lp810
NaNaNaNaNaNaNaNaNaNaNaNaNaNaNaNaNaNaNaNaa(lp811
NaNaNaNaNaNaNaNaNaNaNaNaNaNaNaNaNaNaNaNaa(lp812
NaNaNaNaNaNaNaNaNaNaNaNaNaNaNaNaNaNaNaNaa(lp813
NaNaNaNaNaNaNaNaNaNaNaNaNaNaNaNaNaNaNaNaa(lp814
NaNaNaNaNaNaNaNaNaNaNaNaNaNaNaNaNaNaNaNaa(lp815
NaNaNaNaNaNaNaNaNaNaNaNaNaNaNaNaNaNaNaNaa(lp816
NaNaNaNaNaNaNaNaNaNaNaNaNaNaNaNaNaNaNaNaas.